
Nucleo-F446RE_contactor_and_model.elf:     file format elf32-littlearm

Sections:
Idx Name          Size      VMA       LMA       File off  Algn
  0 .isr_vector   000001c4  08000000  08000000  00010000  2**0
                  CONTENTS, ALLOC, LOAD, READONLY, DATA
  1 .text         0000a370  080001d0  080001d0  000101d0  2**4
                  CONTENTS, ALLOC, LOAD, READONLY, CODE
  2 .rodata       00033084  0800a540  0800a540  0001a540  2**5
                  CONTENTS, ALLOC, LOAD, READONLY, DATA
  3 .ARM.extab    00000000  0803d5c4  0803d5c4  00050dd8  2**0
                  CONTENTS
  4 .ARM          00000008  0803d5c4  0803d5c4  0004d5c4  2**2
                  CONTENTS, ALLOC, LOAD, READONLY, DATA
  5 .preinit_array 00000000  0803d5cc  0803d5cc  00050dd8  2**0
                  CONTENTS, ALLOC, LOAD, DATA
  6 .init_array   00000004  0803d5cc  0803d5cc  0004d5cc  2**2
                  CONTENTS, ALLOC, LOAD, DATA
  7 .fini_array   00000004  0803d5d0  0803d5d0  0004d5d0  2**2
                  CONTENTS, ALLOC, LOAD, DATA
  8 .data         00000dd8  20000000  0803d5d4  00050000  2**2
                  CONTENTS, ALLOC, LOAD, DATA
  9 .bss          00000ac0  20000dd8  0803e3ac  00050dd8  2**2
                  ALLOC
 10 ._user_heap_stack 00001000  20001898  0803e3ac  00051898  2**0
                  ALLOC
 11 .ARM.attributes 00000030  00000000  00000000  00050dd8  2**0
                  CONTENTS, READONLY
 12 .comment      00000093  00000000  00000000  00050e08  2**0
                  CONTENTS, READONLY
 13 .debug_info   0001a4c7  00000000  00000000  00050e9b  2**0
                  CONTENTS, READONLY, DEBUGGING, OCTETS
 14 .debug_abbrev 0000456f  00000000  00000000  0006b362  2**0
                  CONTENTS, READONLY, DEBUGGING, OCTETS
 15 .debug_loclists 00008152  00000000  00000000  0006f8d1  2**0
                  CONTENTS, READONLY, DEBUGGING, OCTETS
 16 .debug_aranges 00000ba8  00000000  00000000  00077a28  2**3
                  CONTENTS, READONLY, DEBUGGING, OCTETS
 17 .debug_rnglists 00000cd9  00000000  00000000  000785d0  2**0
                  CONTENTS, READONLY, DEBUGGING, OCTETS
 18 .debug_macro  00026e45  00000000  00000000  000792a9  2**0
                  CONTENTS, READONLY, DEBUGGING, OCTETS
 19 .debug_line   0001860d  00000000  00000000  000a00ee  2**0
                  CONTENTS, READONLY, DEBUGGING, OCTETS
 20 .debug_str    000ef094  00000000  00000000  000b86fb  2**0
                  CONTENTS, READONLY, DEBUGGING, OCTETS
 21 .debug_frame  0000351c  00000000  00000000  001a7790  2**2
                  CONTENTS, READONLY, DEBUGGING, OCTETS
 22 .debug_line_str 00000079  00000000  00000000  001aacac  2**0
                  CONTENTS, READONLY, DEBUGGING, OCTETS

Disassembly of section .text:

080001d0 <__do_global_dtors_aux>:
 80001d0:	b510      	push	{r4, lr}
 80001d2:	4c05      	ldr	r4, [pc, #20]	; (80001e8 <__do_global_dtors_aux+0x18>)
 80001d4:	7823      	ldrb	r3, [r4, #0]
 80001d6:	b933      	cbnz	r3, 80001e6 <__do_global_dtors_aux+0x16>
 80001d8:	4b04      	ldr	r3, [pc, #16]	; (80001ec <__do_global_dtors_aux+0x1c>)
 80001da:	b113      	cbz	r3, 80001e2 <__do_global_dtors_aux+0x12>
 80001dc:	4804      	ldr	r0, [pc, #16]	; (80001f0 <__do_global_dtors_aux+0x20>)
 80001de:	f3af 8000 	nop.w
 80001e2:	2301      	movs	r3, #1
 80001e4:	7023      	strb	r3, [r4, #0]
 80001e6:	bd10      	pop	{r4, pc}
 80001e8:	20000dd8 	.word	0x20000dd8
 80001ec:	00000000 	.word	0x00000000
 80001f0:	0800a528 	.word	0x0800a528

080001f4 <frame_dummy>:
 80001f4:	b508      	push	{r3, lr}
 80001f6:	4b03      	ldr	r3, [pc, #12]	; (8000204 <frame_dummy+0x10>)
 80001f8:	b11b      	cbz	r3, 8000202 <frame_dummy+0xe>
 80001fa:	4903      	ldr	r1, [pc, #12]	; (8000208 <frame_dummy+0x14>)
 80001fc:	4803      	ldr	r0, [pc, #12]	; (800020c <frame_dummy+0x18>)
 80001fe:	f3af 8000 	nop.w
 8000202:	bd08      	pop	{r3, pc}
 8000204:	00000000 	.word	0x00000000
 8000208:	20000ddc 	.word	0x20000ddc
 800020c:	0800a528 	.word	0x0800a528

08000210 <memchr>:
 8000210:	f001 01ff 	and.w	r1, r1, #255	; 0xff
 8000214:	2a10      	cmp	r2, #16
 8000216:	db2b      	blt.n	8000270 <memchr+0x60>
 8000218:	f010 0f07 	tst.w	r0, #7
 800021c:	d008      	beq.n	8000230 <memchr+0x20>
 800021e:	f810 3b01 	ldrb.w	r3, [r0], #1
 8000222:	3a01      	subs	r2, #1
 8000224:	428b      	cmp	r3, r1
 8000226:	d02d      	beq.n	8000284 <memchr+0x74>
 8000228:	f010 0f07 	tst.w	r0, #7
 800022c:	b342      	cbz	r2, 8000280 <memchr+0x70>
 800022e:	d1f6      	bne.n	800021e <memchr+0xe>
 8000230:	b4f0      	push	{r4, r5, r6, r7}
 8000232:	ea41 2101 	orr.w	r1, r1, r1, lsl #8
 8000236:	ea41 4101 	orr.w	r1, r1, r1, lsl #16
 800023a:	f022 0407 	bic.w	r4, r2, #7
 800023e:	f07f 0700 	mvns.w	r7, #0
 8000242:	2300      	movs	r3, #0
 8000244:	e8f0 5602 	ldrd	r5, r6, [r0], #8
 8000248:	3c08      	subs	r4, #8
 800024a:	ea85 0501 	eor.w	r5, r5, r1
 800024e:	ea86 0601 	eor.w	r6, r6, r1
 8000252:	fa85 f547 	uadd8	r5, r5, r7
 8000256:	faa3 f587 	sel	r5, r3, r7
 800025a:	fa86 f647 	uadd8	r6, r6, r7
 800025e:	faa5 f687 	sel	r6, r5, r7
 8000262:	b98e      	cbnz	r6, 8000288 <memchr+0x78>
 8000264:	d1ee      	bne.n	8000244 <memchr+0x34>
 8000266:	bcf0      	pop	{r4, r5, r6, r7}
 8000268:	f001 01ff 	and.w	r1, r1, #255	; 0xff
 800026c:	f002 0207 	and.w	r2, r2, #7
 8000270:	b132      	cbz	r2, 8000280 <memchr+0x70>
 8000272:	f810 3b01 	ldrb.w	r3, [r0], #1
 8000276:	3a01      	subs	r2, #1
 8000278:	ea83 0301 	eor.w	r3, r3, r1
 800027c:	b113      	cbz	r3, 8000284 <memchr+0x74>
 800027e:	d1f8      	bne.n	8000272 <memchr+0x62>
 8000280:	2000      	movs	r0, #0
 8000282:	4770      	bx	lr
 8000284:	3801      	subs	r0, #1
 8000286:	4770      	bx	lr
 8000288:	2d00      	cmp	r5, #0
 800028a:	bf06      	itte	eq
 800028c:	4635      	moveq	r5, r6
 800028e:	3803      	subeq	r0, #3
 8000290:	3807      	subne	r0, #7
 8000292:	f015 0f01 	tst.w	r5, #1
 8000296:	d107      	bne.n	80002a8 <memchr+0x98>
 8000298:	3001      	adds	r0, #1
 800029a:	f415 7f80 	tst.w	r5, #256	; 0x100
 800029e:	bf02      	ittt	eq
 80002a0:	3001      	addeq	r0, #1
 80002a2:	f415 3fc0 	tsteq.w	r5, #98304	; 0x18000
 80002a6:	3001      	addeq	r0, #1
 80002a8:	bcf0      	pop	{r4, r5, r6, r7}
 80002aa:	3801      	subs	r0, #1
 80002ac:	4770      	bx	lr
 80002ae:	bf00      	nop

080002b0 <strlen>:
 80002b0:	4603      	mov	r3, r0
 80002b2:	f813 2b01 	ldrb.w	r2, [r3], #1
 80002b6:	2a00      	cmp	r2, #0
 80002b8:	d1fb      	bne.n	80002b2 <strlen+0x2>
 80002ba:	1a18      	subs	r0, r3, r0
 80002bc:	3801      	subs	r0, #1
 80002be:	4770      	bx	lr

080002c0 <__aeabi_drsub>:
 80002c0:	f081 4100 	eor.w	r1, r1, #2147483648	; 0x80000000
 80002c4:	e002      	b.n	80002cc <__adddf3>
 80002c6:	bf00      	nop

080002c8 <__aeabi_dsub>:
 80002c8:	f083 4300 	eor.w	r3, r3, #2147483648	; 0x80000000

080002cc <__adddf3>:
 80002cc:	b530      	push	{r4, r5, lr}
 80002ce:	ea4f 0441 	mov.w	r4, r1, lsl #1
 80002d2:	ea4f 0543 	mov.w	r5, r3, lsl #1
 80002d6:	ea94 0f05 	teq	r4, r5
 80002da:	bf08      	it	eq
 80002dc:	ea90 0f02 	teqeq	r0, r2
 80002e0:	bf1f      	itttt	ne
 80002e2:	ea54 0c00 	orrsne.w	ip, r4, r0
 80002e6:	ea55 0c02 	orrsne.w	ip, r5, r2
 80002ea:	ea7f 5c64 	mvnsne.w	ip, r4, asr #21
 80002ee:	ea7f 5c65 	mvnsne.w	ip, r5, asr #21
 80002f2:	f000 80e2 	beq.w	80004ba <__adddf3+0x1ee>
 80002f6:	ea4f 5454 	mov.w	r4, r4, lsr #21
 80002fa:	ebd4 5555 	rsbs	r5, r4, r5, lsr #21
 80002fe:	bfb8      	it	lt
 8000300:	426d      	neglt	r5, r5
 8000302:	dd0c      	ble.n	800031e <__adddf3+0x52>
 8000304:	442c      	add	r4, r5
 8000306:	ea80 0202 	eor.w	r2, r0, r2
 800030a:	ea81 0303 	eor.w	r3, r1, r3
 800030e:	ea82 0000 	eor.w	r0, r2, r0
 8000312:	ea83 0101 	eor.w	r1, r3, r1
 8000316:	ea80 0202 	eor.w	r2, r0, r2
 800031a:	ea81 0303 	eor.w	r3, r1, r3
 800031e:	2d36      	cmp	r5, #54	; 0x36
 8000320:	bf88      	it	hi
 8000322:	bd30      	pophi	{r4, r5, pc}
 8000324:	f011 4f00 	tst.w	r1, #2147483648	; 0x80000000
 8000328:	ea4f 3101 	mov.w	r1, r1, lsl #12
 800032c:	f44f 1c80 	mov.w	ip, #1048576	; 0x100000
 8000330:	ea4c 3111 	orr.w	r1, ip, r1, lsr #12
 8000334:	d002      	beq.n	800033c <__adddf3+0x70>
 8000336:	4240      	negs	r0, r0
 8000338:	eb61 0141 	sbc.w	r1, r1, r1, lsl #1
 800033c:	f013 4f00 	tst.w	r3, #2147483648	; 0x80000000
 8000340:	ea4f 3303 	mov.w	r3, r3, lsl #12
 8000344:	ea4c 3313 	orr.w	r3, ip, r3, lsr #12
 8000348:	d002      	beq.n	8000350 <__adddf3+0x84>
 800034a:	4252      	negs	r2, r2
 800034c:	eb63 0343 	sbc.w	r3, r3, r3, lsl #1
 8000350:	ea94 0f05 	teq	r4, r5
 8000354:	f000 80a7 	beq.w	80004a6 <__adddf3+0x1da>
 8000358:	f1a4 0401 	sub.w	r4, r4, #1
 800035c:	f1d5 0e20 	rsbs	lr, r5, #32
 8000360:	db0d      	blt.n	800037e <__adddf3+0xb2>
 8000362:	fa02 fc0e 	lsl.w	ip, r2, lr
 8000366:	fa22 f205 	lsr.w	r2, r2, r5
 800036a:	1880      	adds	r0, r0, r2
 800036c:	f141 0100 	adc.w	r1, r1, #0
 8000370:	fa03 f20e 	lsl.w	r2, r3, lr
 8000374:	1880      	adds	r0, r0, r2
 8000376:	fa43 f305 	asr.w	r3, r3, r5
 800037a:	4159      	adcs	r1, r3
 800037c:	e00e      	b.n	800039c <__adddf3+0xd0>
 800037e:	f1a5 0520 	sub.w	r5, r5, #32
 8000382:	f10e 0e20 	add.w	lr, lr, #32
 8000386:	2a01      	cmp	r2, #1
 8000388:	fa03 fc0e 	lsl.w	ip, r3, lr
 800038c:	bf28      	it	cs
 800038e:	f04c 0c02 	orrcs.w	ip, ip, #2
 8000392:	fa43 f305 	asr.w	r3, r3, r5
 8000396:	18c0      	adds	r0, r0, r3
 8000398:	eb51 71e3 	adcs.w	r1, r1, r3, asr #31
 800039c:	f001 4500 	and.w	r5, r1, #2147483648	; 0x80000000
 80003a0:	d507      	bpl.n	80003b2 <__adddf3+0xe6>
 80003a2:	f04f 0e00 	mov.w	lr, #0
 80003a6:	f1dc 0c00 	rsbs	ip, ip, #0
 80003aa:	eb7e 0000 	sbcs.w	r0, lr, r0
 80003ae:	eb6e 0101 	sbc.w	r1, lr, r1
 80003b2:	f5b1 1f80 	cmp.w	r1, #1048576	; 0x100000
 80003b6:	d31b      	bcc.n	80003f0 <__adddf3+0x124>
 80003b8:	f5b1 1f00 	cmp.w	r1, #2097152	; 0x200000
 80003bc:	d30c      	bcc.n	80003d8 <__adddf3+0x10c>
 80003be:	0849      	lsrs	r1, r1, #1
 80003c0:	ea5f 0030 	movs.w	r0, r0, rrx
 80003c4:	ea4f 0c3c 	mov.w	ip, ip, rrx
 80003c8:	f104 0401 	add.w	r4, r4, #1
 80003cc:	ea4f 5244 	mov.w	r2, r4, lsl #21
 80003d0:	f512 0f80 	cmn.w	r2, #4194304	; 0x400000
 80003d4:	f080 809a 	bcs.w	800050c <__adddf3+0x240>
 80003d8:	f1bc 4f00 	cmp.w	ip, #2147483648	; 0x80000000
 80003dc:	bf08      	it	eq
 80003de:	ea5f 0c50 	movseq.w	ip, r0, lsr #1
 80003e2:	f150 0000 	adcs.w	r0, r0, #0
 80003e6:	eb41 5104 	adc.w	r1, r1, r4, lsl #20
 80003ea:	ea41 0105 	orr.w	r1, r1, r5
 80003ee:	bd30      	pop	{r4, r5, pc}
 80003f0:	ea5f 0c4c 	movs.w	ip, ip, lsl #1
 80003f4:	4140      	adcs	r0, r0
 80003f6:	eb41 0101 	adc.w	r1, r1, r1
 80003fa:	3c01      	subs	r4, #1
 80003fc:	bf28      	it	cs
 80003fe:	f5b1 1f80 	cmpcs.w	r1, #1048576	; 0x100000
 8000402:	d2e9      	bcs.n	80003d8 <__adddf3+0x10c>
 8000404:	f091 0f00 	teq	r1, #0
 8000408:	bf04      	itt	eq
 800040a:	4601      	moveq	r1, r0
 800040c:	2000      	moveq	r0, #0
 800040e:	fab1 f381 	clz	r3, r1
 8000412:	bf08      	it	eq
 8000414:	3320      	addeq	r3, #32
 8000416:	f1a3 030b 	sub.w	r3, r3, #11
 800041a:	f1b3 0220 	subs.w	r2, r3, #32
 800041e:	da0c      	bge.n	800043a <__adddf3+0x16e>
 8000420:	320c      	adds	r2, #12
 8000422:	dd08      	ble.n	8000436 <__adddf3+0x16a>
 8000424:	f102 0c14 	add.w	ip, r2, #20
 8000428:	f1c2 020c 	rsb	r2, r2, #12
 800042c:	fa01 f00c 	lsl.w	r0, r1, ip
 8000430:	fa21 f102 	lsr.w	r1, r1, r2
 8000434:	e00c      	b.n	8000450 <__adddf3+0x184>
 8000436:	f102 0214 	add.w	r2, r2, #20
 800043a:	bfd8      	it	le
 800043c:	f1c2 0c20 	rsble	ip, r2, #32
 8000440:	fa01 f102 	lsl.w	r1, r1, r2
 8000444:	fa20 fc0c 	lsr.w	ip, r0, ip
 8000448:	bfdc      	itt	le
 800044a:	ea41 010c 	orrle.w	r1, r1, ip
 800044e:	4090      	lslle	r0, r2
 8000450:	1ae4      	subs	r4, r4, r3
 8000452:	bfa2      	ittt	ge
 8000454:	eb01 5104 	addge.w	r1, r1, r4, lsl #20
 8000458:	4329      	orrge	r1, r5
 800045a:	bd30      	popge	{r4, r5, pc}
 800045c:	ea6f 0404 	mvn.w	r4, r4
 8000460:	3c1f      	subs	r4, #31
 8000462:	da1c      	bge.n	800049e <__adddf3+0x1d2>
 8000464:	340c      	adds	r4, #12
 8000466:	dc0e      	bgt.n	8000486 <__adddf3+0x1ba>
 8000468:	f104 0414 	add.w	r4, r4, #20
 800046c:	f1c4 0220 	rsb	r2, r4, #32
 8000470:	fa20 f004 	lsr.w	r0, r0, r4
 8000474:	fa01 f302 	lsl.w	r3, r1, r2
 8000478:	ea40 0003 	orr.w	r0, r0, r3
 800047c:	fa21 f304 	lsr.w	r3, r1, r4
 8000480:	ea45 0103 	orr.w	r1, r5, r3
 8000484:	bd30      	pop	{r4, r5, pc}
 8000486:	f1c4 040c 	rsb	r4, r4, #12
 800048a:	f1c4 0220 	rsb	r2, r4, #32
 800048e:	fa20 f002 	lsr.w	r0, r0, r2
 8000492:	fa01 f304 	lsl.w	r3, r1, r4
 8000496:	ea40 0003 	orr.w	r0, r0, r3
 800049a:	4629      	mov	r1, r5
 800049c:	bd30      	pop	{r4, r5, pc}
 800049e:	fa21 f004 	lsr.w	r0, r1, r4
 80004a2:	4629      	mov	r1, r5
 80004a4:	bd30      	pop	{r4, r5, pc}
 80004a6:	f094 0f00 	teq	r4, #0
 80004aa:	f483 1380 	eor.w	r3, r3, #1048576	; 0x100000
 80004ae:	bf06      	itte	eq
 80004b0:	f481 1180 	eoreq.w	r1, r1, #1048576	; 0x100000
 80004b4:	3401      	addeq	r4, #1
 80004b6:	3d01      	subne	r5, #1
 80004b8:	e74e      	b.n	8000358 <__adddf3+0x8c>
 80004ba:	ea7f 5c64 	mvns.w	ip, r4, asr #21
 80004be:	bf18      	it	ne
 80004c0:	ea7f 5c65 	mvnsne.w	ip, r5, asr #21
 80004c4:	d029      	beq.n	800051a <__adddf3+0x24e>
 80004c6:	ea94 0f05 	teq	r4, r5
 80004ca:	bf08      	it	eq
 80004cc:	ea90 0f02 	teqeq	r0, r2
 80004d0:	d005      	beq.n	80004de <__adddf3+0x212>
 80004d2:	ea54 0c00 	orrs.w	ip, r4, r0
 80004d6:	bf04      	itt	eq
 80004d8:	4619      	moveq	r1, r3
 80004da:	4610      	moveq	r0, r2
 80004dc:	bd30      	pop	{r4, r5, pc}
 80004de:	ea91 0f03 	teq	r1, r3
 80004e2:	bf1e      	ittt	ne
 80004e4:	2100      	movne	r1, #0
 80004e6:	2000      	movne	r0, #0
 80004e8:	bd30      	popne	{r4, r5, pc}
 80004ea:	ea5f 5c54 	movs.w	ip, r4, lsr #21
 80004ee:	d105      	bne.n	80004fc <__adddf3+0x230>
 80004f0:	0040      	lsls	r0, r0, #1
 80004f2:	4149      	adcs	r1, r1
 80004f4:	bf28      	it	cs
 80004f6:	f041 4100 	orrcs.w	r1, r1, #2147483648	; 0x80000000
 80004fa:	bd30      	pop	{r4, r5, pc}
 80004fc:	f514 0480 	adds.w	r4, r4, #4194304	; 0x400000
 8000500:	bf3c      	itt	cc
 8000502:	f501 1180 	addcc.w	r1, r1, #1048576	; 0x100000
 8000506:	bd30      	popcc	{r4, r5, pc}
 8000508:	f001 4500 	and.w	r5, r1, #2147483648	; 0x80000000
 800050c:	f045 41fe 	orr.w	r1, r5, #2130706432	; 0x7f000000
 8000510:	f441 0170 	orr.w	r1, r1, #15728640	; 0xf00000
 8000514:	f04f 0000 	mov.w	r0, #0
 8000518:	bd30      	pop	{r4, r5, pc}
 800051a:	ea7f 5c64 	mvns.w	ip, r4, asr #21
 800051e:	bf1a      	itte	ne
 8000520:	4619      	movne	r1, r3
 8000522:	4610      	movne	r0, r2
 8000524:	ea7f 5c65 	mvnseq.w	ip, r5, asr #21
 8000528:	bf1c      	itt	ne
 800052a:	460b      	movne	r3, r1
 800052c:	4602      	movne	r2, r0
 800052e:	ea50 3401 	orrs.w	r4, r0, r1, lsl #12
 8000532:	bf06      	itte	eq
 8000534:	ea52 3503 	orrseq.w	r5, r2, r3, lsl #12
 8000538:	ea91 0f03 	teqeq	r1, r3
 800053c:	f441 2100 	orrne.w	r1, r1, #524288	; 0x80000
 8000540:	bd30      	pop	{r4, r5, pc}
 8000542:	bf00      	nop

08000544 <__aeabi_ui2d>:
 8000544:	f090 0f00 	teq	r0, #0
 8000548:	bf04      	itt	eq
 800054a:	2100      	moveq	r1, #0
 800054c:	4770      	bxeq	lr
 800054e:	b530      	push	{r4, r5, lr}
 8000550:	f44f 6480 	mov.w	r4, #1024	; 0x400
 8000554:	f104 0432 	add.w	r4, r4, #50	; 0x32
 8000558:	f04f 0500 	mov.w	r5, #0
 800055c:	f04f 0100 	mov.w	r1, #0
 8000560:	e750      	b.n	8000404 <__adddf3+0x138>
 8000562:	bf00      	nop

08000564 <__aeabi_i2d>:
 8000564:	f090 0f00 	teq	r0, #0
 8000568:	bf04      	itt	eq
 800056a:	2100      	moveq	r1, #0
 800056c:	4770      	bxeq	lr
 800056e:	b530      	push	{r4, r5, lr}
 8000570:	f44f 6480 	mov.w	r4, #1024	; 0x400
 8000574:	f104 0432 	add.w	r4, r4, #50	; 0x32
 8000578:	f010 4500 	ands.w	r5, r0, #2147483648	; 0x80000000
 800057c:	bf48      	it	mi
 800057e:	4240      	negmi	r0, r0
 8000580:	f04f 0100 	mov.w	r1, #0
 8000584:	e73e      	b.n	8000404 <__adddf3+0x138>
 8000586:	bf00      	nop

08000588 <__aeabi_f2d>:
 8000588:	0042      	lsls	r2, r0, #1
 800058a:	ea4f 01e2 	mov.w	r1, r2, asr #3
 800058e:	ea4f 0131 	mov.w	r1, r1, rrx
 8000592:	ea4f 7002 	mov.w	r0, r2, lsl #28
 8000596:	bf1f      	itttt	ne
 8000598:	f012 437f 	andsne.w	r3, r2, #4278190080	; 0xff000000
 800059c:	f093 4f7f 	teqne	r3, #4278190080	; 0xff000000
 80005a0:	f081 5160 	eorne.w	r1, r1, #939524096	; 0x38000000
 80005a4:	4770      	bxne	lr
 80005a6:	f032 427f 	bics.w	r2, r2, #4278190080	; 0xff000000
 80005aa:	bf08      	it	eq
 80005ac:	4770      	bxeq	lr
 80005ae:	f093 4f7f 	teq	r3, #4278190080	; 0xff000000
 80005b2:	bf04      	itt	eq
 80005b4:	f441 2100 	orreq.w	r1, r1, #524288	; 0x80000
 80005b8:	4770      	bxeq	lr
 80005ba:	b530      	push	{r4, r5, lr}
 80005bc:	f44f 7460 	mov.w	r4, #896	; 0x380
 80005c0:	f001 4500 	and.w	r5, r1, #2147483648	; 0x80000000
 80005c4:	f021 4100 	bic.w	r1, r1, #2147483648	; 0x80000000
 80005c8:	e71c      	b.n	8000404 <__adddf3+0x138>
 80005ca:	bf00      	nop

080005cc <__aeabi_ul2d>:
 80005cc:	ea50 0201 	orrs.w	r2, r0, r1
 80005d0:	bf08      	it	eq
 80005d2:	4770      	bxeq	lr
 80005d4:	b530      	push	{r4, r5, lr}
 80005d6:	f04f 0500 	mov.w	r5, #0
 80005da:	e00a      	b.n	80005f2 <__aeabi_l2d+0x16>

080005dc <__aeabi_l2d>:
 80005dc:	ea50 0201 	orrs.w	r2, r0, r1
 80005e0:	bf08      	it	eq
 80005e2:	4770      	bxeq	lr
 80005e4:	b530      	push	{r4, r5, lr}
 80005e6:	f011 4500 	ands.w	r5, r1, #2147483648	; 0x80000000
 80005ea:	d502      	bpl.n	80005f2 <__aeabi_l2d+0x16>
 80005ec:	4240      	negs	r0, r0
 80005ee:	eb61 0141 	sbc.w	r1, r1, r1, lsl #1
 80005f2:	f44f 6480 	mov.w	r4, #1024	; 0x400
 80005f6:	f104 0432 	add.w	r4, r4, #50	; 0x32
 80005fa:	ea5f 5c91 	movs.w	ip, r1, lsr #22
 80005fe:	f43f aed8 	beq.w	80003b2 <__adddf3+0xe6>
 8000602:	f04f 0203 	mov.w	r2, #3
 8000606:	ea5f 0cdc 	movs.w	ip, ip, lsr #3
 800060a:	bf18      	it	ne
 800060c:	3203      	addne	r2, #3
 800060e:	ea5f 0cdc 	movs.w	ip, ip, lsr #3
 8000612:	bf18      	it	ne
 8000614:	3203      	addne	r2, #3
 8000616:	eb02 02dc 	add.w	r2, r2, ip, lsr #3
 800061a:	f1c2 0320 	rsb	r3, r2, #32
 800061e:	fa00 fc03 	lsl.w	ip, r0, r3
 8000622:	fa20 f002 	lsr.w	r0, r0, r2
 8000626:	fa01 fe03 	lsl.w	lr, r1, r3
 800062a:	ea40 000e 	orr.w	r0, r0, lr
 800062e:	fa21 f102 	lsr.w	r1, r1, r2
 8000632:	4414      	add	r4, r2
 8000634:	e6bd      	b.n	80003b2 <__adddf3+0xe6>
 8000636:	bf00      	nop

08000638 <__aeabi_dmul>:
 8000638:	b570      	push	{r4, r5, r6, lr}
 800063a:	f04f 0cff 	mov.w	ip, #255	; 0xff
 800063e:	f44c 6ce0 	orr.w	ip, ip, #1792	; 0x700
 8000642:	ea1c 5411 	ands.w	r4, ip, r1, lsr #20
 8000646:	bf1d      	ittte	ne
 8000648:	ea1c 5513 	andsne.w	r5, ip, r3, lsr #20
 800064c:	ea94 0f0c 	teqne	r4, ip
 8000650:	ea95 0f0c 	teqne	r5, ip
 8000654:	f000 f8de 	bleq	8000814 <__aeabi_dmul+0x1dc>
 8000658:	442c      	add	r4, r5
 800065a:	ea81 0603 	eor.w	r6, r1, r3
 800065e:	ea21 514c 	bic.w	r1, r1, ip, lsl #21
 8000662:	ea23 534c 	bic.w	r3, r3, ip, lsl #21
 8000666:	ea50 3501 	orrs.w	r5, r0, r1, lsl #12
 800066a:	bf18      	it	ne
 800066c:	ea52 3503 	orrsne.w	r5, r2, r3, lsl #12
 8000670:	f441 1180 	orr.w	r1, r1, #1048576	; 0x100000
 8000674:	f443 1380 	orr.w	r3, r3, #1048576	; 0x100000
 8000678:	d038      	beq.n	80006ec <__aeabi_dmul+0xb4>
 800067a:	fba0 ce02 	umull	ip, lr, r0, r2
 800067e:	f04f 0500 	mov.w	r5, #0
 8000682:	fbe1 e502 	umlal	lr, r5, r1, r2
 8000686:	f006 4200 	and.w	r2, r6, #2147483648	; 0x80000000
 800068a:	fbe0 e503 	umlal	lr, r5, r0, r3
 800068e:	f04f 0600 	mov.w	r6, #0
 8000692:	fbe1 5603 	umlal	r5, r6, r1, r3
 8000696:	f09c 0f00 	teq	ip, #0
 800069a:	bf18      	it	ne
 800069c:	f04e 0e01 	orrne.w	lr, lr, #1
 80006a0:	f1a4 04ff 	sub.w	r4, r4, #255	; 0xff
 80006a4:	f5b6 7f00 	cmp.w	r6, #512	; 0x200
 80006a8:	f564 7440 	sbc.w	r4, r4, #768	; 0x300
 80006ac:	d204      	bcs.n	80006b8 <__aeabi_dmul+0x80>
 80006ae:	ea5f 0e4e 	movs.w	lr, lr, lsl #1
 80006b2:	416d      	adcs	r5, r5
 80006b4:	eb46 0606 	adc.w	r6, r6, r6
 80006b8:	ea42 21c6 	orr.w	r1, r2, r6, lsl #11
 80006bc:	ea41 5155 	orr.w	r1, r1, r5, lsr #21
 80006c0:	ea4f 20c5 	mov.w	r0, r5, lsl #11
 80006c4:	ea40 505e 	orr.w	r0, r0, lr, lsr #21
 80006c8:	ea4f 2ece 	mov.w	lr, lr, lsl #11
 80006cc:	f1b4 0cfd 	subs.w	ip, r4, #253	; 0xfd
 80006d0:	bf88      	it	hi
 80006d2:	f5bc 6fe0 	cmphi.w	ip, #1792	; 0x700
 80006d6:	d81e      	bhi.n	8000716 <__aeabi_dmul+0xde>
 80006d8:	f1be 4f00 	cmp.w	lr, #2147483648	; 0x80000000
 80006dc:	bf08      	it	eq
 80006de:	ea5f 0e50 	movseq.w	lr, r0, lsr #1
 80006e2:	f150 0000 	adcs.w	r0, r0, #0
 80006e6:	eb41 5104 	adc.w	r1, r1, r4, lsl #20
 80006ea:	bd70      	pop	{r4, r5, r6, pc}
 80006ec:	f006 4600 	and.w	r6, r6, #2147483648	; 0x80000000
 80006f0:	ea46 0101 	orr.w	r1, r6, r1
 80006f4:	ea40 0002 	orr.w	r0, r0, r2
 80006f8:	ea81 0103 	eor.w	r1, r1, r3
 80006fc:	ebb4 045c 	subs.w	r4, r4, ip, lsr #1
 8000700:	bfc2      	ittt	gt
 8000702:	ebd4 050c 	rsbsgt	r5, r4, ip
 8000706:	ea41 5104 	orrgt.w	r1, r1, r4, lsl #20
 800070a:	bd70      	popgt	{r4, r5, r6, pc}
 800070c:	f441 1180 	orr.w	r1, r1, #1048576	; 0x100000
 8000710:	f04f 0e00 	mov.w	lr, #0
 8000714:	3c01      	subs	r4, #1
 8000716:	f300 80ab 	bgt.w	8000870 <__aeabi_dmul+0x238>
 800071a:	f114 0f36 	cmn.w	r4, #54	; 0x36
 800071e:	bfde      	ittt	le
 8000720:	2000      	movle	r0, #0
 8000722:	f001 4100 	andle.w	r1, r1, #2147483648	; 0x80000000
 8000726:	bd70      	pople	{r4, r5, r6, pc}
 8000728:	f1c4 0400 	rsb	r4, r4, #0
 800072c:	3c20      	subs	r4, #32
 800072e:	da35      	bge.n	800079c <__aeabi_dmul+0x164>
 8000730:	340c      	adds	r4, #12
 8000732:	dc1b      	bgt.n	800076c <__aeabi_dmul+0x134>
 8000734:	f104 0414 	add.w	r4, r4, #20
 8000738:	f1c4 0520 	rsb	r5, r4, #32
 800073c:	fa00 f305 	lsl.w	r3, r0, r5
 8000740:	fa20 f004 	lsr.w	r0, r0, r4
 8000744:	fa01 f205 	lsl.w	r2, r1, r5
 8000748:	ea40 0002 	orr.w	r0, r0, r2
 800074c:	f001 4200 	and.w	r2, r1, #2147483648	; 0x80000000
 8000750:	f021 4100 	bic.w	r1, r1, #2147483648	; 0x80000000
 8000754:	eb10 70d3 	adds.w	r0, r0, r3, lsr #31
 8000758:	fa21 f604 	lsr.w	r6, r1, r4
 800075c:	eb42 0106 	adc.w	r1, r2, r6
 8000760:	ea5e 0e43 	orrs.w	lr, lr, r3, lsl #1
 8000764:	bf08      	it	eq
 8000766:	ea20 70d3 	biceq.w	r0, r0, r3, lsr #31
 800076a:	bd70      	pop	{r4, r5, r6, pc}
 800076c:	f1c4 040c 	rsb	r4, r4, #12
 8000770:	f1c4 0520 	rsb	r5, r4, #32
 8000774:	fa00 f304 	lsl.w	r3, r0, r4
 8000778:	fa20 f005 	lsr.w	r0, r0, r5
 800077c:	fa01 f204 	lsl.w	r2, r1, r4
 8000780:	ea40 0002 	orr.w	r0, r0, r2
 8000784:	f001 4100 	and.w	r1, r1, #2147483648	; 0x80000000
 8000788:	eb10 70d3 	adds.w	r0, r0, r3, lsr #31
 800078c:	f141 0100 	adc.w	r1, r1, #0
 8000790:	ea5e 0e43 	orrs.w	lr, lr, r3, lsl #1
 8000794:	bf08      	it	eq
 8000796:	ea20 70d3 	biceq.w	r0, r0, r3, lsr #31
 800079a:	bd70      	pop	{r4, r5, r6, pc}
 800079c:	f1c4 0520 	rsb	r5, r4, #32
 80007a0:	fa00 f205 	lsl.w	r2, r0, r5
 80007a4:	ea4e 0e02 	orr.w	lr, lr, r2
 80007a8:	fa20 f304 	lsr.w	r3, r0, r4
 80007ac:	fa01 f205 	lsl.w	r2, r1, r5
 80007b0:	ea43 0302 	orr.w	r3, r3, r2
 80007b4:	fa21 f004 	lsr.w	r0, r1, r4
 80007b8:	f001 4100 	and.w	r1, r1, #2147483648	; 0x80000000
 80007bc:	fa21 f204 	lsr.w	r2, r1, r4
 80007c0:	ea20 0002 	bic.w	r0, r0, r2
 80007c4:	eb00 70d3 	add.w	r0, r0, r3, lsr #31
 80007c8:	ea5e 0e43 	orrs.w	lr, lr, r3, lsl #1
 80007cc:	bf08      	it	eq
 80007ce:	ea20 70d3 	biceq.w	r0, r0, r3, lsr #31
 80007d2:	bd70      	pop	{r4, r5, r6, pc}
 80007d4:	f094 0f00 	teq	r4, #0
 80007d8:	d10f      	bne.n	80007fa <__aeabi_dmul+0x1c2>
 80007da:	f001 4600 	and.w	r6, r1, #2147483648	; 0x80000000
 80007de:	0040      	lsls	r0, r0, #1
 80007e0:	eb41 0101 	adc.w	r1, r1, r1
 80007e4:	f411 1f80 	tst.w	r1, #1048576	; 0x100000
 80007e8:	bf08      	it	eq
 80007ea:	3c01      	subeq	r4, #1
 80007ec:	d0f7      	beq.n	80007de <__aeabi_dmul+0x1a6>
 80007ee:	ea41 0106 	orr.w	r1, r1, r6
 80007f2:	f095 0f00 	teq	r5, #0
 80007f6:	bf18      	it	ne
 80007f8:	4770      	bxne	lr
 80007fa:	f003 4600 	and.w	r6, r3, #2147483648	; 0x80000000
 80007fe:	0052      	lsls	r2, r2, #1
 8000800:	eb43 0303 	adc.w	r3, r3, r3
 8000804:	f413 1f80 	tst.w	r3, #1048576	; 0x100000
 8000808:	bf08      	it	eq
 800080a:	3d01      	subeq	r5, #1
 800080c:	d0f7      	beq.n	80007fe <__aeabi_dmul+0x1c6>
 800080e:	ea43 0306 	orr.w	r3, r3, r6
 8000812:	4770      	bx	lr
 8000814:	ea94 0f0c 	teq	r4, ip
 8000818:	ea0c 5513 	and.w	r5, ip, r3, lsr #20
 800081c:	bf18      	it	ne
 800081e:	ea95 0f0c 	teqne	r5, ip
 8000822:	d00c      	beq.n	800083e <__aeabi_dmul+0x206>
 8000824:	ea50 0641 	orrs.w	r6, r0, r1, lsl #1
 8000828:	bf18      	it	ne
 800082a:	ea52 0643 	orrsne.w	r6, r2, r3, lsl #1
 800082e:	d1d1      	bne.n	80007d4 <__aeabi_dmul+0x19c>
 8000830:	ea81 0103 	eor.w	r1, r1, r3
 8000834:	f001 4100 	and.w	r1, r1, #2147483648	; 0x80000000
 8000838:	f04f 0000 	mov.w	r0, #0
 800083c:	bd70      	pop	{r4, r5, r6, pc}
 800083e:	ea50 0641 	orrs.w	r6, r0, r1, lsl #1
 8000842:	bf06      	itte	eq
 8000844:	4610      	moveq	r0, r2
 8000846:	4619      	moveq	r1, r3
 8000848:	ea52 0643 	orrsne.w	r6, r2, r3, lsl #1
 800084c:	d019      	beq.n	8000882 <__aeabi_dmul+0x24a>
 800084e:	ea94 0f0c 	teq	r4, ip
 8000852:	d102      	bne.n	800085a <__aeabi_dmul+0x222>
 8000854:	ea50 3601 	orrs.w	r6, r0, r1, lsl #12
 8000858:	d113      	bne.n	8000882 <__aeabi_dmul+0x24a>
 800085a:	ea95 0f0c 	teq	r5, ip
 800085e:	d105      	bne.n	800086c <__aeabi_dmul+0x234>
 8000860:	ea52 3603 	orrs.w	r6, r2, r3, lsl #12
 8000864:	bf1c      	itt	ne
 8000866:	4610      	movne	r0, r2
 8000868:	4619      	movne	r1, r3
 800086a:	d10a      	bne.n	8000882 <__aeabi_dmul+0x24a>
 800086c:	ea81 0103 	eor.w	r1, r1, r3
 8000870:	f001 4100 	and.w	r1, r1, #2147483648	; 0x80000000
 8000874:	f041 41fe 	orr.w	r1, r1, #2130706432	; 0x7f000000
 8000878:	f441 0170 	orr.w	r1, r1, #15728640	; 0xf00000
 800087c:	f04f 0000 	mov.w	r0, #0
 8000880:	bd70      	pop	{r4, r5, r6, pc}
 8000882:	f041 41fe 	orr.w	r1, r1, #2130706432	; 0x7f000000
 8000886:	f441 0178 	orr.w	r1, r1, #16252928	; 0xf80000
 800088a:	bd70      	pop	{r4, r5, r6, pc}

0800088c <__aeabi_ddiv>:
 800088c:	b570      	push	{r4, r5, r6, lr}
 800088e:	f04f 0cff 	mov.w	ip, #255	; 0xff
 8000892:	f44c 6ce0 	orr.w	ip, ip, #1792	; 0x700
 8000896:	ea1c 5411 	ands.w	r4, ip, r1, lsr #20
 800089a:	bf1d      	ittte	ne
 800089c:	ea1c 5513 	andsne.w	r5, ip, r3, lsr #20
 80008a0:	ea94 0f0c 	teqne	r4, ip
 80008a4:	ea95 0f0c 	teqne	r5, ip
 80008a8:	f000 f8a7 	bleq	80009fa <__aeabi_ddiv+0x16e>
 80008ac:	eba4 0405 	sub.w	r4, r4, r5
 80008b0:	ea81 0e03 	eor.w	lr, r1, r3
 80008b4:	ea52 3503 	orrs.w	r5, r2, r3, lsl #12
 80008b8:	ea4f 3101 	mov.w	r1, r1, lsl #12
 80008bc:	f000 8088 	beq.w	80009d0 <__aeabi_ddiv+0x144>
 80008c0:	ea4f 3303 	mov.w	r3, r3, lsl #12
 80008c4:	f04f 5580 	mov.w	r5, #268435456	; 0x10000000
 80008c8:	ea45 1313 	orr.w	r3, r5, r3, lsr #4
 80008cc:	ea43 6312 	orr.w	r3, r3, r2, lsr #24
 80008d0:	ea4f 2202 	mov.w	r2, r2, lsl #8
 80008d4:	ea45 1511 	orr.w	r5, r5, r1, lsr #4
 80008d8:	ea45 6510 	orr.w	r5, r5, r0, lsr #24
 80008dc:	ea4f 2600 	mov.w	r6, r0, lsl #8
 80008e0:	f00e 4100 	and.w	r1, lr, #2147483648	; 0x80000000
 80008e4:	429d      	cmp	r5, r3
 80008e6:	bf08      	it	eq
 80008e8:	4296      	cmpeq	r6, r2
 80008ea:	f144 04fd 	adc.w	r4, r4, #253	; 0xfd
 80008ee:	f504 7440 	add.w	r4, r4, #768	; 0x300
 80008f2:	d202      	bcs.n	80008fa <__aeabi_ddiv+0x6e>
 80008f4:	085b      	lsrs	r3, r3, #1
 80008f6:	ea4f 0232 	mov.w	r2, r2, rrx
 80008fa:	1ab6      	subs	r6, r6, r2
 80008fc:	eb65 0503 	sbc.w	r5, r5, r3
 8000900:	085b      	lsrs	r3, r3, #1
 8000902:	ea4f 0232 	mov.w	r2, r2, rrx
 8000906:	f44f 1080 	mov.w	r0, #1048576	; 0x100000
 800090a:	f44f 2c00 	mov.w	ip, #524288	; 0x80000
 800090e:	ebb6 0e02 	subs.w	lr, r6, r2
 8000912:	eb75 0e03 	sbcs.w	lr, r5, r3
 8000916:	bf22      	ittt	cs
 8000918:	1ab6      	subcs	r6, r6, r2
 800091a:	4675      	movcs	r5, lr
 800091c:	ea40 000c 	orrcs.w	r0, r0, ip
 8000920:	085b      	lsrs	r3, r3, #1
 8000922:	ea4f 0232 	mov.w	r2, r2, rrx
 8000926:	ebb6 0e02 	subs.w	lr, r6, r2
 800092a:	eb75 0e03 	sbcs.w	lr, r5, r3
 800092e:	bf22      	ittt	cs
 8000930:	1ab6      	subcs	r6, r6, r2
 8000932:	4675      	movcs	r5, lr
 8000934:	ea40 005c 	orrcs.w	r0, r0, ip, lsr #1
 8000938:	085b      	lsrs	r3, r3, #1
 800093a:	ea4f 0232 	mov.w	r2, r2, rrx
 800093e:	ebb6 0e02 	subs.w	lr, r6, r2
 8000942:	eb75 0e03 	sbcs.w	lr, r5, r3
 8000946:	bf22      	ittt	cs
 8000948:	1ab6      	subcs	r6, r6, r2
 800094a:	4675      	movcs	r5, lr
 800094c:	ea40 009c 	orrcs.w	r0, r0, ip, lsr #2
 8000950:	085b      	lsrs	r3, r3, #1
 8000952:	ea4f 0232 	mov.w	r2, r2, rrx
 8000956:	ebb6 0e02 	subs.w	lr, r6, r2
 800095a:	eb75 0e03 	sbcs.w	lr, r5, r3
 800095e:	bf22      	ittt	cs
 8000960:	1ab6      	subcs	r6, r6, r2
 8000962:	4675      	movcs	r5, lr
 8000964:	ea40 00dc 	orrcs.w	r0, r0, ip, lsr #3
 8000968:	ea55 0e06 	orrs.w	lr, r5, r6
 800096c:	d018      	beq.n	80009a0 <__aeabi_ddiv+0x114>
 800096e:	ea4f 1505 	mov.w	r5, r5, lsl #4
 8000972:	ea45 7516 	orr.w	r5, r5, r6, lsr #28
 8000976:	ea4f 1606 	mov.w	r6, r6, lsl #4
 800097a:	ea4f 03c3 	mov.w	r3, r3, lsl #3
 800097e:	ea43 7352 	orr.w	r3, r3, r2, lsr #29
 8000982:	ea4f 02c2 	mov.w	r2, r2, lsl #3
 8000986:	ea5f 1c1c 	movs.w	ip, ip, lsr #4
 800098a:	d1c0      	bne.n	800090e <__aeabi_ddiv+0x82>
 800098c:	f411 1f80 	tst.w	r1, #1048576	; 0x100000
 8000990:	d10b      	bne.n	80009aa <__aeabi_ddiv+0x11e>
 8000992:	ea41 0100 	orr.w	r1, r1, r0
 8000996:	f04f 0000 	mov.w	r0, #0
 800099a:	f04f 4c00 	mov.w	ip, #2147483648	; 0x80000000
 800099e:	e7b6      	b.n	800090e <__aeabi_ddiv+0x82>
 80009a0:	f411 1f80 	tst.w	r1, #1048576	; 0x100000
 80009a4:	bf04      	itt	eq
 80009a6:	4301      	orreq	r1, r0
 80009a8:	2000      	moveq	r0, #0
 80009aa:	f1b4 0cfd 	subs.w	ip, r4, #253	; 0xfd
 80009ae:	bf88      	it	hi
 80009b0:	f5bc 6fe0 	cmphi.w	ip, #1792	; 0x700
 80009b4:	f63f aeaf 	bhi.w	8000716 <__aeabi_dmul+0xde>
 80009b8:	ebb5 0c03 	subs.w	ip, r5, r3
 80009bc:	bf04      	itt	eq
 80009be:	ebb6 0c02 	subseq.w	ip, r6, r2
 80009c2:	ea5f 0c50 	movseq.w	ip, r0, lsr #1
 80009c6:	f150 0000 	adcs.w	r0, r0, #0
 80009ca:	eb41 5104 	adc.w	r1, r1, r4, lsl #20
 80009ce:	bd70      	pop	{r4, r5, r6, pc}
 80009d0:	f00e 4e00 	and.w	lr, lr, #2147483648	; 0x80000000
 80009d4:	ea4e 3111 	orr.w	r1, lr, r1, lsr #12
 80009d8:	eb14 045c 	adds.w	r4, r4, ip, lsr #1
 80009dc:	bfc2      	ittt	gt
 80009de:	ebd4 050c 	rsbsgt	r5, r4, ip
 80009e2:	ea41 5104 	orrgt.w	r1, r1, r4, lsl #20
 80009e6:	bd70      	popgt	{r4, r5, r6, pc}
 80009e8:	f441 1180 	orr.w	r1, r1, #1048576	; 0x100000
 80009ec:	f04f 0e00 	mov.w	lr, #0
 80009f0:	3c01      	subs	r4, #1
 80009f2:	e690      	b.n	8000716 <__aeabi_dmul+0xde>
 80009f4:	ea45 0e06 	orr.w	lr, r5, r6
 80009f8:	e68d      	b.n	8000716 <__aeabi_dmul+0xde>
 80009fa:	ea0c 5513 	and.w	r5, ip, r3, lsr #20
 80009fe:	ea94 0f0c 	teq	r4, ip
 8000a02:	bf08      	it	eq
 8000a04:	ea95 0f0c 	teqeq	r5, ip
 8000a08:	f43f af3b 	beq.w	8000882 <__aeabi_dmul+0x24a>
 8000a0c:	ea94 0f0c 	teq	r4, ip
 8000a10:	d10a      	bne.n	8000a28 <__aeabi_ddiv+0x19c>
 8000a12:	ea50 3401 	orrs.w	r4, r0, r1, lsl #12
 8000a16:	f47f af34 	bne.w	8000882 <__aeabi_dmul+0x24a>
 8000a1a:	ea95 0f0c 	teq	r5, ip
 8000a1e:	f47f af25 	bne.w	800086c <__aeabi_dmul+0x234>
 8000a22:	4610      	mov	r0, r2
 8000a24:	4619      	mov	r1, r3
 8000a26:	e72c      	b.n	8000882 <__aeabi_dmul+0x24a>
 8000a28:	ea95 0f0c 	teq	r5, ip
 8000a2c:	d106      	bne.n	8000a3c <__aeabi_ddiv+0x1b0>
 8000a2e:	ea52 3503 	orrs.w	r5, r2, r3, lsl #12
 8000a32:	f43f aefd 	beq.w	8000830 <__aeabi_dmul+0x1f8>
 8000a36:	4610      	mov	r0, r2
 8000a38:	4619      	mov	r1, r3
 8000a3a:	e722      	b.n	8000882 <__aeabi_dmul+0x24a>
 8000a3c:	ea50 0641 	orrs.w	r6, r0, r1, lsl #1
 8000a40:	bf18      	it	ne
 8000a42:	ea52 0643 	orrsne.w	r6, r2, r3, lsl #1
 8000a46:	f47f aec5 	bne.w	80007d4 <__aeabi_dmul+0x19c>
 8000a4a:	ea50 0441 	orrs.w	r4, r0, r1, lsl #1
 8000a4e:	f47f af0d 	bne.w	800086c <__aeabi_dmul+0x234>
 8000a52:	ea52 0543 	orrs.w	r5, r2, r3, lsl #1
 8000a56:	f47f aeeb 	bne.w	8000830 <__aeabi_dmul+0x1f8>
 8000a5a:	e712      	b.n	8000882 <__aeabi_dmul+0x24a>

08000a5c <__gedf2>:
 8000a5c:	f04f 3cff 	mov.w	ip, #4294967295
 8000a60:	e006      	b.n	8000a70 <__cmpdf2+0x4>
 8000a62:	bf00      	nop

08000a64 <__ledf2>:
 8000a64:	f04f 0c01 	mov.w	ip, #1
 8000a68:	e002      	b.n	8000a70 <__cmpdf2+0x4>
 8000a6a:	bf00      	nop

08000a6c <__cmpdf2>:
 8000a6c:	f04f 0c01 	mov.w	ip, #1
 8000a70:	f84d cd04 	str.w	ip, [sp, #-4]!
 8000a74:	ea4f 0c41 	mov.w	ip, r1, lsl #1
 8000a78:	ea7f 5c6c 	mvns.w	ip, ip, asr #21
 8000a7c:	ea4f 0c43 	mov.w	ip, r3, lsl #1
 8000a80:	bf18      	it	ne
 8000a82:	ea7f 5c6c 	mvnsne.w	ip, ip, asr #21
 8000a86:	d01b      	beq.n	8000ac0 <__cmpdf2+0x54>
 8000a88:	b001      	add	sp, #4
 8000a8a:	ea50 0c41 	orrs.w	ip, r0, r1, lsl #1
 8000a8e:	bf0c      	ite	eq
 8000a90:	ea52 0c43 	orrseq.w	ip, r2, r3, lsl #1
 8000a94:	ea91 0f03 	teqne	r1, r3
 8000a98:	bf02      	ittt	eq
 8000a9a:	ea90 0f02 	teqeq	r0, r2
 8000a9e:	2000      	moveq	r0, #0
 8000aa0:	4770      	bxeq	lr
 8000aa2:	f110 0f00 	cmn.w	r0, #0
 8000aa6:	ea91 0f03 	teq	r1, r3
 8000aaa:	bf58      	it	pl
 8000aac:	4299      	cmppl	r1, r3
 8000aae:	bf08      	it	eq
 8000ab0:	4290      	cmpeq	r0, r2
 8000ab2:	bf2c      	ite	cs
 8000ab4:	17d8      	asrcs	r0, r3, #31
 8000ab6:	ea6f 70e3 	mvncc.w	r0, r3, asr #31
 8000aba:	f040 0001 	orr.w	r0, r0, #1
 8000abe:	4770      	bx	lr
 8000ac0:	ea4f 0c41 	mov.w	ip, r1, lsl #1
 8000ac4:	ea7f 5c6c 	mvns.w	ip, ip, asr #21
 8000ac8:	d102      	bne.n	8000ad0 <__cmpdf2+0x64>
 8000aca:	ea50 3c01 	orrs.w	ip, r0, r1, lsl #12
 8000ace:	d107      	bne.n	8000ae0 <__cmpdf2+0x74>
 8000ad0:	ea4f 0c43 	mov.w	ip, r3, lsl #1
 8000ad4:	ea7f 5c6c 	mvns.w	ip, ip, asr #21
 8000ad8:	d1d6      	bne.n	8000a88 <__cmpdf2+0x1c>
 8000ada:	ea52 3c03 	orrs.w	ip, r2, r3, lsl #12
 8000ade:	d0d3      	beq.n	8000a88 <__cmpdf2+0x1c>
 8000ae0:	f85d 0b04 	ldr.w	r0, [sp], #4
 8000ae4:	4770      	bx	lr
 8000ae6:	bf00      	nop

08000ae8 <__aeabi_cdrcmple>:
 8000ae8:	4684      	mov	ip, r0
 8000aea:	4610      	mov	r0, r2
 8000aec:	4662      	mov	r2, ip
 8000aee:	468c      	mov	ip, r1
 8000af0:	4619      	mov	r1, r3
 8000af2:	4663      	mov	r3, ip
 8000af4:	e000      	b.n	8000af8 <__aeabi_cdcmpeq>
 8000af6:	bf00      	nop

08000af8 <__aeabi_cdcmpeq>:
 8000af8:	b501      	push	{r0, lr}
 8000afa:	f7ff ffb7 	bl	8000a6c <__cmpdf2>
 8000afe:	2800      	cmp	r0, #0
 8000b00:	bf48      	it	mi
 8000b02:	f110 0f00 	cmnmi.w	r0, #0
 8000b06:	bd01      	pop	{r0, pc}

08000b08 <__aeabi_dcmpeq>:
 8000b08:	f84d ed08 	str.w	lr, [sp, #-8]!
 8000b0c:	f7ff fff4 	bl	8000af8 <__aeabi_cdcmpeq>
 8000b10:	bf0c      	ite	eq
 8000b12:	2001      	moveq	r0, #1
 8000b14:	2000      	movne	r0, #0
 8000b16:	f85d fb08 	ldr.w	pc, [sp], #8
 8000b1a:	bf00      	nop

08000b1c <__aeabi_dcmplt>:
 8000b1c:	f84d ed08 	str.w	lr, [sp, #-8]!
 8000b20:	f7ff ffea 	bl	8000af8 <__aeabi_cdcmpeq>
 8000b24:	bf34      	ite	cc
 8000b26:	2001      	movcc	r0, #1
 8000b28:	2000      	movcs	r0, #0
 8000b2a:	f85d fb08 	ldr.w	pc, [sp], #8
 8000b2e:	bf00      	nop

08000b30 <__aeabi_dcmple>:
 8000b30:	f84d ed08 	str.w	lr, [sp, #-8]!
 8000b34:	f7ff ffe0 	bl	8000af8 <__aeabi_cdcmpeq>
 8000b38:	bf94      	ite	ls
 8000b3a:	2001      	movls	r0, #1
 8000b3c:	2000      	movhi	r0, #0
 8000b3e:	f85d fb08 	ldr.w	pc, [sp], #8
 8000b42:	bf00      	nop

08000b44 <__aeabi_dcmpge>:
 8000b44:	f84d ed08 	str.w	lr, [sp, #-8]!
 8000b48:	f7ff ffce 	bl	8000ae8 <__aeabi_cdrcmple>
 8000b4c:	bf94      	ite	ls
 8000b4e:	2001      	movls	r0, #1
 8000b50:	2000      	movhi	r0, #0
 8000b52:	f85d fb08 	ldr.w	pc, [sp], #8
 8000b56:	bf00      	nop

08000b58 <__aeabi_dcmpgt>:
 8000b58:	f84d ed08 	str.w	lr, [sp, #-8]!
 8000b5c:	f7ff ffc4 	bl	8000ae8 <__aeabi_cdrcmple>
 8000b60:	bf34      	ite	cc
 8000b62:	2001      	movcc	r0, #1
 8000b64:	2000      	movcs	r0, #0
 8000b66:	f85d fb08 	ldr.w	pc, [sp], #8
 8000b6a:	bf00      	nop

08000b6c <__aeabi_dcmpun>:
 8000b6c:	ea4f 0c41 	mov.w	ip, r1, lsl #1
 8000b70:	ea7f 5c6c 	mvns.w	ip, ip, asr #21
 8000b74:	d102      	bne.n	8000b7c <__aeabi_dcmpun+0x10>
 8000b76:	ea50 3c01 	orrs.w	ip, r0, r1, lsl #12
 8000b7a:	d10a      	bne.n	8000b92 <__aeabi_dcmpun+0x26>
 8000b7c:	ea4f 0c43 	mov.w	ip, r3, lsl #1
 8000b80:	ea7f 5c6c 	mvns.w	ip, ip, asr #21
 8000b84:	d102      	bne.n	8000b8c <__aeabi_dcmpun+0x20>
 8000b86:	ea52 3c03 	orrs.w	ip, r2, r3, lsl #12
 8000b8a:	d102      	bne.n	8000b92 <__aeabi_dcmpun+0x26>
 8000b8c:	f04f 0000 	mov.w	r0, #0
 8000b90:	4770      	bx	lr
 8000b92:	f04f 0001 	mov.w	r0, #1
 8000b96:	4770      	bx	lr

08000b98 <__aeabi_d2iz>:
 8000b98:	ea4f 0241 	mov.w	r2, r1, lsl #1
 8000b9c:	f512 1200 	adds.w	r2, r2, #2097152	; 0x200000
 8000ba0:	d215      	bcs.n	8000bce <__aeabi_d2iz+0x36>
 8000ba2:	d511      	bpl.n	8000bc8 <__aeabi_d2iz+0x30>
 8000ba4:	f46f 7378 	mvn.w	r3, #992	; 0x3e0
 8000ba8:	ebb3 5262 	subs.w	r2, r3, r2, asr #21
 8000bac:	d912      	bls.n	8000bd4 <__aeabi_d2iz+0x3c>
 8000bae:	ea4f 23c1 	mov.w	r3, r1, lsl #11
 8000bb2:	f043 4300 	orr.w	r3, r3, #2147483648	; 0x80000000
 8000bb6:	ea43 5350 	orr.w	r3, r3, r0, lsr #21
 8000bba:	f011 4f00 	tst.w	r1, #2147483648	; 0x80000000
 8000bbe:	fa23 f002 	lsr.w	r0, r3, r2
 8000bc2:	bf18      	it	ne
 8000bc4:	4240      	negne	r0, r0
 8000bc6:	4770      	bx	lr
 8000bc8:	f04f 0000 	mov.w	r0, #0
 8000bcc:	4770      	bx	lr
 8000bce:	ea50 3001 	orrs.w	r0, r0, r1, lsl #12
 8000bd2:	d105      	bne.n	8000be0 <__aeabi_d2iz+0x48>
 8000bd4:	f011 4000 	ands.w	r0, r1, #2147483648	; 0x80000000
 8000bd8:	bf08      	it	eq
 8000bda:	f06f 4000 	mvneq.w	r0, #2147483648	; 0x80000000
 8000bde:	4770      	bx	lr
 8000be0:	f04f 0000 	mov.w	r0, #0
 8000be4:	4770      	bx	lr
 8000be6:	bf00      	nop

08000be8 <__aeabi_uldivmod>:
 8000be8:	b953      	cbnz	r3, 8000c00 <__aeabi_uldivmod+0x18>
 8000bea:	b94a      	cbnz	r2, 8000c00 <__aeabi_uldivmod+0x18>
 8000bec:	2900      	cmp	r1, #0
 8000bee:	bf08      	it	eq
 8000bf0:	2800      	cmpeq	r0, #0
 8000bf2:	bf1c      	itt	ne
 8000bf4:	f04f 31ff 	movne.w	r1, #4294967295
 8000bf8:	f04f 30ff 	movne.w	r0, #4294967295
 8000bfc:	f000 b98e 	b.w	8000f1c <__aeabi_idiv0>
 8000c00:	f1ad 0c08 	sub.w	ip, sp, #8
 8000c04:	e96d ce04 	strd	ip, lr, [sp, #-16]!
 8000c08:	f000 f824 	bl	8000c54 <__udivmoddi4>
 8000c0c:	f8dd e004 	ldr.w	lr, [sp, #4]
 8000c10:	e9dd 2302 	ldrd	r2, r3, [sp, #8]
 8000c14:	b004      	add	sp, #16
 8000c16:	4770      	bx	lr

08000c18 <__aeabi_d2ulz>:
 8000c18:	b5d0      	push	{r4, r6, r7, lr}
 8000c1a:	4b0c      	ldr	r3, [pc, #48]	; (8000c4c <__aeabi_d2ulz+0x34>)
 8000c1c:	2200      	movs	r2, #0
 8000c1e:	4606      	mov	r6, r0
 8000c20:	460f      	mov	r7, r1
 8000c22:	f7ff fd09 	bl	8000638 <__aeabi_dmul>
 8000c26:	f000 f97b 	bl	8000f20 <__aeabi_d2uiz>
 8000c2a:	4604      	mov	r4, r0
 8000c2c:	f7ff fc8a 	bl	8000544 <__aeabi_ui2d>
 8000c30:	4b07      	ldr	r3, [pc, #28]	; (8000c50 <__aeabi_d2ulz+0x38>)
 8000c32:	2200      	movs	r2, #0
 8000c34:	f7ff fd00 	bl	8000638 <__aeabi_dmul>
 8000c38:	4602      	mov	r2, r0
 8000c3a:	460b      	mov	r3, r1
 8000c3c:	4630      	mov	r0, r6
 8000c3e:	4639      	mov	r1, r7
 8000c40:	f7ff fb42 	bl	80002c8 <__aeabi_dsub>
 8000c44:	f000 f96c 	bl	8000f20 <__aeabi_d2uiz>
 8000c48:	4621      	mov	r1, r4
 8000c4a:	bdd0      	pop	{r4, r6, r7, pc}
 8000c4c:	3df00000 	.word	0x3df00000
 8000c50:	41f00000 	.word	0x41f00000

08000c54 <__udivmoddi4>:
 8000c54:	e92d 47f0 	stmdb	sp!, {r4, r5, r6, r7, r8, r9, sl, lr}
 8000c58:	9e08      	ldr	r6, [sp, #32]
 8000c5a:	460d      	mov	r5, r1
 8000c5c:	4604      	mov	r4, r0
 8000c5e:	460f      	mov	r7, r1
 8000c60:	2b00      	cmp	r3, #0
 8000c62:	d14a      	bne.n	8000cfa <__udivmoddi4+0xa6>
 8000c64:	428a      	cmp	r2, r1
 8000c66:	4694      	mov	ip, r2
 8000c68:	d965      	bls.n	8000d36 <__udivmoddi4+0xe2>
 8000c6a:	fab2 f382 	clz	r3, r2
 8000c6e:	b143      	cbz	r3, 8000c82 <__udivmoddi4+0x2e>
 8000c70:	fa02 fc03 	lsl.w	ip, r2, r3
 8000c74:	f1c3 0220 	rsb	r2, r3, #32
 8000c78:	409f      	lsls	r7, r3
 8000c7a:	fa20 f202 	lsr.w	r2, r0, r2
 8000c7e:	4317      	orrs	r7, r2
 8000c80:	409c      	lsls	r4, r3
 8000c82:	ea4f 4e1c 	mov.w	lr, ip, lsr #16
 8000c86:	fa1f f58c 	uxth.w	r5, ip
 8000c8a:	fbb7 f1fe 	udiv	r1, r7, lr
 8000c8e:	0c22      	lsrs	r2, r4, #16
 8000c90:	fb0e 7711 	mls	r7, lr, r1, r7
 8000c94:	ea42 4207 	orr.w	r2, r2, r7, lsl #16
 8000c98:	fb01 f005 	mul.w	r0, r1, r5
 8000c9c:	4290      	cmp	r0, r2
 8000c9e:	d90a      	bls.n	8000cb6 <__udivmoddi4+0x62>
 8000ca0:	eb1c 0202 	adds.w	r2, ip, r2
 8000ca4:	f101 37ff 	add.w	r7, r1, #4294967295
 8000ca8:	f080 811c 	bcs.w	8000ee4 <__udivmoddi4+0x290>
 8000cac:	4290      	cmp	r0, r2
 8000cae:	f240 8119 	bls.w	8000ee4 <__udivmoddi4+0x290>
 8000cb2:	3902      	subs	r1, #2
 8000cb4:	4462      	add	r2, ip
 8000cb6:	1a12      	subs	r2, r2, r0
 8000cb8:	b2a4      	uxth	r4, r4
 8000cba:	fbb2 f0fe 	udiv	r0, r2, lr
 8000cbe:	fb0e 2210 	mls	r2, lr, r0, r2
 8000cc2:	ea44 4402 	orr.w	r4, r4, r2, lsl #16
 8000cc6:	fb00 f505 	mul.w	r5, r0, r5
 8000cca:	42a5      	cmp	r5, r4
 8000ccc:	d90a      	bls.n	8000ce4 <__udivmoddi4+0x90>
 8000cce:	eb1c 0404 	adds.w	r4, ip, r4
 8000cd2:	f100 32ff 	add.w	r2, r0, #4294967295
 8000cd6:	f080 8107 	bcs.w	8000ee8 <__udivmoddi4+0x294>
 8000cda:	42a5      	cmp	r5, r4
 8000cdc:	f240 8104 	bls.w	8000ee8 <__udivmoddi4+0x294>
 8000ce0:	4464      	add	r4, ip
 8000ce2:	3802      	subs	r0, #2
 8000ce4:	ea40 4001 	orr.w	r0, r0, r1, lsl #16
 8000ce8:	1b64      	subs	r4, r4, r5
 8000cea:	2100      	movs	r1, #0
 8000cec:	b11e      	cbz	r6, 8000cf6 <__udivmoddi4+0xa2>
 8000cee:	40dc      	lsrs	r4, r3
 8000cf0:	2300      	movs	r3, #0
 8000cf2:	e9c6 4300 	strd	r4, r3, [r6]
 8000cf6:	e8bd 87f0 	ldmia.w	sp!, {r4, r5, r6, r7, r8, r9, sl, pc}
 8000cfa:	428b      	cmp	r3, r1
 8000cfc:	d908      	bls.n	8000d10 <__udivmoddi4+0xbc>
 8000cfe:	2e00      	cmp	r6, #0
 8000d00:	f000 80ed 	beq.w	8000ede <__udivmoddi4+0x28a>
 8000d04:	2100      	movs	r1, #0
 8000d06:	e9c6 0500 	strd	r0, r5, [r6]
 8000d0a:	4608      	mov	r0, r1
 8000d0c:	e8bd 87f0 	ldmia.w	sp!, {r4, r5, r6, r7, r8, r9, sl, pc}
 8000d10:	fab3 f183 	clz	r1, r3
 8000d14:	2900      	cmp	r1, #0
 8000d16:	d149      	bne.n	8000dac <__udivmoddi4+0x158>
 8000d18:	42ab      	cmp	r3, r5
 8000d1a:	d302      	bcc.n	8000d22 <__udivmoddi4+0xce>
 8000d1c:	4282      	cmp	r2, r0
 8000d1e:	f200 80f8 	bhi.w	8000f12 <__udivmoddi4+0x2be>
 8000d22:	1a84      	subs	r4, r0, r2
 8000d24:	eb65 0203 	sbc.w	r2, r5, r3
 8000d28:	2001      	movs	r0, #1
 8000d2a:	4617      	mov	r7, r2
 8000d2c:	2e00      	cmp	r6, #0
 8000d2e:	d0e2      	beq.n	8000cf6 <__udivmoddi4+0xa2>
 8000d30:	e9c6 4700 	strd	r4, r7, [r6]
 8000d34:	e7df      	b.n	8000cf6 <__udivmoddi4+0xa2>
 8000d36:	b902      	cbnz	r2, 8000d3a <__udivmoddi4+0xe6>
 8000d38:	deff      	udf	#255	; 0xff
 8000d3a:	fab2 f382 	clz	r3, r2
 8000d3e:	2b00      	cmp	r3, #0
 8000d40:	f040 8090 	bne.w	8000e64 <__udivmoddi4+0x210>
 8000d44:	1a8a      	subs	r2, r1, r2
 8000d46:	ea4f 471c 	mov.w	r7, ip, lsr #16
 8000d4a:	fa1f fe8c 	uxth.w	lr, ip
 8000d4e:	2101      	movs	r1, #1
 8000d50:	fbb2 f5f7 	udiv	r5, r2, r7
 8000d54:	fb07 2015 	mls	r0, r7, r5, r2
 8000d58:	0c22      	lsrs	r2, r4, #16
 8000d5a:	ea42 4200 	orr.w	r2, r2, r0, lsl #16
 8000d5e:	fb0e f005 	mul.w	r0, lr, r5
 8000d62:	4290      	cmp	r0, r2
 8000d64:	d908      	bls.n	8000d78 <__udivmoddi4+0x124>
 8000d66:	eb1c 0202 	adds.w	r2, ip, r2
 8000d6a:	f105 38ff 	add.w	r8, r5, #4294967295
 8000d6e:	d202      	bcs.n	8000d76 <__udivmoddi4+0x122>
 8000d70:	4290      	cmp	r0, r2
 8000d72:	f200 80cb 	bhi.w	8000f0c <__udivmoddi4+0x2b8>
 8000d76:	4645      	mov	r5, r8
 8000d78:	1a12      	subs	r2, r2, r0
 8000d7a:	b2a4      	uxth	r4, r4
 8000d7c:	fbb2 f0f7 	udiv	r0, r2, r7
 8000d80:	fb07 2210 	mls	r2, r7, r0, r2
 8000d84:	ea44 4402 	orr.w	r4, r4, r2, lsl #16
 8000d88:	fb0e fe00 	mul.w	lr, lr, r0
 8000d8c:	45a6      	cmp	lr, r4
 8000d8e:	d908      	bls.n	8000da2 <__udivmoddi4+0x14e>
 8000d90:	eb1c 0404 	adds.w	r4, ip, r4
 8000d94:	f100 32ff 	add.w	r2, r0, #4294967295
 8000d98:	d202      	bcs.n	8000da0 <__udivmoddi4+0x14c>
 8000d9a:	45a6      	cmp	lr, r4
 8000d9c:	f200 80bb 	bhi.w	8000f16 <__udivmoddi4+0x2c2>
 8000da0:	4610      	mov	r0, r2
 8000da2:	eba4 040e 	sub.w	r4, r4, lr
 8000da6:	ea40 4005 	orr.w	r0, r0, r5, lsl #16
 8000daa:	e79f      	b.n	8000cec <__udivmoddi4+0x98>
 8000dac:	f1c1 0720 	rsb	r7, r1, #32
 8000db0:	408b      	lsls	r3, r1
 8000db2:	fa22 fc07 	lsr.w	ip, r2, r7
 8000db6:	ea4c 0c03 	orr.w	ip, ip, r3
 8000dba:	fa05 f401 	lsl.w	r4, r5, r1
 8000dbe:	fa20 f307 	lsr.w	r3, r0, r7
 8000dc2:	40fd      	lsrs	r5, r7
 8000dc4:	ea4f 491c 	mov.w	r9, ip, lsr #16
 8000dc8:	4323      	orrs	r3, r4
 8000dca:	fbb5 f8f9 	udiv	r8, r5, r9
 8000dce:	fa1f fe8c 	uxth.w	lr, ip
 8000dd2:	fb09 5518 	mls	r5, r9, r8, r5
 8000dd6:	0c1c      	lsrs	r4, r3, #16
 8000dd8:	ea44 4405 	orr.w	r4, r4, r5, lsl #16
 8000ddc:	fb08 f50e 	mul.w	r5, r8, lr
 8000de0:	42a5      	cmp	r5, r4
 8000de2:	fa02 f201 	lsl.w	r2, r2, r1
 8000de6:	fa00 f001 	lsl.w	r0, r0, r1
 8000dea:	d90b      	bls.n	8000e04 <__udivmoddi4+0x1b0>
 8000dec:	eb1c 0404 	adds.w	r4, ip, r4
 8000df0:	f108 3aff 	add.w	sl, r8, #4294967295
 8000df4:	f080 8088 	bcs.w	8000f08 <__udivmoddi4+0x2b4>
 8000df8:	42a5      	cmp	r5, r4
 8000dfa:	f240 8085 	bls.w	8000f08 <__udivmoddi4+0x2b4>
 8000dfe:	f1a8 0802 	sub.w	r8, r8, #2
 8000e02:	4464      	add	r4, ip
 8000e04:	1b64      	subs	r4, r4, r5
 8000e06:	b29d      	uxth	r5, r3
 8000e08:	fbb4 f3f9 	udiv	r3, r4, r9
 8000e0c:	fb09 4413 	mls	r4, r9, r3, r4
 8000e10:	ea45 4404 	orr.w	r4, r5, r4, lsl #16
 8000e14:	fb03 fe0e 	mul.w	lr, r3, lr
 8000e18:	45a6      	cmp	lr, r4
 8000e1a:	d908      	bls.n	8000e2e <__udivmoddi4+0x1da>
 8000e1c:	eb1c 0404 	adds.w	r4, ip, r4
 8000e20:	f103 35ff 	add.w	r5, r3, #4294967295
 8000e24:	d26c      	bcs.n	8000f00 <__udivmoddi4+0x2ac>
 8000e26:	45a6      	cmp	lr, r4
 8000e28:	d96a      	bls.n	8000f00 <__udivmoddi4+0x2ac>
 8000e2a:	3b02      	subs	r3, #2
 8000e2c:	4464      	add	r4, ip
 8000e2e:	ea43 4308 	orr.w	r3, r3, r8, lsl #16
 8000e32:	fba3 9502 	umull	r9, r5, r3, r2
 8000e36:	eba4 040e 	sub.w	r4, r4, lr
 8000e3a:	42ac      	cmp	r4, r5
 8000e3c:	46c8      	mov	r8, r9
 8000e3e:	46ae      	mov	lr, r5
 8000e40:	d356      	bcc.n	8000ef0 <__udivmoddi4+0x29c>
 8000e42:	d053      	beq.n	8000eec <__udivmoddi4+0x298>
 8000e44:	b156      	cbz	r6, 8000e5c <__udivmoddi4+0x208>
 8000e46:	ebb0 0208 	subs.w	r2, r0, r8
 8000e4a:	eb64 040e 	sbc.w	r4, r4, lr
 8000e4e:	fa04 f707 	lsl.w	r7, r4, r7
 8000e52:	40ca      	lsrs	r2, r1
 8000e54:	40cc      	lsrs	r4, r1
 8000e56:	4317      	orrs	r7, r2
 8000e58:	e9c6 7400 	strd	r7, r4, [r6]
 8000e5c:	4618      	mov	r0, r3
 8000e5e:	2100      	movs	r1, #0
 8000e60:	e8bd 87f0 	ldmia.w	sp!, {r4, r5, r6, r7, r8, r9, sl, pc}
 8000e64:	f1c3 0120 	rsb	r1, r3, #32
 8000e68:	fa02 fc03 	lsl.w	ip, r2, r3
 8000e6c:	fa20 f201 	lsr.w	r2, r0, r1
 8000e70:	fa25 f101 	lsr.w	r1, r5, r1
 8000e74:	409d      	lsls	r5, r3
 8000e76:	432a      	orrs	r2, r5
 8000e78:	ea4f 471c 	mov.w	r7, ip, lsr #16
 8000e7c:	fa1f fe8c 	uxth.w	lr, ip
 8000e80:	fbb1 f0f7 	udiv	r0, r1, r7
 8000e84:	fb07 1510 	mls	r5, r7, r0, r1
 8000e88:	0c11      	lsrs	r1, r2, #16
 8000e8a:	ea41 4105 	orr.w	r1, r1, r5, lsl #16
 8000e8e:	fb00 f50e 	mul.w	r5, r0, lr
 8000e92:	428d      	cmp	r5, r1
 8000e94:	fa04 f403 	lsl.w	r4, r4, r3
 8000e98:	d908      	bls.n	8000eac <__udivmoddi4+0x258>
 8000e9a:	eb1c 0101 	adds.w	r1, ip, r1
 8000e9e:	f100 38ff 	add.w	r8, r0, #4294967295
 8000ea2:	d22f      	bcs.n	8000f04 <__udivmoddi4+0x2b0>
 8000ea4:	428d      	cmp	r5, r1
 8000ea6:	d92d      	bls.n	8000f04 <__udivmoddi4+0x2b0>
 8000ea8:	3802      	subs	r0, #2
 8000eaa:	4461      	add	r1, ip
 8000eac:	1b49      	subs	r1, r1, r5
 8000eae:	b292      	uxth	r2, r2
 8000eb0:	fbb1 f5f7 	udiv	r5, r1, r7
 8000eb4:	fb07 1115 	mls	r1, r7, r5, r1
 8000eb8:	ea42 4201 	orr.w	r2, r2, r1, lsl #16
 8000ebc:	fb05 f10e 	mul.w	r1, r5, lr
 8000ec0:	4291      	cmp	r1, r2
 8000ec2:	d908      	bls.n	8000ed6 <__udivmoddi4+0x282>
 8000ec4:	eb1c 0202 	adds.w	r2, ip, r2
 8000ec8:	f105 38ff 	add.w	r8, r5, #4294967295
 8000ecc:	d216      	bcs.n	8000efc <__udivmoddi4+0x2a8>
 8000ece:	4291      	cmp	r1, r2
 8000ed0:	d914      	bls.n	8000efc <__udivmoddi4+0x2a8>
 8000ed2:	3d02      	subs	r5, #2
 8000ed4:	4462      	add	r2, ip
 8000ed6:	1a52      	subs	r2, r2, r1
 8000ed8:	ea45 4100 	orr.w	r1, r5, r0, lsl #16
 8000edc:	e738      	b.n	8000d50 <__udivmoddi4+0xfc>
 8000ede:	4631      	mov	r1, r6
 8000ee0:	4630      	mov	r0, r6
 8000ee2:	e708      	b.n	8000cf6 <__udivmoddi4+0xa2>
 8000ee4:	4639      	mov	r1, r7
 8000ee6:	e6e6      	b.n	8000cb6 <__udivmoddi4+0x62>
 8000ee8:	4610      	mov	r0, r2
 8000eea:	e6fb      	b.n	8000ce4 <__udivmoddi4+0x90>
 8000eec:	4548      	cmp	r0, r9
 8000eee:	d2a9      	bcs.n	8000e44 <__udivmoddi4+0x1f0>
 8000ef0:	ebb9 0802 	subs.w	r8, r9, r2
 8000ef4:	eb65 0e0c 	sbc.w	lr, r5, ip
 8000ef8:	3b01      	subs	r3, #1
 8000efa:	e7a3      	b.n	8000e44 <__udivmoddi4+0x1f0>
 8000efc:	4645      	mov	r5, r8
 8000efe:	e7ea      	b.n	8000ed6 <__udivmoddi4+0x282>
 8000f00:	462b      	mov	r3, r5
 8000f02:	e794      	b.n	8000e2e <__udivmoddi4+0x1da>
 8000f04:	4640      	mov	r0, r8
 8000f06:	e7d1      	b.n	8000eac <__udivmoddi4+0x258>
 8000f08:	46d0      	mov	r8, sl
 8000f0a:	e77b      	b.n	8000e04 <__udivmoddi4+0x1b0>
 8000f0c:	3d02      	subs	r5, #2
 8000f0e:	4462      	add	r2, ip
 8000f10:	e732      	b.n	8000d78 <__udivmoddi4+0x124>
 8000f12:	4608      	mov	r0, r1
 8000f14:	e70a      	b.n	8000d2c <__udivmoddi4+0xd8>
 8000f16:	4464      	add	r4, ip
 8000f18:	3802      	subs	r0, #2
 8000f1a:	e742      	b.n	8000da2 <__udivmoddi4+0x14e>

08000f1c <__aeabi_idiv0>:
 8000f1c:	4770      	bx	lr
 8000f1e:	bf00      	nop

08000f20 <__aeabi_d2uiz>:
 8000f20:	004a      	lsls	r2, r1, #1
 8000f22:	d211      	bcs.n	8000f48 <__aeabi_d2uiz+0x28>
 8000f24:	f512 1200 	adds.w	r2, r2, #2097152	; 0x200000
 8000f28:	d211      	bcs.n	8000f4e <__aeabi_d2uiz+0x2e>
 8000f2a:	d50d      	bpl.n	8000f48 <__aeabi_d2uiz+0x28>
 8000f2c:	f46f 7378 	mvn.w	r3, #992	; 0x3e0
 8000f30:	ebb3 5262 	subs.w	r2, r3, r2, asr #21
 8000f34:	d40e      	bmi.n	8000f54 <__aeabi_d2uiz+0x34>
 8000f36:	ea4f 23c1 	mov.w	r3, r1, lsl #11
 8000f3a:	f043 4300 	orr.w	r3, r3, #2147483648	; 0x80000000
 8000f3e:	ea43 5350 	orr.w	r3, r3, r0, lsr #21
 8000f42:	fa23 f002 	lsr.w	r0, r3, r2
 8000f46:	4770      	bx	lr
 8000f48:	f04f 0000 	mov.w	r0, #0
 8000f4c:	4770      	bx	lr
 8000f4e:	ea50 3001 	orrs.w	r0, r0, r1, lsl #12
 8000f52:	d102      	bne.n	8000f5a <__aeabi_d2uiz+0x3a>
 8000f54:	f04f 30ff 	mov.w	r0, #4294967295
 8000f58:	4770      	bx	lr
 8000f5a:	f04f 0000 	mov.w	r0, #0
 8000f5e:	4770      	bx	lr

08000f60 <initCellDefaults>:
    newCell.over_temp = false;
    newCell.under_temp = false;
    newCell.over_current = false;
    newCell.under_current = false;

    return newCell;
 8000f60:	7042      	strb	r2, [r0, #1]
 8000f62:	2200      	movs	r2, #0
 8000f64:	e9c0 2201 	strd	r2, r2, [r0, #4]
 8000f68:	e9c0 2203 	strd	r2, r2, [r0, #12]
 8000f6c:	e9c0 2205 	strd	r2, r2, [r0, #20]
 8000f70:	7001      	strb	r1, [r0, #0]
 8000f72:	61c2      	str	r2, [r0, #28]
}
 8000f74:	4770      	bx	lr
	...

08000f78 <startupSequence>:
float thermistor_resistance; // Calculated unknown resistance from checkVIT
float cell_vref; 			 // measurement voltage for vref
float soc; 					 // State of Charge
float sop; 					 // State of Power

int startupSequence(void){
 8000f78:	b5f0      	push	{r4, r5, r6, r7, lr}
	//
	// Negative Contactor Enable
	//

	// Send high Signal to NEG_LSD_OUTPUT
	HAL_GPIO_WritePin(NEG_LSD_OUTPUT_GPIO, NEG_LSD_OUTPUT_PIN, 1);
 8000f7a:	486c      	ldr	r0, [pc, #432]	; (800112c <startupSequence+0x1b4>)
int startupSequence(void){
 8000f7c:	b085      	sub	sp, #20
	HAL_GPIO_WritePin(NEG_LSD_OUTPUT_GPIO, NEG_LSD_OUTPUT_PIN, 1);
 8000f7e:	f44f 5180 	mov.w	r1, #4096	; 0x1000
 8000f82:	2201      	movs	r2, #1
 8000f84:	f001 fd82 	bl	8002a8c <HAL_GPIO_WritePin>

	// Read NEG_LSD_INPUT
		// If high, proceed, else EPO/return -1
		if (!HAL_GPIO_ReadPin(NEG_LSD_INPUT_GPIO, NEG_LSD_INPUT_PIN)){ return -1; }
 8000f88:	4868      	ldr	r0, [pc, #416]	; (800112c <startupSequence+0x1b4>)
 8000f8a:	f44f 6180 	mov.w	r1, #1024	; 0x400
 8000f8e:	f001 fd77 	bl	8002a80 <HAL_GPIO_ReadPin>
 8000f92:	b918      	cbnz	r0, 8000f9c <startupSequence+0x24>
 8000f94:	f04f 30ff 	mov.w	r0, #4294967295
		// If connected (low for nand, high for and, between HSD and LSD), proceed, else EPO/return 0
		if (!HAL_GPIO_ReadPin(PRE_CON_INPUT_GPIO, PRE_CON_INPUT_PIN)){ return -1; }

	// Start-up Sequence Concluded Successfully
	return 0;
}
 8000f98:	b005      	add	sp, #20
 8000f9a:	bdf0      	pop	{r4, r5, r6, r7, pc}
	HAL_GPIO_WritePin(NEG_HSD_OUTPUT_GPIO, NEG_HSD_OUTPUT_PIN, 1);
 8000f9c:	4864      	ldr	r0, [pc, #400]	; (8001130 <startupSequence+0x1b8>)
 8000f9e:	f44f 7180 	mov.w	r1, #256	; 0x100
 8000fa2:	2201      	movs	r2, #1
 8000fa4:	f001 fd72 	bl	8002a8c <HAL_GPIO_WritePin>
		if (!HAL_GPIO_ReadPin(NEG_LSD_INPUT_GPIO, NEG_LSD_INPUT_PIN)){ return -1; }
 8000fa8:	4860      	ldr	r0, [pc, #384]	; (800112c <startupSequence+0x1b4>)
 8000faa:	f44f 6180 	mov.w	r1, #1024	; 0x400
 8000fae:	f001 fd67 	bl	8002a80 <HAL_GPIO_ReadPin>
 8000fb2:	2800      	cmp	r0, #0
 8000fb4:	d0ee      	beq.n	8000f94 <startupSequence+0x1c>
		if (HAL_GPIO_ReadPin(NEG_CON_INPUT_GPIO, NEG_CON_INPUT_PIN)){ return -1; }
 8000fb6:	485f      	ldr	r0, [pc, #380]	; (8001134 <startupSequence+0x1bc>)
 8000fb8:	f44f 4100 	mov.w	r1, #32768	; 0x8000
 8000fbc:	f001 fd60 	bl	8002a80 <HAL_GPIO_ReadPin>
 8000fc0:	2800      	cmp	r0, #0
 8000fc2:	d1e7      	bne.n	8000f94 <startupSequence+0x1c>
	HAL_GPIO_WritePin(PRE_LSD_OUTPUT_GPIO, PRE_LSD_OUTPUT_PIN, 1);
 8000fc4:	f100 4080 	add.w	r0, r0, #1073741824	; 0x40000000
 8000fc8:	f44f 6100 	mov.w	r1, #2048	; 0x800
 8000fcc:	f500 3002 	add.w	r0, r0, #133120	; 0x20800
 8000fd0:	2201      	movs	r2, #1
 8000fd2:	f001 fd5b 	bl	8002a8c <HAL_GPIO_WritePin>
		if (!HAL_GPIO_ReadPin(PRE_LSD_INPUT_GPIO, PRE_LSD_INPUT_PIN)){ return -1; }
 8000fd6:	4858      	ldr	r0, [pc, #352]	; (8001138 <startupSequence+0x1c0>)
 8000fd8:	2104      	movs	r1, #4
 8000fda:	f001 fd51 	bl	8002a80 <HAL_GPIO_ReadPin>
 8000fde:	2800      	cmp	r0, #0
 8000fe0:	d0d8      	beq.n	8000f94 <startupSequence+0x1c>
	HAL_GPIO_WritePin(PRE_HSD_OUTPUT_GPIO, PRE_HSD_OUTPUT_PIN, 1);
 8000fe2:	4853      	ldr	r0, [pc, #332]	; (8001130 <startupSequence+0x1b8>)
 8000fe4:	2120      	movs	r1, #32
 8000fe6:	2201      	movs	r2, #1
 8000fe8:	f001 fd50 	bl	8002a8c <HAL_GPIO_WritePin>
		if (!HAL_GPIO_ReadPin(PRE_HSD_INPUT_GPIO, PRE_HSD_INPUT_PIN)){ return -1; }
 8000fec:	4850      	ldr	r0, [pc, #320]	; (8001130 <startupSequence+0x1b8>)
 8000fee:	2110      	movs	r1, #16
 8000ff0:	f001 fd46 	bl	8002a80 <HAL_GPIO_ReadPin>
 8000ff4:	2800      	cmp	r0, #0
 8000ff6:	d0cd      	beq.n	8000f94 <startupSequence+0x1c>
		if (HAL_GPIO_ReadPin(PRE_CON_INPUT_GPIO, PRE_CON_INPUT_PIN)){ return -1; }
 8000ff8:	484c      	ldr	r0, [pc, #304]	; (800112c <startupSequence+0x1b4>)
 8000ffa:	f44f 7100 	mov.w	r1, #512	; 0x200
 8000ffe:	f001 fd3f 	bl	8002a80 <HAL_GPIO_ReadPin>
 8001002:	2800      	cmp	r0, #0
 8001004:	d1c6      	bne.n	8000f94 <startupSequence+0x1c>
		while (pre_charge_voltage < PRE_CHG_PACK_VOLT) {
 8001006:	4d4d      	ldr	r5, [pc, #308]	; (800113c <startupSequence+0x1c4>)
		    HAL_ADC_Start_DMA(&hadc1,(uint32_t *) cell_analog_values, 3); // Start Analog to Digital conversion
 8001008:	4f4d      	ldr	r7, [pc, #308]	; (8001140 <startupSequence+0x1c8>)
 800100a:	4e4e      	ldr	r6, [pc, #312]	; (8001144 <startupSequence+0x1cc>)
		while (pre_charge_voltage < PRE_CHG_PACK_VOLT) {
 800100c:	ed95 7a00 	vldr	s14, [r5]
 8001010:	eef0 7a08 	vmov.f32	s15, #8	; 0x40400000  3.0
 8001014:	eeb4 7ae7 	vcmpe.f32	s14, s15
 8001018:	eef1 fa10 	vmrs	APSR_nzcv, fpscr
 800101c:	d43f      	bmi.n	800109e <startupSequence+0x126>
	HAL_GPIO_WritePin(POS_LSD_OUTPUT_GPIO, POS_LSD_OUTPUT_PIN, 1);
 800101e:	2201      	movs	r2, #1
 8001020:	4843      	ldr	r0, [pc, #268]	; (8001130 <startupSequence+0x1b8>)
 8001022:	4611      	mov	r1, r2
 8001024:	f001 fd32 	bl	8002a8c <HAL_GPIO_WritePin>
		if (!HAL_GPIO_ReadPin(POS_LSD_INPUT_GPIO, POS_LSD_INPUT_PIN)){ return -1; }
 8001028:	4840      	ldr	r0, [pc, #256]	; (800112c <startupSequence+0x1b4>)
 800102a:	2102      	movs	r1, #2
 800102c:	f001 fd28 	bl	8002a80 <HAL_GPIO_ReadPin>
 8001030:	2800      	cmp	r0, #0
 8001032:	d0af      	beq.n	8000f94 <startupSequence+0x1c>
	HAL_GPIO_WritePin(POS_HSD_OUTPUT_GPIO, POS_HSD_OUTPUT_PIN, 1);
 8001034:	483d      	ldr	r0, [pc, #244]	; (800112c <startupSequence+0x1b4>)
 8001036:	2108      	movs	r1, #8
 8001038:	2201      	movs	r2, #1
 800103a:	f001 fd27 	bl	8002a8c <HAL_GPIO_WritePin>
		if (!HAL_GPIO_ReadPin(POS_HSD_INPUT_GPIO, POS_HSD_INPUT_PIN)){ return -1; }
 800103e:	483b      	ldr	r0, [pc, #236]	; (800112c <startupSequence+0x1b4>)
 8001040:	2104      	movs	r1, #4
 8001042:	f001 fd1d 	bl	8002a80 <HAL_GPIO_ReadPin>
 8001046:	2800      	cmp	r0, #0
 8001048:	d0a4      	beq.n	8000f94 <startupSequence+0x1c>
		if (HAL_GPIO_ReadPin(POS_CON_INPUT_GPIO, POS_CON_INPUT_PIN)){ return -1; }
 800104a:	4838      	ldr	r0, [pc, #224]	; (800112c <startupSequence+0x1b4>)
 800104c:	2101      	movs	r1, #1
 800104e:	f001 fd17 	bl	8002a80 <HAL_GPIO_ReadPin>
 8001052:	4602      	mov	r2, r0
 8001054:	2800      	cmp	r0, #0
 8001056:	d19d      	bne.n	8000f94 <startupSequence+0x1c>
	HAL_GPIO_WritePin(PRE_HSD_OUTPUT_GPIO, PRE_HSD_OUTPUT_PIN, 0);
 8001058:	4835      	ldr	r0, [pc, #212]	; (8001130 <startupSequence+0x1b8>)
 800105a:	2120      	movs	r1, #32
 800105c:	f001 fd16 	bl	8002a8c <HAL_GPIO_WritePin>
		if (HAL_GPIO_ReadPin(PRE_HSD_INPUT_GPIO, PRE_HSD_INPUT_PIN)){ return -1; }
 8001060:	4833      	ldr	r0, [pc, #204]	; (8001130 <startupSequence+0x1b8>)
 8001062:	2110      	movs	r1, #16
 8001064:	f001 fd0c 	bl	8002a80 <HAL_GPIO_ReadPin>
 8001068:	4602      	mov	r2, r0
 800106a:	2800      	cmp	r0, #0
 800106c:	d192      	bne.n	8000f94 <startupSequence+0x1c>
	HAL_GPIO_WritePin(PRE_LSD_OUTPUT_GPIO, PRE_LSD_OUTPUT_PIN, 0);
 800106e:	482f      	ldr	r0, [pc, #188]	; (800112c <startupSequence+0x1b4>)
 8001070:	f44f 6100 	mov.w	r1, #2048	; 0x800
 8001074:	f001 fd0a 	bl	8002a8c <HAL_GPIO_WritePin>
		if (HAL_GPIO_ReadPin(PRE_LSD_INPUT_GPIO, PRE_LSD_INPUT_PIN)){ return -1; }
 8001078:	482f      	ldr	r0, [pc, #188]	; (8001138 <startupSequence+0x1c0>)
 800107a:	2104      	movs	r1, #4
 800107c:	f001 fd00 	bl	8002a80 <HAL_GPIO_ReadPin>
 8001080:	2800      	cmp	r0, #0
 8001082:	d187      	bne.n	8000f94 <startupSequence+0x1c>
		if (!HAL_GPIO_ReadPin(PRE_CON_INPUT_GPIO, PRE_CON_INPUT_PIN)){ return -1; }
 8001084:	f100 4080 	add.w	r0, r0, #1073741824	; 0x40000000
 8001088:	f44f 7100 	mov.w	r1, #512	; 0x200
 800108c:	f500 3002 	add.w	r0, r0, #133120	; 0x20800
 8001090:	f001 fcf6 	bl	8002a80 <HAL_GPIO_ReadPin>
 8001094:	fab0 f080 	clz	r0, r0
 8001098:	0940      	lsrs	r0, r0, #5
 800109a:	4240      	negs	r0, r0
 800109c:	e77c      	b.n	8000f98 <startupSequence+0x20>
		    HAL_ADC_Start_DMA(&hadc1,(uint32_t *) cell_analog_values, 3); // Start Analog to Digital conversion
 800109e:	2203      	movs	r2, #3
 80010a0:	4927      	ldr	r1, [pc, #156]	; (8001140 <startupSequence+0x1c8>)
 80010a2:	4630      	mov	r0, r6
 80010a4:	f000 fe38 	bl	8001d18 <HAL_ADC_Start_DMA>
		    HAL_ADC_PollForConversion(&hadc1, 1000);					 // Poll Value Read
 80010a8:	f44f 717a 	mov.w	r1, #1000	; 0x3e8
 80010ac:	4630      	mov	r0, r6
 80010ae:	f000 fddf 	bl	8001c70 <HAL_ADC_PollForConversion>
		    pre_charge_voltage = (float)cell_analog_values[0]/1000;   // Store Value in (mV) form (V)
 80010b2:	883b      	ldrh	r3, [r7, #0]
 80010b4:	eddf 6a24 	vldr	s13, [pc, #144]	; 8001148 <startupSequence+0x1d0>
		    sprintf(IntPartStr, "%02X", intPart);
 80010b8:	4924      	ldr	r1, [pc, #144]	; (800114c <startupSequence+0x1d4>)
		    pre_charge_voltage = (float)cell_analog_values[0]/1000;   // Store Value in (mV) form (V)
 80010ba:	ee07 3a10 	vmov	s14, r3
 80010be:	eeb8 7a47 	vcvt.f32.u32	s14, s14
		    sprintf(IntPartStr, "%02X", intPart);
 80010c2:	4668      	mov	r0, sp
		    pre_charge_voltage = (float)cell_analog_values[0]/1000;   // Store Value in (mV) form (V)
 80010c4:	eec7 7a26 	vdiv.f32	s15, s14, s13
 80010c8:	edc5 7a00 	vstr	s15, [r5]
		    uint16_t intPart = (uint16_t)pre_charge_voltage;
 80010cc:	eefc 7ae7 	vcvt.u32.f32	s15, s15
		    sprintf(IntPartStr, "%02X", intPart);
 80010d0:	ee17 3a90 	vmov	r3, s15
 80010d4:	b29c      	uxth	r4, r3
 80010d6:	4622      	mov	r2, r4
 80010d8:	f006 feb0 	bl	8007e3c <siprintf>
		    uint16_t fracPart = (uint16_t)((pre_charge_voltage - intPart) * 100);
 80010dc:	ee07 4a90 	vmov	s15, r4
 80010e0:	ed95 7a00 	vldr	s14, [r5]
		    sprintf(FracPartStr, "%02X", fracPart);
 80010e4:	4919      	ldr	r1, [pc, #100]	; (800114c <startupSequence+0x1d4>)
		    uint16_t fracPart = (uint16_t)((pre_charge_voltage - intPart) * 100);
 80010e6:	eef8 7ae7 	vcvt.f32.s32	s15, s15
		    sprintf(FracPartStr, "%02X", fracPart);
 80010ea:	a801      	add	r0, sp, #4
		    uint16_t fracPart = (uint16_t)((pre_charge_voltage - intPart) * 100);
 80010ec:	ee77 7a67 	vsub.f32	s15, s14, s15
 80010f0:	ed9f 7a17 	vldr	s14, [pc, #92]	; 8001150 <startupSequence+0x1d8>
 80010f4:	ee67 7a87 	vmul.f32	s15, s15, s14
 80010f8:	eefc 7ae7 	vcvt.u32.f32	s15, s15
		    sprintf(FracPartStr, "%02X", fracPart);
 80010fc:	ee17 3a90 	vmov	r3, s15
 8001100:	b29a      	uxth	r2, r3
 8001102:	f006 fe9b 	bl	8007e3c <siprintf>
		    sprintf(ResultStr, "%s.%s\r\n", IntPartStr, FracPartStr);
 8001106:	ab01      	add	r3, sp, #4
 8001108:	466a      	mov	r2, sp
 800110a:	4912      	ldr	r1, [pc, #72]	; (8001154 <startupSequence+0x1dc>)
 800110c:	a802      	add	r0, sp, #8
 800110e:	f006 fe95 	bl	8007e3c <siprintf>
		    HAL_UART_Transmit(&huart2, (uint8_t*)ResultStr, sizeof(ResultStr), 100);
 8001112:	2208      	movs	r2, #8
 8001114:	2364      	movs	r3, #100	; 0x64
 8001116:	eb0d 0102 	add.w	r1, sp, r2
 800111a:	480f      	ldr	r0, [pc, #60]	; (8001158 <startupSequence+0x1e0>)
 800111c:	f002 f8b7 	bl	800328e <HAL_UART_Transmit>
		    HAL_Delay(1000);
 8001120:	f44f 707a 	mov.w	r0, #1000	; 0x3e8
 8001124:	f000 fcd8 	bl	8001ad8 <HAL_Delay>
 8001128:	e770      	b.n	800100c <startupSequence+0x94>
 800112a:	bf00      	nop
 800112c:	40020800 	.word	0x40020800
 8001130:	40020400 	.word	0x40020400
 8001134:	40020000 	.word	0x40020000
 8001138:	40020c00 	.word	0x40020c00
 800113c:	20001690 	.word	0x20001690
 8001140:	2000151c 	.word	0x2000151c
 8001144:	20001524 	.word	0x20001524
 8001148:	447a0000 	.word	0x447a0000
 800114c:	0800aa54 	.word	0x0800aa54
 8001150:	42c80000 	.word	0x42c80000
 8001154:	0800aa6d 	.word	0x0800aa6d
 8001158:	200015fc 	.word	0x200015fc

0800115c <SystemClock_Config>:
/**
  * @brief System Clock Configuration
  * @retval None
  */
void SystemClock_Config(void)
{
 800115c:	b510      	push	{r4, lr}
 800115e:	b094      	sub	sp, #80	; 0x50
  RCC_OscInitTypeDef RCC_OscInitStruct = {0};
 8001160:	2214      	movs	r2, #20
 8001162:	2100      	movs	r1, #0
 8001164:	a808      	add	r0, sp, #32
 8001166:	f006 fecc 	bl	8007f02 <memset>
  RCC_ClkInitTypeDef RCC_ClkInitStruct = {0};
 800116a:	2214      	movs	r2, #20
 800116c:	2100      	movs	r1, #0
 800116e:	a802      	add	r0, sp, #8
 8001170:	f006 fec7 	bl	8007f02 <memset>

  /** Configure the main internal regulator output voltage
  */
  __HAL_RCC_PWR_CLK_ENABLE();
 8001174:	2300      	movs	r3, #0
 8001176:	4a21      	ldr	r2, [pc, #132]	; (80011fc <SystemClock_Config+0xa0>)
 8001178:	9300      	str	r3, [sp, #0]
 800117a:	6c11      	ldr	r1, [r2, #64]	; 0x40
 800117c:	f041 5180 	orr.w	r1, r1, #268435456	; 0x10000000
 8001180:	6411      	str	r1, [r2, #64]	; 0x40
 8001182:	6c12      	ldr	r2, [r2, #64]	; 0x40
 8001184:	f002 5280 	and.w	r2, r2, #268435456	; 0x10000000
 8001188:	9200      	str	r2, [sp, #0]
 800118a:	9a00      	ldr	r2, [sp, #0]
  __HAL_PWR_VOLTAGESCALING_CONFIG(PWR_REGULATOR_VOLTAGE_SCALE1);
 800118c:	4a1c      	ldr	r2, [pc, #112]	; (8001200 <SystemClock_Config+0xa4>)
 800118e:	9301      	str	r3, [sp, #4]
 8001190:	6811      	ldr	r1, [r2, #0]
 8001192:	f441 4140 	orr.w	r1, r1, #49152	; 0xc000
 8001196:	6011      	str	r1, [r2, #0]
 8001198:	6812      	ldr	r2, [r2, #0]

  /** Initializes the RCC Oscillators according to the specified parameters
  * in the RCC_OscInitTypeDef structure.
  */
  RCC_OscInitStruct.OscillatorType = RCC_OSCILLATORTYPE_HSI;
 800119a:	2402      	movs	r4, #2
  __HAL_PWR_VOLTAGESCALING_CONFIG(PWR_REGULATOR_VOLTAGE_SCALE1);
 800119c:	f402 4240 	and.w	r2, r2, #49152	; 0xc000
  RCC_OscInitStruct.HSIState = RCC_HSI_ON;
  RCC_OscInitStruct.HSICalibrationValue = RCC_HSICALIBRATION_DEFAULT;
  RCC_OscInitStruct.PLL.PLLState = RCC_PLL_ON;
  RCC_OscInitStruct.PLL.PLLSource = RCC_PLLSOURCE_HSI;
  RCC_OscInitStruct.PLL.PLLM = 8;
  RCC_OscInitStruct.PLL.PLLN = 180;
 80011a0:	2008      	movs	r0, #8
  RCC_OscInitStruct.PLL.PLLSource = RCC_PLLSOURCE_HSI;
 80011a2:	e9cd 430d 	strd	r4, r3, [sp, #52]	; 0x34
  __HAL_PWR_VOLTAGESCALING_CONFIG(PWR_REGULATOR_VOLTAGE_SCALE1);
 80011a6:	9201      	str	r2, [sp, #4]
  RCC_OscInitStruct.PLL.PLLN = 180;
 80011a8:	23b4      	movs	r3, #180	; 0xb4
 80011aa:	e9cd 030f 	strd	r0, r3, [sp, #60]	; 0x3c
  __HAL_PWR_VOLTAGESCALING_CONFIG(PWR_REGULATOR_VOLTAGE_SCALE1);
 80011ae:	9a01      	ldr	r2, [sp, #4]
  RCC_OscInitStruct.OscillatorType = RCC_OSCILLATORTYPE_HSI;
 80011b0:	9407      	str	r4, [sp, #28]
  RCC_OscInitStruct.HSICalibrationValue = RCC_HSICALIBRATION_DEFAULT;
 80011b2:	2101      	movs	r1, #1
 80011b4:	2210      	movs	r2, #16
  RCC_OscInitStruct.PLL.PLLP = 2;
  RCC_OscInitStruct.PLL.PLLQ = 2;
  RCC_OscInitStruct.PLL.PLLR = 2;
  if (HAL_RCC_OscConfig(&RCC_OscInitStruct) != HAL_OK)
 80011b6:	a807      	add	r0, sp, #28
  RCC_OscInitStruct.HSICalibrationValue = RCC_HSICALIBRATION_DEFAULT;
 80011b8:	e9cd 120a 	strd	r1, r2, [sp, #40]	; 0x28
  RCC_OscInitStruct.PLL.PLLQ = 2;
 80011bc:	e9cd 4411 	strd	r4, r4, [sp, #68]	; 0x44
  RCC_OscInitStruct.PLL.PLLR = 2;
 80011c0:	9413      	str	r4, [sp, #76]	; 0x4c
  if (HAL_RCC_OscConfig(&RCC_OscInitStruct) != HAL_OK)
 80011c2:	f001 fdab 	bl	8002d1c <HAL_RCC_OscConfig>
 80011c6:	b108      	cbz	r0, 80011cc <SystemClock_Config+0x70>
  \details Disables IRQ interrupts by setting special-purpose register PRIMASK.
           Can only be executed in Privileged modes.
 */
__STATIC_FORCEINLINE void __disable_irq(void)
{
  __ASM volatile ("cpsid i" : : : "memory");
 80011c8:	b672      	cpsid	i
void Error_Handler(void)
{
  /* USER CODE BEGIN Error_Handler_Debug */
  /* User can add his own implementation to report the HAL error return state */
  __disable_irq();
  while (1)
 80011ca:	e7fe      	b.n	80011ca <SystemClock_Config+0x6e>
  if (HAL_PWREx_EnableOverDrive() != HAL_OK)
 80011cc:	f001 fc64 	bl	8002a98 <HAL_PWREx_EnableOverDrive>
 80011d0:	b108      	cbz	r0, 80011d6 <SystemClock_Config+0x7a>
 80011d2:	b672      	cpsid	i
  while (1)
 80011d4:	e7fe      	b.n	80011d4 <SystemClock_Config+0x78>
  RCC_ClkInitStruct.ClockType = RCC_CLOCKTYPE_HCLK|RCC_CLOCKTYPE_SYSCLK
 80011d6:	230f      	movs	r3, #15
  RCC_ClkInitStruct.SYSCLKSource = RCC_SYSCLKSOURCE_PLLCLK;
 80011d8:	e9cd 3402 	strd	r3, r4, [sp, #8]
  RCC_ClkInitStruct.AHBCLKDivider = RCC_SYSCLK_DIV1;
 80011dc:	9004      	str	r0, [sp, #16]
  RCC_ClkInitStruct.APB2CLKDivider = RCC_HCLK_DIV2;
 80011de:	f44f 52a0 	mov.w	r2, #5120	; 0x1400
 80011e2:	f44f 5380 	mov.w	r3, #4096	; 0x1000
  if (HAL_RCC_ClockConfig(&RCC_ClkInitStruct, FLASH_LATENCY_5) != HAL_OK)
 80011e6:	2105      	movs	r1, #5
 80011e8:	a802      	add	r0, sp, #8
  RCC_ClkInitStruct.APB2CLKDivider = RCC_HCLK_DIV2;
 80011ea:	e9cd 2305 	strd	r2, r3, [sp, #20]
  if (HAL_RCC_ClockConfig(&RCC_ClkInitStruct, FLASH_LATENCY_5) != HAL_OK)
 80011ee:	f001 fc8d 	bl	8002b0c <HAL_RCC_ClockConfig>
 80011f2:	b108      	cbz	r0, 80011f8 <SystemClock_Config+0x9c>
 80011f4:	b672      	cpsid	i
  while (1)
 80011f6:	e7fe      	b.n	80011f6 <SystemClock_Config+0x9a>
}
 80011f8:	b014      	add	sp, #80	; 0x50
 80011fa:	bd10      	pop	{r4, pc}
 80011fc:	40023800 	.word	0x40023800
 8001200:	40007000 	.word	0x40007000

08001204 <main>:
{
 8001204:	e92d 4ff0 	stmdb	sp!, {r4, r5, r6, r7, r8, r9, sl, fp, lr}
 8001208:	b0f5      	sub	sp, #468	; 0x1d4
  HAL_Init();
 800120a:	f000 fc39 	bl	8001a80 <HAL_Init>
        for (int i = 0; i < SERIES_CELL; i++) {
 800120e:	2700      	movs	r7, #0
            module1[i] = initCellDefaults(1, i + 1);
 8001210:	1c7b      	adds	r3, r7, #1
 8001212:	a814      	add	r0, sp, #80	; 0x50
 8001214:	eb00 1047 	add.w	r0, r0, r7, lsl #5
 8001218:	b2da      	uxtb	r2, r3
 800121a:	2101      	movs	r1, #1
 800121c:	f7ff fea0 	bl	8000f60 <initCellDefaults>
        for (int i = 0; i < SERIES_CELL; i++) {
 8001220:	2b0c      	cmp	r3, #12
 8001222:	461f      	mov	r7, r3
 8001224:	d1f4      	bne.n	8001210 <main+0xc>
  GPIO_InitTypeDef GPIO_InitStruct = {0};
 8001226:	f04f 0914 	mov.w	r9, #20
  __HAL_RCC_GPIOC_CLK_ENABLE();
 800122a:	2400      	movs	r4, #0
  SystemClock_Config();
 800122c:	f7ff ff96 	bl	800115c <SystemClock_Config>
  __HAL_RCC_GPIOC_CLK_ENABLE();
 8001230:	4dad      	ldr	r5, [pc, #692]	; (80014e8 <main+0x2e4>)
  GPIO_InitTypeDef GPIO_InitStruct = {0};
 8001232:	464a      	mov	r2, r9
 8001234:	2100      	movs	r1, #0
 8001236:	a80a      	add	r0, sp, #40	; 0x28
 8001238:	f006 fe63 	bl	8007f02 <memset>
  __HAL_RCC_GPIOC_CLK_ENABLE();
 800123c:	9405      	str	r4, [sp, #20]
 800123e:	6b2b      	ldr	r3, [r5, #48]	; 0x30
  HAL_GPIO_WritePin(GPIOC, GPIO_PIN_3|GPIO_PIN_11|GPIO_PIN_12, GPIO_PIN_RESET);
 8001240:	48aa      	ldr	r0, [pc, #680]	; (80014ec <main+0x2e8>)
  __HAL_RCC_GPIOC_CLK_ENABLE();
 8001242:	f043 0304 	orr.w	r3, r3, #4
 8001246:	632b      	str	r3, [r5, #48]	; 0x30
 8001248:	6b2b      	ldr	r3, [r5, #48]	; 0x30
 800124a:	f003 0304 	and.w	r3, r3, #4
 800124e:	9305      	str	r3, [sp, #20]
 8001250:	9b05      	ldr	r3, [sp, #20]
  __HAL_RCC_GPIOH_CLK_ENABLE();
 8001252:	9406      	str	r4, [sp, #24]
 8001254:	6b2b      	ldr	r3, [r5, #48]	; 0x30
 8001256:	f043 0380 	orr.w	r3, r3, #128	; 0x80
 800125a:	632b      	str	r3, [r5, #48]	; 0x30
 800125c:	6b2b      	ldr	r3, [r5, #48]	; 0x30
 800125e:	f003 0380 	and.w	r3, r3, #128	; 0x80
 8001262:	9306      	str	r3, [sp, #24]
 8001264:	9b06      	ldr	r3, [sp, #24]
  __HAL_RCC_GPIOA_CLK_ENABLE();
 8001266:	9407      	str	r4, [sp, #28]
 8001268:	6b2b      	ldr	r3, [r5, #48]	; 0x30
 800126a:	f043 0301 	orr.w	r3, r3, #1
 800126e:	632b      	str	r3, [r5, #48]	; 0x30
 8001270:	6b2b      	ldr	r3, [r5, #48]	; 0x30
 8001272:	f003 0301 	and.w	r3, r3, #1
 8001276:	9307      	str	r3, [sp, #28]
 8001278:	9b07      	ldr	r3, [sp, #28]
  __HAL_RCC_GPIOB_CLK_ENABLE();
 800127a:	9408      	str	r4, [sp, #32]
 800127c:	6b2b      	ldr	r3, [r5, #48]	; 0x30
 800127e:	f043 0302 	orr.w	r3, r3, #2
 8001282:	632b      	str	r3, [r5, #48]	; 0x30
 8001284:	6b2b      	ldr	r3, [r5, #48]	; 0x30
 8001286:	f003 0302 	and.w	r3, r3, #2
 800128a:	9308      	str	r3, [sp, #32]
 800128c:	9b08      	ldr	r3, [sp, #32]
  __HAL_RCC_GPIOD_CLK_ENABLE();
 800128e:	9409      	str	r4, [sp, #36]	; 0x24
 8001290:	6b2b      	ldr	r3, [r5, #48]	; 0x30
 8001292:	f043 0308 	orr.w	r3, r3, #8
 8001296:	632b      	str	r3, [r5, #48]	; 0x30
 8001298:	6b2b      	ldr	r3, [r5, #48]	; 0x30
 800129a:	f003 0308 	and.w	r3, r3, #8
 800129e:	9309      	str	r3, [sp, #36]	; 0x24
  HAL_GPIO_WritePin(GPIOC, GPIO_PIN_3|GPIO_PIN_11|GPIO_PIN_12, GPIO_PIN_RESET);
 80012a0:	4622      	mov	r2, r4
 80012a2:	f641 0108 	movw	r1, #6152	; 0x1808
  __HAL_RCC_GPIOD_CLK_ENABLE();
 80012a6:	9b09      	ldr	r3, [sp, #36]	; 0x24
  HAL_GPIO_WritePin(GPIOC, GPIO_PIN_3|GPIO_PIN_11|GPIO_PIN_12, GPIO_PIN_RESET);
 80012a8:	f001 fbf0 	bl	8002a8c <HAL_GPIO_WritePin>
  HAL_GPIO_WritePin(GPIOA, LD2_Pin|GPIO_PIN_6|GPIO_PIN_7, GPIO_PIN_RESET);
 80012ac:	4890      	ldr	r0, [pc, #576]	; (80014f0 <main+0x2ec>)
 80012ae:	4622      	mov	r2, r4
 80012b0:	21e0      	movs	r1, #224	; 0xe0
 80012b2:	f001 fbeb 	bl	8002a8c <HAL_GPIO_WritePin>
  HAL_GPIO_WritePin(GPIOB, GPIO_PIN_0|GPIO_PIN_5|GPIO_PIN_6|GPIO_PIN_8, GPIO_PIN_RESET);
 80012b6:	4622      	mov	r2, r4
 80012b8:	488e      	ldr	r0, [pc, #568]	; (80014f4 <main+0x2f0>)
 80012ba:	f240 1161 	movw	r1, #353	; 0x161
 80012be:	f001 fbe5 	bl	8002a8c <HAL_GPIO_WritePin>
  GPIO_InitStruct.Mode = GPIO_MODE_IT_FALLING;
 80012c2:	f44f 1304 	mov.w	r3, #2162688	; 0x210000
 80012c6:	f44f 5100 	mov.w	r1, #8192	; 0x2000
 80012ca:	e9cd 130a 	strd	r1, r3, [sp, #40]	; 0x28
  HAL_GPIO_Init(B1_GPIO_Port, &GPIO_InitStruct);
 80012ce:	4887      	ldr	r0, [pc, #540]	; (80014ec <main+0x2e8>)
  GPIO_InitStruct.Pull = GPIO_NOPULL;
 80012d0:	940c      	str	r4, [sp, #48]	; 0x30
  HAL_GPIO_Init(B1_GPIO_Port, &GPIO_InitStruct);
 80012d2:	a90a      	add	r1, sp, #40	; 0x28
 80012d4:	f001 fb00 	bl	80028d8 <HAL_GPIO_Init>
  GPIO_InitStruct.Pin = GPIO_PIN_0|GPIO_PIN_1|GPIO_PIN_2|GPIO_PIN_9
 80012d8:	f240 6307 	movw	r3, #1543	; 0x607
  HAL_GPIO_Init(GPIOC, &GPIO_InitStruct);
 80012dc:	4883      	ldr	r0, [pc, #524]	; (80014ec <main+0x2e8>)
  GPIO_InitStruct.Pull = GPIO_NOPULL;
 80012de:	940c      	str	r4, [sp, #48]	; 0x30
  HAL_GPIO_Init(GPIOC, &GPIO_InitStruct);
 80012e0:	a90a      	add	r1, sp, #40	; 0x28
  GPIO_InitStruct.Mode = GPIO_MODE_OUTPUT_PP;
 80012e2:	2601      	movs	r6, #1
  GPIO_InitStruct.Mode = GPIO_MODE_INPUT;
 80012e4:	e9cd 340a 	strd	r3, r4, [sp, #40]	; 0x28
  HAL_GPIO_Init(GPIOC, &GPIO_InitStruct);
 80012e8:	f001 faf6 	bl	80028d8 <HAL_GPIO_Init>
  GPIO_InitStruct.Mode = GPIO_MODE_OUTPUT_PP;
 80012ec:	f641 0308 	movw	r3, #6152	; 0x1808
  HAL_GPIO_Init(GPIOC, &GPIO_InitStruct);
 80012f0:	487e      	ldr	r0, [pc, #504]	; (80014ec <main+0x2e8>)
 80012f2:	a90a      	add	r1, sp, #40	; 0x28
  GPIO_InitStruct.Mode = GPIO_MODE_OUTPUT_PP;
 80012f4:	e9cd 360a 	strd	r3, r6, [sp, #40]	; 0x28
  GPIO_InitStruct.Speed = GPIO_SPEED_FREQ_LOW;
 80012f8:	e9cd 440c 	strd	r4, r4, [sp, #48]	; 0x30
  HAL_GPIO_Init(GPIOC, &GPIO_InitStruct);
 80012fc:	f001 faec 	bl	80028d8 <HAL_GPIO_Init>
  GPIO_InitStruct.Pin = LD2_Pin|GPIO_PIN_6|GPIO_PIN_7;
 8001300:	23e0      	movs	r3, #224	; 0xe0
  HAL_GPIO_Init(GPIOA, &GPIO_InitStruct);
 8001302:	487b      	ldr	r0, [pc, #492]	; (80014f0 <main+0x2ec>)
 8001304:	a90a      	add	r1, sp, #40	; 0x28
  GPIO_InitStruct.Mode = GPIO_MODE_OUTPUT_PP;
 8001306:	e9cd 360a 	strd	r3, r6, [sp, #40]	; 0x28
  GPIO_InitStruct.Speed = GPIO_SPEED_FREQ_LOW;
 800130a:	e9cd 440c 	strd	r4, r4, [sp, #48]	; 0x30
  HAL_GPIO_Init(GPIOA, &GPIO_InitStruct);
 800130e:	f001 fae3 	bl	80028d8 <HAL_GPIO_Init>
  GPIO_InitStruct.Pin = GPIO_PIN_0|GPIO_PIN_5|GPIO_PIN_6|GPIO_PIN_8;
 8001312:	f240 1361 	movw	r3, #353	; 0x161
  HAL_GPIO_Init(GPIOB, &GPIO_InitStruct);
 8001316:	4877      	ldr	r0, [pc, #476]	; (80014f4 <main+0x2f0>)
 8001318:	a90a      	add	r1, sp, #40	; 0x28
  GPIO_InitStruct.Mode = GPIO_MODE_OUTPUT_PP;
 800131a:	e9cd 360a 	strd	r3, r6, [sp, #40]	; 0x28
  GPIO_InitStruct.Speed = GPIO_SPEED_FREQ_LOW;
 800131e:	e9cd 440c 	strd	r4, r4, [sp, #48]	; 0x30
  HAL_GPIO_Init(GPIOB, &GPIO_InitStruct);
 8001322:	f001 fad9 	bl	80028d8 <HAL_GPIO_Init>
  GPIO_InitStruct.Pin = GPIO_PIN_8|GPIO_PIN_9|GPIO_PIN_15;
 8001326:	f44f 4303 	mov.w	r3, #33536	; 0x8300
  HAL_GPIO_Init(GPIOA, &GPIO_InitStruct);
 800132a:	4871      	ldr	r0, [pc, #452]	; (80014f0 <main+0x2ec>)
  GPIO_InitStruct.Pull = GPIO_NOPULL;
 800132c:	940c      	str	r4, [sp, #48]	; 0x30
  HAL_GPIO_Init(GPIOA, &GPIO_InitStruct);
 800132e:	a90a      	add	r1, sp, #40	; 0x28
  GPIO_InitStruct.Mode = GPIO_MODE_INPUT;
 8001330:	e9cd 340a 	strd	r3, r4, [sp, #40]	; 0x28
  GPIO_InitStruct.Pin = GPIO_PIN_2;
 8001334:	f04f 0804 	mov.w	r8, #4
  HAL_GPIO_Init(GPIOA, &GPIO_InitStruct);
 8001338:	f001 face 	bl	80028d8 <HAL_GPIO_Init>
  HAL_GPIO_Init(GPIOD, &GPIO_InitStruct);
 800133c:	486e      	ldr	r0, [pc, #440]	; (80014f8 <main+0x2f4>)
  GPIO_InitStruct.Pull = GPIO_NOPULL;
 800133e:	940c      	str	r4, [sp, #48]	; 0x30
  HAL_GPIO_Init(GPIOD, &GPIO_InitStruct);
 8001340:	a90a      	add	r1, sp, #40	; 0x28
  GPIO_InitStruct.Mode = GPIO_MODE_INPUT;
 8001342:	e9cd 840a 	strd	r8, r4, [sp, #40]	; 0x28
  HAL_GPIO_Init(GPIOD, &GPIO_InitStruct);
 8001346:	f001 fac7 	bl	80028d8 <HAL_GPIO_Init>
  GPIO_InitStruct.Pin = GPIO_PIN_4|GPIO_PIN_9;
 800134a:	f44f 7304 	mov.w	r3, #528	; 0x210
  HAL_GPIO_Init(GPIOB, &GPIO_InitStruct);
 800134e:	4869      	ldr	r0, [pc, #420]	; (80014f4 <main+0x2f0>)
  GPIO_InitStruct.Pull = GPIO_NOPULL;
 8001350:	940c      	str	r4, [sp, #48]	; 0x30
  HAL_GPIO_Init(GPIOB, &GPIO_InitStruct);
 8001352:	a90a      	add	r1, sp, #40	; 0x28
  GPIO_InitStruct.Mode = GPIO_MODE_INPUT;
 8001354:	e9cd 340a 	strd	r3, r4, [sp, #40]	; 0x28
  HAL_GPIO_Init(GPIOB, &GPIO_InitStruct);
 8001358:	f001 fabe 	bl	80028d8 <HAL_GPIO_Init>
  __HAL_RCC_DMA2_CLK_ENABLE();
 800135c:	9404      	str	r4, [sp, #16]
 800135e:	6b2b      	ldr	r3, [r5, #48]	; 0x30
 8001360:	f443 0380 	orr.w	r3, r3, #4194304	; 0x400000
 8001364:	632b      	str	r3, [r5, #48]	; 0x30
 8001366:	6b2b      	ldr	r3, [r5, #48]	; 0x30
  hadc1.Instance = ADC1;
 8001368:	4d64      	ldr	r5, [pc, #400]	; (80014fc <main+0x2f8>)
  __HAL_RCC_DMA2_CLK_ENABLE();
 800136a:	f403 0380 	and.w	r3, r3, #4194304	; 0x400000
  HAL_NVIC_SetPriority(DMA2_Stream0_IRQn, 0, 0);
 800136e:	4622      	mov	r2, r4
 8001370:	4621      	mov	r1, r4
  __HAL_RCC_DMA2_CLK_ENABLE();
 8001372:	9304      	str	r3, [sp, #16]
  HAL_NVIC_SetPriority(DMA2_Stream0_IRQn, 0, 0);
 8001374:	2038      	movs	r0, #56	; 0x38
  __HAL_RCC_DMA2_CLK_ENABLE();
 8001376:	9b04      	ldr	r3, [sp, #16]
  HAL_NVIC_SetPriority(DMA2_Stream0_IRQn, 0, 0);
 8001378:	f001 f8be 	bl	80024f8 <HAL_NVIC_SetPriority>
  HAL_NVIC_EnableIRQ(DMA2_Stream0_IRQn);
 800137c:	2038      	movs	r0, #56	; 0x38
 800137e:	f001 f8ed 	bl	800255c <HAL_NVIC_EnableIRQ>
  ADC_ChannelConfTypeDef sConfig = {0};
 8001382:	2210      	movs	r2, #16
 8001384:	4621      	mov	r1, r4
 8001386:	a80a      	add	r0, sp, #40	; 0x28
 8001388:	f006 fdbb 	bl	8007f02 <memset>
  hadc1.Init.ClockPrescaler = ADC_CLOCK_SYNC_PCLK_DIV4;
 800138c:	4b5c      	ldr	r3, [pc, #368]	; (8001500 <main+0x2fc>)
  hadc1.Init.Resolution = ADC_RESOLUTION_12B;
 800138e:	60ac      	str	r4, [r5, #8]
  hadc1.Init.ClockPrescaler = ADC_CLOCK_SYNC_PCLK_DIV4;
 8001390:	f44f 3a80 	mov.w	sl, #65536	; 0x10000
 8001394:	e9c5 3a00 	strd	r3, sl, [r5]
  hadc1.Init.NbrOfConversion = 3;
 8001398:	f04f 0b03 	mov.w	fp, #3
  hadc1.Init.ExternalTrigConv = ADC_SOFTWARE_START;
 800139c:	4b59      	ldr	r3, [pc, #356]	; (8001504 <main+0x300>)
  hadc1.Init.ScanConvMode = ENABLE;
 800139e:	612e      	str	r6, [r5, #16]
  if (HAL_ADC_Init(&hadc1) != HAL_OK)
 80013a0:	4628      	mov	r0, r5
  hadc1.Init.ContinuousConvMode = DISABLE;
 80013a2:	762c      	strb	r4, [r5, #24]
  hadc1.Init.DiscontinuousConvMode = DISABLE;
 80013a4:	f885 4020 	strb.w	r4, [r5, #32]
  hadc1.Init.ExternalTrigConvEdge = ADC_EXTERNALTRIGCONVEDGE_NONE;
 80013a8:	62ec      	str	r4, [r5, #44]	; 0x2c
  hadc1.Init.ExternalTrigConv = ADC_SOFTWARE_START;
 80013aa:	62ab      	str	r3, [r5, #40]	; 0x28
  hadc1.Init.DataAlign = ADC_DATAALIGN_RIGHT;
 80013ac:	60ec      	str	r4, [r5, #12]
  hadc1.Init.NbrOfConversion = 3;
 80013ae:	f8c5 b01c 	str.w	fp, [r5, #28]
  hadc1.Init.DMAContinuousRequests = DISABLE;
 80013b2:	f885 4030 	strb.w	r4, [r5, #48]	; 0x30
  hadc1.Init.EOCSelection = ADC_EOC_SINGLE_CONV;
 80013b6:	616e      	str	r6, [r5, #20]
  if (HAL_ADC_Init(&hadc1) != HAL_OK)
 80013b8:	f000 fbb4 	bl	8001b24 <HAL_ADC_Init>
 80013bc:	b108      	cbz	r0, 80013c2 <main+0x1be>
 80013be:	b672      	cpsid	i
  while (1)
 80013c0:	e7fe      	b.n	80013c0 <main+0x1bc>
  sConfig.Rank = 1;
 80013c2:	e9cd 060a 	strd	r0, r6, [sp, #40]	; 0x28
  sConfig.SamplingTime = ADC_SAMPLETIME_3CYCLES;
 80013c6:	900c      	str	r0, [sp, #48]	; 0x30
  if (HAL_ADC_ConfigChannel(&hadc1, &sConfig) != HAL_OK)
 80013c8:	a90a      	add	r1, sp, #40	; 0x28
 80013ca:	4628      	mov	r0, r5
 80013cc:	f000 fd9c 	bl	8001f08 <HAL_ADC_ConfigChannel>
 80013d0:	b108      	cbz	r0, 80013d6 <main+0x1d2>
 80013d2:	b672      	cpsid	i
  while (1)
 80013d4:	e7fe      	b.n	80013d4 <main+0x1d0>
  sConfig.Rank = 2;
 80013d6:	2402      	movs	r4, #2
  if (HAL_ADC_ConfigChannel(&hadc1, &sConfig) != HAL_OK)
 80013d8:	a90a      	add	r1, sp, #40	; 0x28
 80013da:	4628      	mov	r0, r5
  sConfig.Channel = ADC_CHANNEL_1;
 80013dc:	960a      	str	r6, [sp, #40]	; 0x28
  sConfig.Rank = 2;
 80013de:	940b      	str	r4, [sp, #44]	; 0x2c
  if (HAL_ADC_ConfigChannel(&hadc1, &sConfig) != HAL_OK)
 80013e0:	f000 fd92 	bl	8001f08 <HAL_ADC_ConfigChannel>
 80013e4:	b108      	cbz	r0, 80013ea <main+0x1e6>
 80013e6:	b672      	cpsid	i
  while (1)
 80013e8:	e7fe      	b.n	80013e8 <main+0x1e4>
  if (HAL_ADC_ConfigChannel(&hadc1, &sConfig) != HAL_OK)
 80013ea:	a90a      	add	r1, sp, #40	; 0x28
 80013ec:	4628      	mov	r0, r5
  sConfig.Rank = 3;
 80013ee:	e9cd 8b0a 	strd	r8, fp, [sp, #40]	; 0x28
  if (HAL_ADC_ConfigChannel(&hadc1, &sConfig) != HAL_OK)
 80013f2:	f000 fd89 	bl	8001f08 <HAL_ADC_ConfigChannel>
 80013f6:	b108      	cbz	r0, 80013fc <main+0x1f8>
 80013f8:	b672      	cpsid	i
  while (1)
 80013fa:	e7fe      	b.n	80013fa <main+0x1f6>
  hcan1.Instance = CAN1;
 80013fc:	4d42      	ldr	r5, [pc, #264]	; (8001508 <main+0x304>)
  hcan1.Init.Prescaler = 18;
 80013fe:	4b43      	ldr	r3, [pc, #268]	; (800150c <main+0x308>)
  hcan1.Init.ReceiveFifoLocked = DISABLE;
 8001400:	83a8      	strh	r0, [r5, #28]
  hcan1.Init.Prescaler = 18;
 8001402:	f04f 0b12 	mov.w	fp, #18
 8001406:	e9c5 3b00 	strd	r3, fp, [r5]
  hcan1.Init.TimeSeg2 = CAN_BS2_2TQ;
 800140a:	f44f 1380 	mov.w	r3, #1048576	; 0x100000
  hcan1.Init.SyncJumpWidth = CAN_SJW_1TQ;
 800140e:	e9c5 0002 	strd	r0, r0, [r5, #8]
  hcan1.Init.TimeTriggeredMode = DISABLE;
 8001412:	e9c5 3005 	strd	r3, r0, [r5, #20]
  if (HAL_CAN_Init(&hcan1) != HAL_OK)
 8001416:	4628      	mov	r0, r5
  hcan1.Init.TimeSeg1 = CAN_BS1_2TQ;
 8001418:	f8c5 a010 	str.w	sl, [r5, #16]
  if (HAL_CAN_Init(&hcan1) != HAL_OK)
 800141c:	f000 fe0e 	bl	800203c <HAL_CAN_Init>
 8001420:	b108      	cbz	r0, 8001426 <main+0x222>
 8001422:	b672      	cpsid	i
  while (1)
 8001424:	e7fe      	b.n	8001424 <main+0x220>
  canfilterconfig.FilterIdHigh = 0x103<<5; // ID of external ECU
 8001426:	f242 0360 	movw	r3, #8288	; 0x2060
  canfilterconfig.FilterIdLow = 0;
 800142a:	e9cd 300a 	strd	r3, r0, [sp, #40]	; 0x28
  canfilterconfig.FilterMaskIdLow = 0x0000;
 800142e:	e9cd 300c 	strd	r3, r0, [sp, #48]	; 0x30
  canfilterconfig.FilterFIFOAssignment = CAN_FILTER_FIFO0;
 8001432:	e9cd 0b0e 	strd	r0, fp, [sp, #56]	; 0x38
  canfilterconfig.FilterScale = CAN_FILTERSCALE_32BIT;
 8001436:	e9cd 0610 	strd	r0, r6, [sp, #64]	; 0x40
  HAL_CAN_ConfigFilter(&hcan1, &canfilterconfig);
 800143a:	a90a      	add	r1, sp, #40	; 0x28
 800143c:	4628      	mov	r0, r5
  canfilterconfig.FilterActivation = CAN_FILTER_ENABLE;
 800143e:	9612      	str	r6, [sp, #72]	; 0x48
  canfilterconfig.SlaveStartFilterBank = 20;  // how many filters to assign to the CAN1 (master can)
 8001440:	f8cd 904c 	str.w	r9, [sp, #76]	; 0x4c
  HAL_CAN_ConfigFilter(&hcan1, &canfilterconfig);
 8001444:	f000 fe76 	bl	8002134 <HAL_CAN_ConfigFilter>
  hcrc.Instance = CRC;
 8001448:	4831      	ldr	r0, [pc, #196]	; (8001510 <main+0x30c>)
 800144a:	4b32      	ldr	r3, [pc, #200]	; (8001514 <main+0x310>)
 800144c:	6003      	str	r3, [r0, #0]
  if (HAL_CRC_Init(&hcrc) != HAL_OK)
 800144e:	f001 f8a7 	bl	80025a0 <HAL_CRC_Init>
 8001452:	4605      	mov	r5, r0
 8001454:	b108      	cbz	r0, 800145a <main+0x256>
 8001456:	b672      	cpsid	i
  while (1)
 8001458:	e7fe      	b.n	8001458 <main+0x254>
   	HAL_GPIO_WritePin(GPIOB, GPIO_PIN_6, GPIO_PIN_RESET);
 800145a:	4602      	mov	r2, r0
 800145c:	2140      	movs	r1, #64	; 0x40
 800145e:	4825      	ldr	r0, [pc, #148]	; (80014f4 <main+0x2f0>)
 8001460:	f001 fb14 	bl	8002a8c <HAL_GPIO_WritePin>
	HAL_Delay(2.75);
 8001464:	4620      	mov	r0, r4
 8001466:	f000 fb37 	bl	8001ad8 <HAL_Delay>
	HAL_GPIO_WritePin(GPIOB, GPIO_PIN_6, GPIO_PIN_SET);
 800146a:	4632      	mov	r2, r6
 800146c:	2140      	movs	r1, #64	; 0x40
 800146e:	4821      	ldr	r0, [pc, #132]	; (80014f4 <main+0x2f0>)
 8001470:	f001 fb0c 	bl	8002a8c <HAL_GPIO_WritePin>
	HAL_Delay(4);
 8001474:	4640      	mov	r0, r8
 8001476:	f000 fb2f 	bl	8001ad8 <HAL_Delay>
	HAL_GPIO_WritePin(GPIOB, GPIO_PIN_6, GPIO_PIN_RESET);
 800147a:	481e      	ldr	r0, [pc, #120]	; (80014f4 <main+0x2f0>)
 800147c:	462a      	mov	r2, r5
 800147e:	2140      	movs	r1, #64	; 0x40
 8001480:	f001 fb04 	bl	8002a8c <HAL_GPIO_WritePin>
  huart3.Instance = USART3;
 8001484:	4824      	ldr	r0, [pc, #144]	; (8001518 <main+0x314>)
  huart3.Init.BaudRate = 100000;
 8001486:	4a25      	ldr	r2, [pc, #148]	; (800151c <main+0x318>)
 8001488:	4b25      	ldr	r3, [pc, #148]	; (8001520 <main+0x31c>)
  huart3.Init.StopBits = UART_STOPBITS_1;
 800148a:	e9c0 5502 	strd	r5, r5, [r0, #8]
  huart3.Init.BaudRate = 100000;
 800148e:	e9c0 2300 	strd	r2, r3, [r0]
  huart3.Init.Mode = UART_MODE_TX_RX;
 8001492:	e9c0 5704 	strd	r5, r7, [r0, #16]
  huart3.Init.OverSampling = UART_OVERSAMPLING_16;
 8001496:	e9c0 5506 	strd	r5, r5, [r0, #24]
  if (HAL_UART_Init(&huart3) != HAL_OK)
 800149a:	f001 fec9 	bl	8003230 <HAL_UART_Init>
 800149e:	4604      	mov	r4, r0
 80014a0:	b108      	cbz	r0, 80014a6 <main+0x2a2>
 80014a2:	b672      	cpsid	i
  while (1)
 80014a4:	e7fe      	b.n	80014a4 <main+0x2a0>
	err = ai_network_create_and_init(&network, act_addr, NULL);
 80014a6:	4d1f      	ldr	r5, [pc, #124]	; (8001524 <main+0x320>)
  MX_X_CUBE_AI_Init();
 80014a8:	f002 f948 	bl	800373c <MX_X_CUBE_AI_Init>
	const ai_handle act_addr[] = { activations };
 80014ac:	4b1e      	ldr	r3, [pc, #120]	; (8001528 <main+0x324>)
 80014ae:	930a      	str	r3, [sp, #40]	; 0x28
	err = ai_network_create_and_init(&network, act_addr, NULL);
 80014b0:	a90a      	add	r1, sp, #40	; 0x28
 80014b2:	4622      	mov	r2, r4
 80014b4:	4628      	mov	r0, r5
 80014b6:	f002 fd71 	bl	8003f9c <ai_network_create_and_init>
	if (err.type != AI_ERROR_NONE){
 80014ba:	f010 01ff 	ands.w	r1, r0, #255	; 0xff
 80014be:	d001      	beq.n	80014c4 <main+0x2c0>
 80014c0:	b672      	cpsid	i
  while (1)
 80014c2:	e7fe      	b.n	80014c2 <main+0x2be>
	ai_input = ai_network_inputs_get(network, NULL);
 80014c4:	6828      	ldr	r0, [r5, #0]
 80014c6:	9101      	str	r1, [sp, #4]
 80014c8:	f002 fc36 	bl	8003d38 <ai_network_inputs_get>
 80014cc:	4c17      	ldr	r4, [pc, #92]	; (800152c <main+0x328>)
	ai_output = ai_network_outputs_get(network, NULL);
 80014ce:	9901      	ldr	r1, [sp, #4]
	ai_input = ai_network_inputs_get(network, NULL);
 80014d0:	6020      	str	r0, [r4, #0]
	ai_output = ai_network_outputs_get(network, NULL);
 80014d2:	6828      	ldr	r0, [r5, #0]
 80014d4:	f002 fc3a 	bl	8003d4c <ai_network_outputs_get>
 80014d8:	4b15      	ldr	r3, [pc, #84]	; (8001530 <main+0x32c>)
 80014da:	6018      	str	r0, [r3, #0]
	if (ai_input == NULL || ai_output == NULL) {
 80014dc:	6823      	ldr	r3, [r4, #0]
 80014de:	b103      	cbz	r3, 80014e2 <main+0x2de>
 80014e0:	bb40      	cbnz	r0, 8001534 <main+0x330>
 80014e2:	b672      	cpsid	i
  while (1)
 80014e4:	e7fe      	b.n	80014e4 <main+0x2e0>
 80014e6:	bf00      	nop
 80014e8:	40023800 	.word	0x40023800
 80014ec:	40020800 	.word	0x40020800
 80014f0:	40020000 	.word	0x40020000
 80014f4:	40020400 	.word	0x40020400
 80014f8:	40020c00 	.word	0x40020c00
 80014fc:	20001524 	.word	0x20001524
 8001500:	40012000 	.word	0x40012000
 8001504:	0f000001 	.word	0x0f000001
 8001508:	2000156c 	.word	0x2000156c
 800150c:	40006400 	.word	0x40006400
 8001510:	20001594 	.word	0x20001594
 8001514:	40023000 	.word	0x40023000
 8001518:	20001644 	.word	0x20001644
 800151c:	40004800 	.word	0x40004800
 8001520:	000186a0 	.word	0x000186a0
 8001524:	2000168c 	.word	0x2000168c
 8001528:	20000e0c 	.word	0x20000e0c
 800152c:	20001514 	.word	0x20001514
 8001530:	20001518 	.word	0x20001518
  HAL_CAN_Start(&hcan1);
 8001534:	484c      	ldr	r0, [pc, #304]	; (8001668 <main+0x464>)
 8001536:	f000 fe83 	bl	8002240 <HAL_CAN_Start>
  HAL_CAN_ActivateNotification(&hcan1, CAN_IT_RX_FIFO0_MSG_PENDING);
 800153a:	2102      	movs	r1, #2
 800153c:	484a      	ldr	r0, [pc, #296]	; (8001668 <main+0x464>)
 800153e:	f000 fead 	bl	800229c <HAL_CAN_ActivateNotification>
  TxHeader.DLC = 2; // data length
 8001542:	4b4a      	ldr	r3, [pc, #296]	; (800166c <main+0x468>)
  HAL_GPIO_WritePin(GPIOA, GPIO_PIN_5, 1);
 8001544:	484a      	ldr	r0, [pc, #296]	; (8001670 <main+0x46c>)
  TxHeader.DLC = 2; // data length
 8001546:	2202      	movs	r2, #2
 8001548:	611a      	str	r2, [r3, #16]
  TxHeader.StdId = 0x446; // ID
 800154a:	f240 4246 	movw	r2, #1094	; 0x446
 800154e:	601a      	str	r2, [r3, #0]
  HAL_GPIO_WritePin(GPIOA, GPIO_PIN_5, 1);
 8001550:	2120      	movs	r1, #32
 8001552:	2201      	movs	r2, #1
  TxHeader.IDE = CAN_ID_STD;
 8001554:	2400      	movs	r4, #0
  TxHeader.RTR = CAN_RTR_DATA;
 8001556:	e9c3 4402 	strd	r4, r4, [r3, #8]
  HAL_GPIO_WritePin(GPIOA, GPIO_PIN_5, 1);
 800155a:	f001 fa97 	bl	8002a8c <HAL_GPIO_WritePin>
  HAL_Delay(1000);
 800155e:	f44f 707a 	mov.w	r0, #1000	; 0x3e8
 8001562:	f000 fab9 	bl	8001ad8 <HAL_Delay>
  HAL_GPIO_WritePin(GPIOA, GPIO_PIN_5, 0);
 8001566:	4842      	ldr	r0, [pc, #264]	; (8001670 <main+0x46c>)
 8001568:	4622      	mov	r2, r4
 800156a:	2120      	movs	r1, #32
 800156c:	f001 fa8e 	bl	8002a8c <HAL_GPIO_WritePin>
  HAL_GPIO_WritePin(GPIOB, GPIO_PIN_6, GPIO_PIN_SET);
 8001570:	2201      	movs	r2, #1
 8001572:	2140      	movs	r1, #64	; 0x40
 8001574:	483f      	ldr	r0, [pc, #252]	; (8001674 <main+0x470>)
 8001576:	f001 fa89 	bl	8002a8c <HAL_GPIO_WritePin>
  HAL_Delay(1000);
 800157a:	f44f 707a 	mov.w	r0, #1000	; 0x3e8
 800157e:	f000 faab 	bl	8001ad8 <HAL_Delay>
  success = startupSequence();
 8001582:	f7ff fcf9 	bl	8000f78 <startupSequence>
  if (success == -1) { HAL_GPIO_WritePin(GPIOA, GPIO_PIN_5, 1); }
 8001586:	3001      	adds	r0, #1
 8001588:	d104      	bne.n	8001594 <main+0x390>
 800158a:	4839      	ldr	r0, [pc, #228]	; (8001670 <main+0x46c>)
 800158c:	2201      	movs	r2, #1
 800158e:	2120      	movs	r1, #32
 8001590:	f001 fa7c 	bl	8002a8c <HAL_GPIO_WritePin>
		sprintf(ResultStr2, "%02X", "0x80");
 8001594:	4e38      	ldr	r6, [pc, #224]	; (8001678 <main+0x474>)
		HAL_UART_Transmit(&huart3, (uint8_t*)ResultStr2, sizeof(ResultStr2), 100);
 8001596:	4d39      	ldr	r5, [pc, #228]	; (800167c <main+0x478>)
		HAL_UART_Transmit(&huart2, (uint8_t*)ResultStr2, sizeof(ResultStr2), 100);
 8001598:	4c39      	ldr	r4, [pc, #228]	; (8001680 <main+0x47c>)
		sprintf(ResultStr4, "%04X", "0x0215");
 800159a:	4f3a      	ldr	r7, [pc, #232]	; (8001684 <main+0x480>)
		sprintf(ResultStr2, "%02X", "0x80");
 800159c:	4a3a      	ldr	r2, [pc, #232]	; (8001688 <main+0x484>)
 800159e:	4631      	mov	r1, r6
 80015a0:	a802      	add	r0, sp, #8
 80015a2:	f006 fc4b 	bl	8007e3c <siprintf>
		HAL_UART_Transmit(&huart3, (uint8_t*)ResultStr2, sizeof(ResultStr2), 100);
 80015a6:	a902      	add	r1, sp, #8
 80015a8:	2364      	movs	r3, #100	; 0x64
 80015aa:	2202      	movs	r2, #2
 80015ac:	4628      	mov	r0, r5
 80015ae:	f001 fe6e 	bl	800328e <HAL_UART_Transmit>
		HAL_UART_Transmit(&huart2, (uint8_t*)ResultStr2, sizeof(ResultStr2), 100);
 80015b2:	2364      	movs	r3, #100	; 0x64
 80015b4:	a902      	add	r1, sp, #8
 80015b6:	2202      	movs	r2, #2
 80015b8:	4620      	mov	r0, r4
 80015ba:	f001 fe68 	bl	800328e <HAL_UART_Transmit>
		sprintf(ResultStr2, "%02X", "0x00");
 80015be:	4631      	mov	r1, r6
 80015c0:	4a32      	ldr	r2, [pc, #200]	; (800168c <main+0x488>)
 80015c2:	a802      	add	r0, sp, #8
 80015c4:	f006 fc3a 	bl	8007e3c <siprintf>
		HAL_UART_Transmit(&huart3, (uint8_t*)ResultStr2, sizeof(ResultStr2), 100);
 80015c8:	a902      	add	r1, sp, #8
 80015ca:	2364      	movs	r3, #100	; 0x64
 80015cc:	2202      	movs	r2, #2
 80015ce:	4628      	mov	r0, r5
 80015d0:	f001 fe5d 	bl	800328e <HAL_UART_Transmit>
		HAL_UART_Transmit(&huart2, (uint8_t*)ResultStr2, sizeof(ResultStr2), 100);
 80015d4:	2364      	movs	r3, #100	; 0x64
 80015d6:	a902      	add	r1, sp, #8
 80015d8:	2202      	movs	r2, #2
 80015da:	4620      	mov	r0, r4
 80015dc:	f001 fe57 	bl	800328e <HAL_UART_Transmit>
		sprintf(ResultStr4, "%04X", "0x0215");
 80015e0:	4639      	mov	r1, r7
 80015e2:	4a2b      	ldr	r2, [pc, #172]	; (8001690 <main+0x48c>)
 80015e4:	a803      	add	r0, sp, #12
 80015e6:	f006 fc29 	bl	8007e3c <siprintf>
		HAL_UART_Transmit(&huart3, (uint8_t*)ResultStr4, sizeof(ResultStr4), 100);
 80015ea:	a903      	add	r1, sp, #12
 80015ec:	2364      	movs	r3, #100	; 0x64
 80015ee:	2204      	movs	r2, #4
 80015f0:	4628      	mov	r0, r5
 80015f2:	f001 fe4c 	bl	800328e <HAL_UART_Transmit>
		HAL_UART_Transmit(&huart2, (uint8_t*)ResultStr4, sizeof(ResultStr4), 100);
 80015f6:	2364      	movs	r3, #100	; 0x64
 80015f8:	a903      	add	r1, sp, #12
 80015fa:	2204      	movs	r2, #4
 80015fc:	4620      	mov	r0, r4
 80015fe:	f001 fe46 	bl	800328e <HAL_UART_Transmit>
		sprintf(ResultStr2, "%02X", "0x0B");
 8001602:	4631      	mov	r1, r6
 8001604:	4a23      	ldr	r2, [pc, #140]	; (8001694 <main+0x490>)
 8001606:	a802      	add	r0, sp, #8
 8001608:	f006 fc18 	bl	8007e3c <siprintf>
		HAL_UART_Transmit(&huart3, (uint8_t*)ResultStr2, sizeof(ResultStr2), 100);
 800160c:	a902      	add	r1, sp, #8
 800160e:	2364      	movs	r3, #100	; 0x64
 8001610:	2202      	movs	r2, #2
 8001612:	4628      	mov	r0, r5
 8001614:	f001 fe3b 	bl	800328e <HAL_UART_Transmit>
		HAL_UART_Transmit(&huart2, (uint8_t*)ResultStr2, sizeof(ResultStr2), 100);
 8001618:	2364      	movs	r3, #100	; 0x64
 800161a:	a902      	add	r1, sp, #8
 800161c:	2202      	movs	r2, #2
 800161e:	4620      	mov	r0, r4
 8001620:	f001 fe35 	bl	800328e <HAL_UART_Transmit>
		sprintf(ResultStr4, "%04X", "0xCB49");
 8001624:	4639      	mov	r1, r7
 8001626:	4a1c      	ldr	r2, [pc, #112]	; (8001698 <main+0x494>)
 8001628:	a803      	add	r0, sp, #12
 800162a:	f006 fc07 	bl	8007e3c <siprintf>
		HAL_UART_Transmit(&huart3, (uint8_t*)ResultStr4, sizeof(ResultStr4), 100);
 800162e:	a903      	add	r1, sp, #12
 8001630:	2364      	movs	r3, #100	; 0x64
 8001632:	2204      	movs	r2, #4
 8001634:	4628      	mov	r0, r5
 8001636:	f001 fe2a 	bl	800328e <HAL_UART_Transmit>
		HAL_UART_Transmit(&huart2, (uint8_t*)ResultStr4, sizeof(ResultStr4), 100);
 800163a:	a903      	add	r1, sp, #12
 800163c:	2364      	movs	r3, #100	; 0x64
 800163e:	2204      	movs	r2, #4
 8001640:	4620      	mov	r0, r4
 8001642:	f001 fe24 	bl	800328e <HAL_UART_Transmit>
		HAL_Delay(11.6*SERIES_MOD);
 8001646:	200b      	movs	r0, #11
 8001648:	f000 fa46 	bl	8001ad8 <HAL_Delay>
		HAL_UART_Receive(&huart3, *output, 12, 100);
 800164c:	f89d 1028 	ldrb.w	r1, [sp, #40]	; 0x28
 8001650:	2364      	movs	r3, #100	; 0x64
 8001652:	220c      	movs	r2, #12
 8001654:	4628      	mov	r0, r5
 8001656:	f001 fe68 	bl	800332a <HAL_UART_Receive>
		HAL_UART_Transmit(&huart2, (uint8_t*)output, 12, 100);
 800165a:	2364      	movs	r3, #100	; 0x64
 800165c:	220c      	movs	r2, #12
 800165e:	a90a      	add	r1, sp, #40	; 0x28
 8001660:	4620      	mov	r0, r4
 8001662:	f001 fe14 	bl	800328e <HAL_UART_Transmit>
  while (1)
 8001666:	e799      	b.n	800159c <main+0x398>
 8001668:	2000156c 	.word	0x2000156c
 800166c:	20000df4 	.word	0x20000df4
 8001670:	40020000 	.word	0x40020000
 8001674:	40020400 	.word	0x40020400
 8001678:	0800aa54 	.word	0x0800aa54
 800167c:	20001644 	.word	0x20001644
 8001680:	200015fc 	.word	0x200015fc
 8001684:	0800aa5d 	.word	0x0800aa5d
 8001688:	0800aaa9 	.word	0x0800aaa9
 800168c:	0800aaae 	.word	0x0800aaae
 8001690:	0800aab3 	.word	0x0800aab3
 8001694:	0800aaba 	.word	0x0800aaba
 8001698:	0800aabf 	.word	0x0800aabf

0800169c <MX_USART2_UART_Init>:
  huart2.Instance = USART2;
 800169c:	480a      	ldr	r0, [pc, #40]	; (80016c8 <MX_USART2_UART_Init+0x2c>)
  huart2.Init.BaudRate = 9600;
 800169e:	4a0b      	ldr	r2, [pc, #44]	; (80016cc <MX_USART2_UART_Init+0x30>)
{
 80016a0:	b508      	push	{r3, lr}
  huart2.Init.BaudRate = 9600;
 80016a2:	f44f 5316 	mov.w	r3, #9600	; 0x2580
 80016a6:	e9c0 2300 	strd	r2, r3, [r0]
  huart2.Init.WordLength = UART_WORDLENGTH_8B;
 80016aa:	2300      	movs	r3, #0
  huart2.Init.Mode = UART_MODE_TX_RX;
 80016ac:	220c      	movs	r2, #12
  huart2.Init.StopBits = UART_STOPBITS_1;
 80016ae:	e9c0 3302 	strd	r3, r3, [r0, #8]
  huart2.Init.HwFlowCtl = UART_HWCONTROL_NONE;
 80016b2:	e9c0 2305 	strd	r2, r3, [r0, #20]
  huart2.Init.Parity = UART_PARITY_NONE;
 80016b6:	6103      	str	r3, [r0, #16]
  huart2.Init.OverSampling = UART_OVERSAMPLING_16;
 80016b8:	61c3      	str	r3, [r0, #28]
  if (HAL_UART_Init(&huart2) != HAL_OK)
 80016ba:	f001 fdb9 	bl	8003230 <HAL_UART_Init>
 80016be:	b108      	cbz	r0, 80016c4 <MX_USART2_UART_Init+0x28>
 80016c0:	b672      	cpsid	i
  while (1)
 80016c2:	e7fe      	b.n	80016c2 <MX_USART2_UART_Init+0x26>
}
 80016c4:	bd08      	pop	{r3, pc}
 80016c6:	bf00      	nop
 80016c8:	200015fc 	.word	0x200015fc
 80016cc:	40004400 	.word	0x40004400

080016d0 <Error_Handler>:
 80016d0:	b672      	cpsid	i
  while (1)
 80016d2:	e7fe      	b.n	80016d2 <Error_Handler+0x2>

080016d4 <HAL_MspInit>:
/* USER CODE END 0 */
/**
  * Initializes the Global MSP.
  */
void HAL_MspInit(void)
{
 80016d4:	b082      	sub	sp, #8
  /* USER CODE BEGIN MspInit 0 */

  /* USER CODE END MspInit 0 */

  __HAL_RCC_SYSCFG_CLK_ENABLE();
 80016d6:	4b0d      	ldr	r3, [pc, #52]	; (800170c <HAL_MspInit+0x38>)
 80016d8:	2100      	movs	r1, #0
 80016da:	9100      	str	r1, [sp, #0]
 80016dc:	6c5a      	ldr	r2, [r3, #68]	; 0x44
 80016de:	f442 4280 	orr.w	r2, r2, #16384	; 0x4000
 80016e2:	645a      	str	r2, [r3, #68]	; 0x44
 80016e4:	6c5a      	ldr	r2, [r3, #68]	; 0x44
 80016e6:	f402 4280 	and.w	r2, r2, #16384	; 0x4000
 80016ea:	9200      	str	r2, [sp, #0]
 80016ec:	9a00      	ldr	r2, [sp, #0]
  __HAL_RCC_PWR_CLK_ENABLE();
 80016ee:	9101      	str	r1, [sp, #4]
 80016f0:	6c1a      	ldr	r2, [r3, #64]	; 0x40
 80016f2:	f042 5280 	orr.w	r2, r2, #268435456	; 0x10000000
 80016f6:	641a      	str	r2, [r3, #64]	; 0x40
 80016f8:	6c1b      	ldr	r3, [r3, #64]	; 0x40
 80016fa:	f003 5380 	and.w	r3, r3, #268435456	; 0x10000000
 80016fe:	9301      	str	r3, [sp, #4]
 8001700:	9b01      	ldr	r3, [sp, #4]

  HAL_NVIC_SetPriorityGrouping(NVIC_PRIORITYGROUP_0);
 8001702:	2007      	movs	r0, #7
  /* System interrupt init*/

  /* USER CODE BEGIN MspInit 1 */

  /* USER CODE END MspInit 1 */
}
 8001704:	b002      	add	sp, #8
  HAL_NVIC_SetPriorityGrouping(NVIC_PRIORITYGROUP_0);
 8001706:	f000 bee5 	b.w	80024d4 <HAL_NVIC_SetPriorityGrouping>
 800170a:	bf00      	nop
 800170c:	40023800 	.word	0x40023800

08001710 <HAL_ADC_MspInit>:
* This function configures the hardware resources used in this example
* @param hadc: ADC handle pointer
* @retval None
*/
void HAL_ADC_MspInit(ADC_HandleTypeDef* hadc)
{
 8001710:	b570      	push	{r4, r5, r6, lr}
 8001712:	4606      	mov	r6, r0
 8001714:	b088      	sub	sp, #32
  GPIO_InitTypeDef GPIO_InitStruct = {0};
 8001716:	2214      	movs	r2, #20
 8001718:	2100      	movs	r1, #0
 800171a:	a803      	add	r0, sp, #12
 800171c:	f006 fbf1 	bl	8007f02 <memset>
  if(hadc->Instance==ADC1)
 8001720:	6832      	ldr	r2, [r6, #0]
 8001722:	4b20      	ldr	r3, [pc, #128]	; (80017a4 <HAL_ADC_MspInit+0x94>)
 8001724:	429a      	cmp	r2, r3
 8001726:	d13a      	bne.n	800179e <HAL_ADC_MspInit+0x8e>
  {
  /* USER CODE BEGIN ADC1_MspInit 0 */

  /* USER CODE END ADC1_MspInit 0 */
    /* Peripheral clock enable */
    __HAL_RCC_ADC1_CLK_ENABLE();
 8001728:	f503 338c 	add.w	r3, r3, #71680	; 0x11800
 800172c:	2500      	movs	r5, #0
 800172e:	9501      	str	r5, [sp, #4]
 8001730:	6c5a      	ldr	r2, [r3, #68]	; 0x44
    PA4     ------> ADC1_IN4
    */
    GPIO_InitStruct.Pin = GPIO_PIN_0|GPIO_PIN_1|GPIO_PIN_4;
    GPIO_InitStruct.Mode = GPIO_MODE_ANALOG;
    GPIO_InitStruct.Pull = GPIO_NOPULL;
    HAL_GPIO_Init(GPIOA, &GPIO_InitStruct);
 8001732:	481d      	ldr	r0, [pc, #116]	; (80017a8 <HAL_ADC_MspInit+0x98>)

    /* ADC1 DMA Init */
    /* ADC1 Init */
    hdma_adc1.Instance = DMA2_Stream0;
 8001734:	4c1d      	ldr	r4, [pc, #116]	; (80017ac <HAL_ADC_MspInit+0x9c>)
    __HAL_RCC_ADC1_CLK_ENABLE();
 8001736:	f442 7280 	orr.w	r2, r2, #256	; 0x100
 800173a:	645a      	str	r2, [r3, #68]	; 0x44
 800173c:	6c5a      	ldr	r2, [r3, #68]	; 0x44
 800173e:	f402 7280 	and.w	r2, r2, #256	; 0x100
 8001742:	9201      	str	r2, [sp, #4]
 8001744:	9a01      	ldr	r2, [sp, #4]
    __HAL_RCC_GPIOA_CLK_ENABLE();
 8001746:	9502      	str	r5, [sp, #8]
 8001748:	6b1a      	ldr	r2, [r3, #48]	; 0x30
 800174a:	f042 0201 	orr.w	r2, r2, #1
 800174e:	631a      	str	r2, [r3, #48]	; 0x30
 8001750:	6b1b      	ldr	r3, [r3, #48]	; 0x30
 8001752:	f003 0301 	and.w	r3, r3, #1
 8001756:	9302      	str	r3, [sp, #8]
 8001758:	9b02      	ldr	r3, [sp, #8]
    GPIO_InitStruct.Mode = GPIO_MODE_ANALOG;
 800175a:	2213      	movs	r2, #19
 800175c:	2303      	movs	r3, #3
    HAL_GPIO_Init(GPIOA, &GPIO_InitStruct);
 800175e:	a903      	add	r1, sp, #12
    GPIO_InitStruct.Mode = GPIO_MODE_ANALOG;
 8001760:	e9cd 2303 	strd	r2, r3, [sp, #12]
    HAL_GPIO_Init(GPIOA, &GPIO_InitStruct);
 8001764:	f001 f8b8 	bl	80028d8 <HAL_GPIO_Init>
    hdma_adc1.Instance = DMA2_Stream0;
 8001768:	4b11      	ldr	r3, [pc, #68]	; (80017b0 <HAL_ADC_MspInit+0xa0>)
    hdma_adc1.Init.Channel = DMA_CHANNEL_0;
    hdma_adc1.Init.Direction = DMA_PERIPH_TO_MEMORY;
    hdma_adc1.Init.PeriphInc = DMA_PINC_DISABLE;
    hdma_adc1.Init.MemInc = DMA_MINC_ENABLE;
    hdma_adc1.Init.PeriphDataAlignment = DMA_PDATAALIGN_HALFWORD;
 800176a:	f44f 6180 	mov.w	r1, #1024	; 0x400
    hdma_adc1.Init.Channel = DMA_CHANNEL_0;
 800176e:	e9c4 3500 	strd	r3, r5, [r4]
    hdma_adc1.Init.PeriphDataAlignment = DMA_PDATAALIGN_HALFWORD;
 8001772:	f44f 6300 	mov.w	r3, #2048	; 0x800
    hdma_adc1.Init.MemDataAlignment = DMA_MDATAALIGN_HALFWORD;
    hdma_adc1.Init.Mode = DMA_CIRCULAR;
 8001776:	f44f 5000 	mov.w	r0, #8192	; 0x2000
    hdma_adc1.Init.PeriphDataAlignment = DMA_PDATAALIGN_HALFWORD;
 800177a:	e9c4 1304 	strd	r1, r3, [r4, #16]
    hdma_adc1.Init.Mode = DMA_CIRCULAR;
 800177e:	f44f 7380 	mov.w	r3, #256	; 0x100
 8001782:	e9c4 0306 	strd	r0, r3, [r4, #24]
    hdma_adc1.Init.Priority = DMA_PRIORITY_LOW;
    hdma_adc1.Init.FIFOMode = DMA_FIFOMODE_DISABLE;
    if (HAL_DMA_Init(&hdma_adc1) != HAL_OK)
 8001786:	4620      	mov	r0, r4
    hdma_adc1.Init.PeriphInc = DMA_PINC_DISABLE;
 8001788:	e9c4 5502 	strd	r5, r5, [r4, #8]
    hdma_adc1.Init.FIFOMode = DMA_FIFOMODE_DISABLE;
 800178c:	e9c4 5508 	strd	r5, r5, [r4, #32]
    if (HAL_DMA_Init(&hdma_adc1) != HAL_OK)
 8001790:	f000 ff2c 	bl	80025ec <HAL_DMA_Init>
 8001794:	b108      	cbz	r0, 800179a <HAL_ADC_MspInit+0x8a>
    {
      Error_Handler();
 8001796:	f7ff ff9b 	bl	80016d0 <Error_Handler>
    }

    __HAL_LINKDMA(hadc,DMA_Handle,hdma_adc1);
 800179a:	63b4      	str	r4, [r6, #56]	; 0x38
 800179c:	63a6      	str	r6, [r4, #56]	; 0x38
  /* USER CODE BEGIN ADC1_MspInit 1 */

  /* USER CODE END ADC1_MspInit 1 */
  }

}
 800179e:	b008      	add	sp, #32
 80017a0:	bd70      	pop	{r4, r5, r6, pc}
 80017a2:	bf00      	nop
 80017a4:	40012000 	.word	0x40012000
 80017a8:	40020000 	.word	0x40020000
 80017ac:	2000159c 	.word	0x2000159c
 80017b0:	40026410 	.word	0x40026410

080017b4 <HAL_CAN_MspInit>:
* This function configures the hardware resources used in this example
* @param hcan: CAN handle pointer
* @retval None
*/
void HAL_CAN_MspInit(CAN_HandleTypeDef* hcan)
{
 80017b4:	b510      	push	{r4, lr}
 80017b6:	4604      	mov	r4, r0
 80017b8:	b088      	sub	sp, #32
  GPIO_InitTypeDef GPIO_InitStruct = {0};
 80017ba:	2214      	movs	r2, #20
 80017bc:	2100      	movs	r1, #0
 80017be:	a803      	add	r0, sp, #12
 80017c0:	f006 fb9f 	bl	8007f02 <memset>
  if(hcan->Instance==CAN1)
 80017c4:	6822      	ldr	r2, [r4, #0]
 80017c6:	4b18      	ldr	r3, [pc, #96]	; (8001828 <HAL_CAN_MspInit+0x74>)
 80017c8:	429a      	cmp	r2, r3
 80017ca:	d12b      	bne.n	8001824 <HAL_CAN_MspInit+0x70>
  {
  /* USER CODE BEGIN CAN1_MspInit 0 */

  /* USER CODE END CAN1_MspInit 0 */
    /* Peripheral clock enable */
    __HAL_RCC_CAN1_CLK_ENABLE();
 80017cc:	f503 33ea 	add.w	r3, r3, #119808	; 0x1d400
 80017d0:	2400      	movs	r4, #0
 80017d2:	9401      	str	r4, [sp, #4]
 80017d4:	6c1a      	ldr	r2, [r3, #64]	; 0x40
    GPIO_InitStruct.Pin = GPIO_PIN_11|GPIO_PIN_12;
    GPIO_InitStruct.Mode = GPIO_MODE_AF_PP;
    GPIO_InitStruct.Pull = GPIO_NOPULL;
    GPIO_InitStruct.Speed = GPIO_SPEED_FREQ_VERY_HIGH;
    GPIO_InitStruct.Alternate = GPIO_AF9_CAN1;
    HAL_GPIO_Init(GPIOA, &GPIO_InitStruct);
 80017d6:	4815      	ldr	r0, [pc, #84]	; (800182c <HAL_CAN_MspInit+0x78>)
    __HAL_RCC_CAN1_CLK_ENABLE();
 80017d8:	f042 7200 	orr.w	r2, r2, #33554432	; 0x2000000
 80017dc:	641a      	str	r2, [r3, #64]	; 0x40
 80017de:	6c1a      	ldr	r2, [r3, #64]	; 0x40
 80017e0:	f002 7200 	and.w	r2, r2, #33554432	; 0x2000000
 80017e4:	9201      	str	r2, [sp, #4]
 80017e6:	9a01      	ldr	r2, [sp, #4]
    __HAL_RCC_GPIOA_CLK_ENABLE();
 80017e8:	9402      	str	r4, [sp, #8]
 80017ea:	6b1a      	ldr	r2, [r3, #48]	; 0x30
 80017ec:	f042 0201 	orr.w	r2, r2, #1
 80017f0:	631a      	str	r2, [r3, #48]	; 0x30
 80017f2:	6b1b      	ldr	r3, [r3, #48]	; 0x30
 80017f4:	f003 0301 	and.w	r3, r3, #1
 80017f8:	9302      	str	r3, [sp, #8]
    GPIO_InitStruct.Mode = GPIO_MODE_AF_PP;
 80017fa:	f44f 52c0 	mov.w	r2, #6144	; 0x1800
    __HAL_RCC_GPIOA_CLK_ENABLE();
 80017fe:	9b02      	ldr	r3, [sp, #8]
    GPIO_InitStruct.Mode = GPIO_MODE_AF_PP;
 8001800:	2302      	movs	r3, #2
 8001802:	e9cd 2303 	strd	r2, r3, [sp, #12]
    GPIO_InitStruct.Alternate = GPIO_AF9_CAN1;
 8001806:	2103      	movs	r1, #3
 8001808:	2309      	movs	r3, #9
 800180a:	e9cd 1306 	strd	r1, r3, [sp, #24]
    HAL_GPIO_Init(GPIOA, &GPIO_InitStruct);
 800180e:	a903      	add	r1, sp, #12
 8001810:	f001 f862 	bl	80028d8 <HAL_GPIO_Init>

    /* CAN1 interrupt Init */
    HAL_NVIC_SetPriority(CAN1_RX0_IRQn, 0, 0);
 8001814:	2014      	movs	r0, #20
 8001816:	4622      	mov	r2, r4
 8001818:	4621      	mov	r1, r4
 800181a:	f000 fe6d 	bl	80024f8 <HAL_NVIC_SetPriority>
    HAL_NVIC_EnableIRQ(CAN1_RX0_IRQn);
 800181e:	2014      	movs	r0, #20
 8001820:	f000 fe9c 	bl	800255c <HAL_NVIC_EnableIRQ>
  /* USER CODE BEGIN CAN1_MspInit 1 */

  /* USER CODE END CAN1_MspInit 1 */
  }

}
 8001824:	b008      	add	sp, #32
 8001826:	bd10      	pop	{r4, pc}
 8001828:	40006400 	.word	0x40006400
 800182c:	40020000 	.word	0x40020000

08001830 <HAL_CRC_MspInit>:
* @param hcrc: CRC handle pointer
* @retval None
*/
void HAL_CRC_MspInit(CRC_HandleTypeDef* hcrc)
{
  if(hcrc->Instance==CRC)
 8001830:	6802      	ldr	r2, [r0, #0]
 8001832:	4b09      	ldr	r3, [pc, #36]	; (8001858 <HAL_CRC_MspInit+0x28>)
 8001834:	429a      	cmp	r2, r3
{
 8001836:	b082      	sub	sp, #8
  if(hcrc->Instance==CRC)
 8001838:	d10b      	bne.n	8001852 <HAL_CRC_MspInit+0x22>
  {
  /* USER CODE BEGIN CRC_MspInit 0 */

  /* USER CODE END CRC_MspInit 0 */
    /* Peripheral clock enable */
    __HAL_RCC_CRC_CLK_ENABLE();
 800183a:	2300      	movs	r3, #0
 800183c:	9301      	str	r3, [sp, #4]
 800183e:	4b07      	ldr	r3, [pc, #28]	; (800185c <HAL_CRC_MspInit+0x2c>)
 8001840:	6b1a      	ldr	r2, [r3, #48]	; 0x30
 8001842:	f442 5280 	orr.w	r2, r2, #4096	; 0x1000
 8001846:	631a      	str	r2, [r3, #48]	; 0x30
 8001848:	6b1b      	ldr	r3, [r3, #48]	; 0x30
 800184a:	f403 5380 	and.w	r3, r3, #4096	; 0x1000
 800184e:	9301      	str	r3, [sp, #4]
 8001850:	9b01      	ldr	r3, [sp, #4]
  /* USER CODE BEGIN CRC_MspInit 1 */

  /* USER CODE END CRC_MspInit 1 */
  }

}
 8001852:	b002      	add	sp, #8
 8001854:	4770      	bx	lr
 8001856:	bf00      	nop
 8001858:	40023000 	.word	0x40023000
 800185c:	40023800 	.word	0x40023800

08001860 <HAL_UART_MspInit>:
* This function configures the hardware resources used in this example
* @param huart: UART handle pointer
* @retval None
*/
void HAL_UART_MspInit(UART_HandleTypeDef* huart)
{
 8001860:	b5f0      	push	{r4, r5, r6, r7, lr}
  GPIO_InitTypeDef GPIO_InitStruct = {0};
 8001862:	2214      	movs	r2, #20
{
 8001864:	b08b      	sub	sp, #44	; 0x2c
 8001866:	4604      	mov	r4, r0
  GPIO_InitTypeDef GPIO_InitStruct = {0};
 8001868:	2100      	movs	r1, #0
 800186a:	eb0d 0002 	add.w	r0, sp, r2
 800186e:	f006 fb48 	bl	8007f02 <memset>
  if(huart->Instance==USART2)
 8001872:	6823      	ldr	r3, [r4, #0]
 8001874:	4a35      	ldr	r2, [pc, #212]	; (800194c <HAL_UART_MspInit+0xec>)
 8001876:	4293      	cmp	r3, r2
 8001878:	d12e      	bne.n	80018d8 <HAL_UART_MspInit+0x78>
  {
  /* USER CODE BEGIN USART2_MspInit 0 */

  /* USER CODE END USART2_MspInit 0 */
    /* Peripheral clock enable */
    __HAL_RCC_USART2_CLK_ENABLE();
 800187a:	4b35      	ldr	r3, [pc, #212]	; (8001950 <HAL_UART_MspInit+0xf0>)
    GPIO_InitStruct.Pin = USART_TX_Pin;
    GPIO_InitStruct.Mode = GPIO_MODE_AF_PP;
    GPIO_InitStruct.Pull = GPIO_NOPULL;
    GPIO_InitStruct.Speed = GPIO_SPEED_FREQ_VERY_HIGH;
    GPIO_InitStruct.Alternate = GPIO_AF7_USART2;
    HAL_GPIO_Init(USART_TX_GPIO_Port, &GPIO_InitStruct);
 800187c:	4835      	ldr	r0, [pc, #212]	; (8001954 <HAL_UART_MspInit+0xf4>)
    __HAL_RCC_USART2_CLK_ENABLE();
 800187e:	2100      	movs	r1, #0
 8001880:	9100      	str	r1, [sp, #0]
 8001882:	6c1a      	ldr	r2, [r3, #64]	; 0x40
 8001884:	f442 3200 	orr.w	r2, r2, #131072	; 0x20000
 8001888:	641a      	str	r2, [r3, #64]	; 0x40
 800188a:	6c1a      	ldr	r2, [r3, #64]	; 0x40
 800188c:	f402 3200 	and.w	r2, r2, #131072	; 0x20000
 8001890:	9200      	str	r2, [sp, #0]
 8001892:	9a00      	ldr	r2, [sp, #0]
    __HAL_RCC_GPIOA_CLK_ENABLE();
 8001894:	9101      	str	r1, [sp, #4]
 8001896:	6b1a      	ldr	r2, [r3, #48]	; 0x30
 8001898:	f042 0201 	orr.w	r2, r2, #1
 800189c:	631a      	str	r2, [r3, #48]	; 0x30
 800189e:	6b1b      	ldr	r3, [r3, #48]	; 0x30
 80018a0:	f003 0301 	and.w	r3, r3, #1
 80018a4:	9301      	str	r3, [sp, #4]
 80018a6:	9b01      	ldr	r3, [sp, #4]
    GPIO_InitStruct.Mode = GPIO_MODE_AF_PP;
 80018a8:	2602      	movs	r6, #2
 80018aa:	2304      	movs	r3, #4
    GPIO_InitStruct.Alternate = GPIO_AF7_USART2;
 80018ac:	2503      	movs	r5, #3
 80018ae:	2407      	movs	r4, #7
    HAL_GPIO_Init(USART_TX_GPIO_Port, &GPIO_InitStruct);
 80018b0:	a905      	add	r1, sp, #20
    GPIO_InitStruct.Mode = GPIO_MODE_AF_PP;
 80018b2:	e9cd 3605 	strd	r3, r6, [sp, #20]
    GPIO_InitStruct.Alternate = GPIO_AF7_USART2;
 80018b6:	e9cd 5408 	strd	r5, r4, [sp, #32]
    HAL_GPIO_Init(USART_TX_GPIO_Port, &GPIO_InitStruct);
 80018ba:	f001 f80d 	bl	80028d8 <HAL_GPIO_Init>

    GPIO_InitStruct.Pin = USART_RX_Pin;
 80018be:	2308      	movs	r3, #8
    GPIO_InitStruct.Mode = GPIO_MODE_AF_PP;
 80018c0:	e9cd 3605 	strd	r3, r6, [sp, #20]
    GPIO_InitStruct.Pull = GPIO_PULLUP;
 80018c4:	2301      	movs	r3, #1
    GPIO_InitStruct.Speed = GPIO_SPEED_FREQ_VERY_HIGH;
 80018c6:	e9cd 3507 	strd	r3, r5, [sp, #28]
    GPIO_InitStruct.Alternate = GPIO_AF7_USART2;
    HAL_GPIO_Init(USART_RX_GPIO_Port, &GPIO_InitStruct);
 80018ca:	4822      	ldr	r0, [pc, #136]	; (8001954 <HAL_UART_MspInit+0xf4>)
    GPIO_InitStruct.Alternate = GPIO_AF7_USART2;
 80018cc:	9409      	str	r4, [sp, #36]	; 0x24
    HAL_GPIO_Init(USART_RX_GPIO_Port, &GPIO_InitStruct);
 80018ce:	a905      	add	r1, sp, #20
    GPIO_InitStruct.Pin = GPIO_PIN_10;
    GPIO_InitStruct.Mode = GPIO_MODE_AF_PP;
    GPIO_InitStruct.Pull = GPIO_NOPULL;
    GPIO_InitStruct.Speed = GPIO_SPEED_FREQ_VERY_HIGH;
    GPIO_InitStruct.Alternate = GPIO_AF7_USART3;
    HAL_GPIO_Init(GPIOB, &GPIO_InitStruct);
 80018d0:	f001 f802 	bl	80028d8 <HAL_GPIO_Init>
  /* USER CODE BEGIN USART3_MspInit 1 */

  /* USER CODE END USART3_MspInit 1 */
  }

}
 80018d4:	b00b      	add	sp, #44	; 0x2c
 80018d6:	bdf0      	pop	{r4, r5, r6, r7, pc}
  else if(huart->Instance==USART3)
 80018d8:	4a1f      	ldr	r2, [pc, #124]	; (8001958 <HAL_UART_MspInit+0xf8>)
 80018da:	4293      	cmp	r3, r2
 80018dc:	d1fa      	bne.n	80018d4 <HAL_UART_MspInit+0x74>
    __HAL_RCC_USART3_CLK_ENABLE();
 80018de:	4b1c      	ldr	r3, [pc, #112]	; (8001950 <HAL_UART_MspInit+0xf0>)
    HAL_GPIO_Init(GPIOC, &GPIO_InitStruct);
 80018e0:	481e      	ldr	r0, [pc, #120]	; (800195c <HAL_UART_MspInit+0xfc>)
    __HAL_RCC_USART3_CLK_ENABLE();
 80018e2:	2400      	movs	r4, #0
 80018e4:	9402      	str	r4, [sp, #8]
 80018e6:	6c1a      	ldr	r2, [r3, #64]	; 0x40
 80018e8:	f442 2280 	orr.w	r2, r2, #262144	; 0x40000
 80018ec:	641a      	str	r2, [r3, #64]	; 0x40
 80018ee:	6c1a      	ldr	r2, [r3, #64]	; 0x40
 80018f0:	f402 2280 	and.w	r2, r2, #262144	; 0x40000
 80018f4:	9202      	str	r2, [sp, #8]
 80018f6:	9a02      	ldr	r2, [sp, #8]
    __HAL_RCC_GPIOC_CLK_ENABLE();
 80018f8:	9403      	str	r4, [sp, #12]
 80018fa:	6b1a      	ldr	r2, [r3, #48]	; 0x30
 80018fc:	f042 0204 	orr.w	r2, r2, #4
 8001900:	631a      	str	r2, [r3, #48]	; 0x30
 8001902:	6b1a      	ldr	r2, [r3, #48]	; 0x30
 8001904:	f002 0204 	and.w	r2, r2, #4
 8001908:	9203      	str	r2, [sp, #12]
 800190a:	9a03      	ldr	r2, [sp, #12]
    __HAL_RCC_GPIOB_CLK_ENABLE();
 800190c:	9404      	str	r4, [sp, #16]
 800190e:	6b1a      	ldr	r2, [r3, #48]	; 0x30
 8001910:	f042 0202 	orr.w	r2, r2, #2
 8001914:	631a      	str	r2, [r3, #48]	; 0x30
 8001916:	6b1b      	ldr	r3, [r3, #48]	; 0x30
 8001918:	f003 0302 	and.w	r3, r3, #2
 800191c:	9304      	str	r3, [sp, #16]
 800191e:	9b04      	ldr	r3, [sp, #16]
    GPIO_InitStruct.Mode = GPIO_MODE_AF_PP;
 8001920:	2702      	movs	r7, #2
 8001922:	2320      	movs	r3, #32
    GPIO_InitStruct.Alternate = GPIO_AF7_USART3;
 8001924:	2603      	movs	r6, #3
 8001926:	2507      	movs	r5, #7
    HAL_GPIO_Init(GPIOC, &GPIO_InitStruct);
 8001928:	a905      	add	r1, sp, #20
    GPIO_InitStruct.Mode = GPIO_MODE_AF_PP;
 800192a:	e9cd 3705 	strd	r3, r7, [sp, #20]
    GPIO_InitStruct.Alternate = GPIO_AF7_USART3;
 800192e:	e9cd 6508 	strd	r6, r5, [sp, #32]
    HAL_GPIO_Init(GPIOC, &GPIO_InitStruct);
 8001932:	f000 ffd1 	bl	80028d8 <HAL_GPIO_Init>
    GPIO_InitStruct.Pin = GPIO_PIN_10;
 8001936:	f44f 6380 	mov.w	r3, #1024	; 0x400
    GPIO_InitStruct.Mode = GPIO_MODE_AF_PP;
 800193a:	e9cd 3705 	strd	r3, r7, [sp, #20]
    GPIO_InitStruct.Speed = GPIO_SPEED_FREQ_VERY_HIGH;
 800193e:	e9cd 4607 	strd	r4, r6, [sp, #28]
    HAL_GPIO_Init(GPIOB, &GPIO_InitStruct);
 8001942:	4807      	ldr	r0, [pc, #28]	; (8001960 <HAL_UART_MspInit+0x100>)
    GPIO_InitStruct.Alternate = GPIO_AF7_USART3;
 8001944:	9509      	str	r5, [sp, #36]	; 0x24
    HAL_GPIO_Init(GPIOB, &GPIO_InitStruct);
 8001946:	a905      	add	r1, sp, #20
 8001948:	e7c2      	b.n	80018d0 <HAL_UART_MspInit+0x70>
 800194a:	bf00      	nop
 800194c:	40004400 	.word	0x40004400
 8001950:	40023800 	.word	0x40023800
 8001954:	40020000 	.word	0x40020000
 8001958:	40004800 	.word	0x40004800
 800195c:	40020800 	.word	0x40020800
 8001960:	40020400 	.word	0x40020400

08001964 <NMI_Handler>:
{
  /* USER CODE BEGIN NonMaskableInt_IRQn 0 */

  /* USER CODE END NonMaskableInt_IRQn 0 */
  /* USER CODE BEGIN NonMaskableInt_IRQn 1 */
   while (1)
 8001964:	e7fe      	b.n	8001964 <NMI_Handler>

08001966 <HardFault_Handler>:
void HardFault_Handler(void)
{
  /* USER CODE BEGIN HardFault_IRQn 0 */

  /* USER CODE END HardFault_IRQn 0 */
  while (1)
 8001966:	e7fe      	b.n	8001966 <HardFault_Handler>

08001968 <MemManage_Handler>:
void MemManage_Handler(void)
{
  /* USER CODE BEGIN MemoryManagement_IRQn 0 */

  /* USER CODE END MemoryManagement_IRQn 0 */
  while (1)
 8001968:	e7fe      	b.n	8001968 <MemManage_Handler>

0800196a <BusFault_Handler>:
void BusFault_Handler(void)
{
  /* USER CODE BEGIN BusFault_IRQn 0 */

  /* USER CODE END BusFault_IRQn 0 */
  while (1)
 800196a:	e7fe      	b.n	800196a <BusFault_Handler>

0800196c <UsageFault_Handler>:
void UsageFault_Handler(void)
{
  /* USER CODE BEGIN UsageFault_IRQn 0 */

  /* USER CODE END UsageFault_IRQn 0 */
  while (1)
 800196c:	e7fe      	b.n	800196c <UsageFault_Handler>

0800196e <SVC_Handler>:

  /* USER CODE END SVCall_IRQn 0 */
  /* USER CODE BEGIN SVCall_IRQn 1 */

  /* USER CODE END SVCall_IRQn 1 */
}
 800196e:	4770      	bx	lr

08001970 <DebugMon_Handler>:
 8001970:	4770      	bx	lr

08001972 <PendSV_Handler>:
 8001972:	4770      	bx	lr

08001974 <SysTick_Handler>:
void SysTick_Handler(void)
{
  /* USER CODE BEGIN SysTick_IRQn 0 */

  /* USER CODE END SysTick_IRQn 0 */
  HAL_IncTick();
 8001974:	f000 b89e 	b.w	8001ab4 <HAL_IncTick>

08001978 <CAN1_RX0_IRQHandler>:
void CAN1_RX0_IRQHandler(void)
{
  /* USER CODE BEGIN CAN1_RX0_IRQn 0 */

  /* USER CODE END CAN1_RX0_IRQn 0 */
  HAL_CAN_IRQHandler(&hcan1);
 8001978:	4801      	ldr	r0, [pc, #4]	; (8001980 <CAN1_RX0_IRQHandler+0x8>)
 800197a:	f000 bcad 	b.w	80022d8 <HAL_CAN_IRQHandler>
 800197e:	bf00      	nop
 8001980:	2000156c 	.word	0x2000156c

08001984 <DMA2_Stream0_IRQHandler>:
void DMA2_Stream0_IRQHandler(void)
{
  /* USER CODE BEGIN DMA2_Stream0_IRQn 0 */

  /* USER CODE END DMA2_Stream0_IRQn 0 */
  HAL_DMA_IRQHandler(&hdma_adc1);
 8001984:	4801      	ldr	r0, [pc, #4]	; (800198c <DMA2_Stream0_IRQHandler+0x8>)
 8001986:	f000 bee9 	b.w	800275c <HAL_DMA_IRQHandler>
 800198a:	bf00      	nop
 800198c:	2000159c 	.word	0x2000159c

08001990 <_sbrk>:
  const uint32_t stack_limit = (uint32_t)&_estack - (uint32_t)&_Min_Stack_Size;
  const uint8_t *max_heap = (uint8_t *)stack_limit;
  uint8_t *prev_heap_end;

  /* Initialize heap end at first call */
  if (NULL == __sbrk_heap_end)
 8001990:	4a0b      	ldr	r2, [pc, #44]	; (80019c0 <_sbrk+0x30>)
 8001992:	6811      	ldr	r1, [r2, #0]
{
 8001994:	b510      	push	{r4, lr}
 8001996:	4603      	mov	r3, r0
  if (NULL == __sbrk_heap_end)
 8001998:	b909      	cbnz	r1, 800199e <_sbrk+0xe>
  {
    __sbrk_heap_end = &_end;
 800199a:	490a      	ldr	r1, [pc, #40]	; (80019c4 <_sbrk+0x34>)
 800199c:	6011      	str	r1, [r2, #0]
  }

  /* Protect heap from growing into the reserved MSP stack */
  if (__sbrk_heap_end + incr > max_heap)
 800199e:	6810      	ldr	r0, [r2, #0]
 80019a0:	4909      	ldr	r1, [pc, #36]	; (80019c8 <_sbrk+0x38>)
 80019a2:	4c0a      	ldr	r4, [pc, #40]	; (80019cc <_sbrk+0x3c>)
 80019a4:	4403      	add	r3, r0
 80019a6:	1b09      	subs	r1, r1, r4
 80019a8:	428b      	cmp	r3, r1
 80019aa:	d906      	bls.n	80019ba <_sbrk+0x2a>
  {
    errno = ENOMEM;
 80019ac:	f006 fb0c 	bl	8007fc8 <__errno>
 80019b0:	230c      	movs	r3, #12
 80019b2:	6003      	str	r3, [r0, #0]
    return (void *)-1;
 80019b4:	f04f 30ff 	mov.w	r0, #4294967295

  prev_heap_end = __sbrk_heap_end;
  __sbrk_heap_end += incr;

  return (void *)prev_heap_end;
}
 80019b8:	bd10      	pop	{r4, pc}
  __sbrk_heap_end += incr;
 80019ba:	6013      	str	r3, [r2, #0]
  return (void *)prev_heap_end;
 80019bc:	e7fc      	b.n	80019b8 <_sbrk+0x28>
 80019be:	bf00      	nop
 80019c0:	20001694 	.word	0x20001694
 80019c4:	20001898 	.word	0x20001898
 80019c8:	20020000 	.word	0x20020000
 80019cc:	00000800 	.word	0x00000800

080019d0 <SystemInit>:
  */
void SystemInit(void)
{
  /* FPU settings ------------------------------------------------------------*/
  #if (__FPU_PRESENT == 1) && (__FPU_USED == 1)
    SCB->CPACR |= ((3UL << 10*2)|(3UL << 11*2));  /* set CP10 and CP11 Full Access */
 80019d0:	4a03      	ldr	r2, [pc, #12]	; (80019e0 <SystemInit+0x10>)
 80019d2:	f8d2 3088 	ldr.w	r3, [r2, #136]	; 0x88
 80019d6:	f443 0370 	orr.w	r3, r3, #15728640	; 0xf00000
 80019da:	f8c2 3088 	str.w	r3, [r2, #136]	; 0x88

  /* Configure the Vector Table location -------------------------------------*/
#if defined(USER_VECT_TAB_ADDRESS)
  SCB->VTOR = VECT_TAB_BASE_ADDRESS | VECT_TAB_OFFSET; /* Vector Table Relocation in Internal SRAM */
#endif /* USER_VECT_TAB_ADDRESS */
}
 80019de:	4770      	bx	lr
 80019e0:	e000ed00 	.word	0xe000ed00

080019e4 <Reset_Handler>:

    .section  .text.Reset_Handler
  .weak  Reset_Handler
  .type  Reset_Handler, %function
Reset_Handler:  
  ldr   sp, =_estack      /* set stack pointer */
 80019e4:	f8df d034 	ldr.w	sp, [pc, #52]	; 8001a1c <LoopFillZerobss+0xe>
  
/* Call the clock system initialization function.*/
  bl  SystemInit  
 80019e8:	f7ff fff2 	bl	80019d0 <SystemInit>

/* Copy the data segment initializers from flash to SRAM */  
  ldr r0, =_sdata
 80019ec:	480c      	ldr	r0, [pc, #48]	; (8001a20 <LoopFillZerobss+0x12>)
  ldr r1, =_edata
 80019ee:	490d      	ldr	r1, [pc, #52]	; (8001a24 <LoopFillZerobss+0x16>)
  ldr r2, =_sidata
 80019f0:	4a0d      	ldr	r2, [pc, #52]	; (8001a28 <LoopFillZerobss+0x1a>)
  movs r3, #0
 80019f2:	2300      	movs	r3, #0
  b LoopCopyDataInit
 80019f4:	e002      	b.n	80019fc <LoopCopyDataInit>

080019f6 <CopyDataInit>:

CopyDataInit:
  ldr r4, [r2, r3]
 80019f6:	58d4      	ldr	r4, [r2, r3]
  str r4, [r0, r3]
 80019f8:	50c4      	str	r4, [r0, r3]
  adds r3, r3, #4
 80019fa:	3304      	adds	r3, #4

080019fc <LoopCopyDataInit>:

LoopCopyDataInit:
  adds r4, r0, r3
 80019fc:	18c4      	adds	r4, r0, r3
  cmp r4, r1
 80019fe:	428c      	cmp	r4, r1
  bcc CopyDataInit
 8001a00:	d3f9      	bcc.n	80019f6 <CopyDataInit>
  
/* Zero fill the bss segment. */
  ldr r2, =_sbss
 8001a02:	4a0a      	ldr	r2, [pc, #40]	; (8001a2c <LoopFillZerobss+0x1e>)
  ldr r4, =_ebss
 8001a04:	4c0a      	ldr	r4, [pc, #40]	; (8001a30 <LoopFillZerobss+0x22>)
  movs r3, #0
 8001a06:	2300      	movs	r3, #0
  b LoopFillZerobss
 8001a08:	e001      	b.n	8001a0e <LoopFillZerobss>

08001a0a <FillZerobss>:

FillZerobss:
  str  r3, [r2]
 8001a0a:	6013      	str	r3, [r2, #0]
  adds r2, r2, #4
 8001a0c:	3204      	adds	r2, #4

08001a0e <LoopFillZerobss>:

LoopFillZerobss:
  cmp r2, r4
 8001a0e:	42a2      	cmp	r2, r4
  bcc FillZerobss
 8001a10:	d3fb      	bcc.n	8001a0a <FillZerobss>
  
/* Call static constructors */
    bl __libc_init_array
 8001a12:	f006 fadf 	bl	8007fd4 <__libc_init_array>
/* Call the application's entry point.*/
  bl  main
 8001a16:	f7ff fbf5 	bl	8001204 <main>
  bx  lr    
 8001a1a:	4770      	bx	lr
  ldr   sp, =_estack      /* set stack pointer */
 8001a1c:	20020000 	.word	0x20020000
  ldr r0, =_sdata
 8001a20:	20000000 	.word	0x20000000
  ldr r1, =_edata
 8001a24:	20000dd8 	.word	0x20000dd8
  ldr r2, =_sidata
 8001a28:	0803d5d4 	.word	0x0803d5d4
  ldr r2, =_sbss
 8001a2c:	20000dd8 	.word	0x20000dd8
  ldr r4, =_ebss
 8001a30:	20001898 	.word	0x20001898

08001a34 <ADC_IRQHandler>:
 * @retval None       
*/
    .section  .text.Default_Handler,"ax",%progbits
Default_Handler:
Infinite_Loop:
  b  Infinite_Loop
 8001a34:	e7fe      	b.n	8001a34 <ADC_IRQHandler>
	...

08001a38 <HAL_InitTick>:
  *       implementation  in user file.
  * @param TickPriority Tick interrupt priority.
  * @retval HAL status
  */
__weak HAL_StatusTypeDef HAL_InitTick(uint32_t TickPriority)
{
 8001a38:	b538      	push	{r3, r4, r5, lr}
  /* Configure the SysTick to have interrupt in 1ms time basis*/
  if (HAL_SYSTICK_Config(SystemCoreClock / (1000U / uwTickFreq)) > 0U)
 8001a3a:	4b0e      	ldr	r3, [pc, #56]	; (8001a74 <HAL_InitTick+0x3c>)
 8001a3c:	781a      	ldrb	r2, [r3, #0]
 8001a3e:	f44f 737a 	mov.w	r3, #1000	; 0x3e8
 8001a42:	fbb3 f3f2 	udiv	r3, r3, r2
 8001a46:	4a0c      	ldr	r2, [pc, #48]	; (8001a78 <HAL_InitTick+0x40>)
{
 8001a48:	4605      	mov	r5, r0
  if (HAL_SYSTICK_Config(SystemCoreClock / (1000U / uwTickFreq)) > 0U)
 8001a4a:	6810      	ldr	r0, [r2, #0]
 8001a4c:	fbb0 f0f3 	udiv	r0, r0, r3
 8001a50:	f000 fd92 	bl	8002578 <HAL_SYSTICK_Config>
 8001a54:	4604      	mov	r4, r0
 8001a56:	b958      	cbnz	r0, 8001a70 <HAL_InitTick+0x38>
  {
    return HAL_ERROR;
  }

  /* Configure the SysTick IRQ priority */
  if (TickPriority < (1UL << __NVIC_PRIO_BITS))
 8001a58:	2d0f      	cmp	r5, #15
 8001a5a:	d809      	bhi.n	8001a70 <HAL_InitTick+0x38>
  {
    HAL_NVIC_SetPriority(SysTick_IRQn, TickPriority, 0U);
 8001a5c:	4602      	mov	r2, r0
 8001a5e:	4629      	mov	r1, r5
 8001a60:	f04f 30ff 	mov.w	r0, #4294967295
 8001a64:	f000 fd48 	bl	80024f8 <HAL_NVIC_SetPriority>
    uwTickPrio = TickPriority;
 8001a68:	4b04      	ldr	r3, [pc, #16]	; (8001a7c <HAL_InitTick+0x44>)
 8001a6a:	4620      	mov	r0, r4
 8001a6c:	601d      	str	r5, [r3, #0]
    return HAL_ERROR;
  }

  /* Return function status */
  return HAL_OK;
}
 8001a6e:	bd38      	pop	{r3, r4, r5, pc}
    return HAL_ERROR;
 8001a70:	2001      	movs	r0, #1
 8001a72:	e7fc      	b.n	8001a6e <HAL_InitTick+0x36>
 8001a74:	20000004 	.word	0x20000004
 8001a78:	20000000 	.word	0x20000000
 8001a7c:	20000008 	.word	0x20000008

08001a80 <HAL_Init>:
{
 8001a80:	b508      	push	{r3, lr}
  __HAL_FLASH_INSTRUCTION_CACHE_ENABLE();
 8001a82:	4b0b      	ldr	r3, [pc, #44]	; (8001ab0 <HAL_Init+0x30>)
 8001a84:	681a      	ldr	r2, [r3, #0]
 8001a86:	f442 7200 	orr.w	r2, r2, #512	; 0x200
 8001a8a:	601a      	str	r2, [r3, #0]
  __HAL_FLASH_DATA_CACHE_ENABLE();
 8001a8c:	681a      	ldr	r2, [r3, #0]
 8001a8e:	f442 6280 	orr.w	r2, r2, #1024	; 0x400
 8001a92:	601a      	str	r2, [r3, #0]
  __HAL_FLASH_PREFETCH_BUFFER_ENABLE();
 8001a94:	681a      	ldr	r2, [r3, #0]
 8001a96:	f442 7280 	orr.w	r2, r2, #256	; 0x100
 8001a9a:	601a      	str	r2, [r3, #0]
  HAL_NVIC_SetPriorityGrouping(NVIC_PRIORITYGROUP_4);
 8001a9c:	2003      	movs	r0, #3
 8001a9e:	f000 fd19 	bl	80024d4 <HAL_NVIC_SetPriorityGrouping>
  HAL_InitTick(TICK_INT_PRIORITY);
 8001aa2:	2000      	movs	r0, #0
 8001aa4:	f7ff ffc8 	bl	8001a38 <HAL_InitTick>
  HAL_MspInit();
 8001aa8:	f7ff fe14 	bl	80016d4 <HAL_MspInit>
}
 8001aac:	2000      	movs	r0, #0
 8001aae:	bd08      	pop	{r3, pc}
 8001ab0:	40023c00 	.word	0x40023c00

08001ab4 <HAL_IncTick>:
  *      implementations in user file.
  * @retval None
  */
__weak void HAL_IncTick(void)
{
  uwTick += uwTickFreq;
 8001ab4:	4a03      	ldr	r2, [pc, #12]	; (8001ac4 <HAL_IncTick+0x10>)
 8001ab6:	4b04      	ldr	r3, [pc, #16]	; (8001ac8 <HAL_IncTick+0x14>)
 8001ab8:	6811      	ldr	r1, [r2, #0]
 8001aba:	781b      	ldrb	r3, [r3, #0]
 8001abc:	440b      	add	r3, r1
 8001abe:	6013      	str	r3, [r2, #0]
}
 8001ac0:	4770      	bx	lr
 8001ac2:	bf00      	nop
 8001ac4:	20001698 	.word	0x20001698
 8001ac8:	20000004 	.word	0x20000004

08001acc <HAL_GetTick>:
  *       implementations in user file.
  * @retval tick value
  */
__weak uint32_t HAL_GetTick(void)
{
  return uwTick;
 8001acc:	4b01      	ldr	r3, [pc, #4]	; (8001ad4 <HAL_GetTick+0x8>)
 8001ace:	6818      	ldr	r0, [r3, #0]
}
 8001ad0:	4770      	bx	lr
 8001ad2:	bf00      	nop
 8001ad4:	20001698 	.word	0x20001698

08001ad8 <HAL_Delay>:
  *       implementations in user file.
  * @param Delay specifies the delay time length, in milliseconds.
  * @retval None
  */
__weak void HAL_Delay(uint32_t Delay)
{
 8001ad8:	b538      	push	{r3, r4, r5, lr}
 8001ada:	4604      	mov	r4, r0
  uint32_t tickstart = HAL_GetTick();
 8001adc:	f7ff fff6 	bl	8001acc <HAL_GetTick>
  uint32_t wait = Delay;

  /* Add a freq to guarantee minimum wait */
  if (wait < HAL_MAX_DELAY)
 8001ae0:	1c63      	adds	r3, r4, #1
  {
    wait += (uint32_t)(uwTickFreq);
 8001ae2:	bf1c      	itt	ne
 8001ae4:	4b05      	ldrne	r3, [pc, #20]	; (8001afc <HAL_Delay+0x24>)
 8001ae6:	781b      	ldrbne	r3, [r3, #0]
  uint32_t tickstart = HAL_GetTick();
 8001ae8:	4605      	mov	r5, r0
    wait += (uint32_t)(uwTickFreq);
 8001aea:	bf18      	it	ne
 8001aec:	18e4      	addne	r4, r4, r3
  }

  while((HAL_GetTick() - tickstart) < wait)
 8001aee:	f7ff ffed 	bl	8001acc <HAL_GetTick>
 8001af2:	1b43      	subs	r3, r0, r5
 8001af4:	42a3      	cmp	r3, r4
 8001af6:	d3fa      	bcc.n	8001aee <HAL_Delay+0x16>
  {
  }
}
 8001af8:	bd38      	pop	{r3, r4, r5, pc}
 8001afa:	bf00      	nop
 8001afc:	20000004 	.word	0x20000004

08001b00 <HAL_GetHalVersion>:
  * @retval version : 0xXYZR (8bits for each decimal, R for RC)
  */
uint32_t HAL_GetHalVersion(void)
{
  return __STM32F4xx_HAL_VERSION;
}
 8001b00:	4800      	ldr	r0, [pc, #0]	; (8001b04 <HAL_GetHalVersion+0x4>)
 8001b02:	4770      	bx	lr
 8001b04:	01080200 	.word	0x01080200

08001b08 <HAL_GetREVID>:
  * @brief  Returns the device revision identifier.
  * @retval Device revision identifier
  */
uint32_t HAL_GetREVID(void)
{
  return((DBGMCU->IDCODE) >> 16U);
 8001b08:	4b01      	ldr	r3, [pc, #4]	; (8001b10 <HAL_GetREVID+0x8>)
 8001b0a:	6818      	ldr	r0, [r3, #0]
}
 8001b0c:	0c00      	lsrs	r0, r0, #16
 8001b0e:	4770      	bx	lr
 8001b10:	e0042000 	.word	0xe0042000

08001b14 <HAL_GetDEVID>:
  * @brief  Returns the device identifier.
  * @retval Device identifier
  */
uint32_t HAL_GetDEVID(void)
{
  return((DBGMCU->IDCODE) & IDCODE_DEVID_MASK);
 8001b14:	4b02      	ldr	r3, [pc, #8]	; (8001b20 <HAL_GetDEVID+0xc>)
 8001b16:	6818      	ldr	r0, [r3, #0]
}
 8001b18:	f3c0 000b 	ubfx	r0, r0, #0, #12
 8001b1c:	4770      	bx	lr
 8001b1e:	bf00      	nop
 8001b20:	e0042000 	.word	0xe0042000

08001b24 <HAL_ADC_Init>:
  * @param  hadc pointer to a ADC_HandleTypeDef structure that contains
  *         the configuration information for the specified ADC.
  * @retval HAL status
  */
HAL_StatusTypeDef HAL_ADC_Init(ADC_HandleTypeDef *hadc)
{
 8001b24:	b538      	push	{r3, r4, r5, lr}
  HAL_StatusTypeDef tmp_hal_status = HAL_OK;

  /* Check ADC handle */
  if (hadc == NULL)
 8001b26:	4604      	mov	r4, r0
 8001b28:	2800      	cmp	r0, #0
 8001b2a:	f000 809b 	beq.w	8001c64 <HAL_ADC_Init+0x140>
  if (hadc->Init.ExternalTrigConv != ADC_SOFTWARE_START)
  {
    assert_param(IS_ADC_EXT_TRIG_EDGE(hadc->Init.ExternalTrigConvEdge));
  }

  if (hadc->State == HAL_ADC_STATE_RESET)
 8001b2e:	6c05      	ldr	r5, [r0, #64]	; 0x40
 8001b30:	b925      	cbnz	r5, 8001b3c <HAL_ADC_Init+0x18>

    /* Init the low level hardware */
    hadc->MspInitCallback(hadc);
#else
    /* Init the low level hardware */
    HAL_ADC_MspInit(hadc);
 8001b32:	f7ff fded 	bl	8001710 <HAL_ADC_MspInit>
#endif /* USE_HAL_ADC_REGISTER_CALLBACKS */

    /* Initialize ADC error code */
    ADC_CLEAR_ERRORCODE(hadc);
 8001b36:	6465      	str	r5, [r4, #68]	; 0x44

    /* Allocate lock resource and initialize it */
    hadc->Lock = HAL_UNLOCKED;
 8001b38:	f884 503c 	strb.w	r5, [r4, #60]	; 0x3c
  }

  /* Configuration of ADC parameters if previous preliminary actions are      */
  /* correctly completed.                                                     */
  if (HAL_IS_BIT_CLR(hadc->State, HAL_ADC_STATE_ERROR_INTERNAL))
 8001b3c:	6c23      	ldr	r3, [r4, #64]	; 0x40
 8001b3e:	06db      	lsls	r3, r3, #27
 8001b40:	f100 808e 	bmi.w	8001c60 <HAL_ADC_Init+0x13c>
  {
    /* Set ADC state */
    ADC_STATE_CLR_SET(hadc->State,
 8001b44:	6c23      	ldr	r3, [r4, #64]	; 0x40
 8001b46:	f423 5388 	bic.w	r3, r3, #4352	; 0x1100
 8001b4a:	f023 0302 	bic.w	r3, r3, #2
 8001b4e:	f043 0302 	orr.w	r3, r3, #2
 8001b52:	6423      	str	r3, [r4, #64]	; 0x40
  /* (Depending on STM32F4 product, there may be up to 3 ADCs and 1 common */
  /* control register)                                                    */
  tmpADC_Common = ADC_COMMON_REGISTER(hadc);

  /* Set the ADC clock prescaler */
  tmpADC_Common->CCR &= ~(ADC_CCR_ADCPRE);
 8001b54:	4b44      	ldr	r3, [pc, #272]	; (8001c68 <HAL_ADC_Init+0x144>)
 8001b56:	685a      	ldr	r2, [r3, #4]
 8001b58:	f422 3240 	bic.w	r2, r2, #196608	; 0x30000
 8001b5c:	605a      	str	r2, [r3, #4]
  tmpADC_Common->CCR |=  hadc->Init.ClockPrescaler;
 8001b5e:	685a      	ldr	r2, [r3, #4]
 8001b60:	6861      	ldr	r1, [r4, #4]
 8001b62:	430a      	orrs	r2, r1
 8001b64:	605a      	str	r2, [r3, #4]

  /* Set ADC scan mode */
  hadc->Instance->CR1 &= ~(ADC_CR1_SCAN);
 8001b66:	6823      	ldr	r3, [r4, #0]
  hadc->Instance->CR1 |=  ADC_CR1_SCANCONV(hadc->Init.ScanConvMode);
 8001b68:	6921      	ldr	r1, [r4, #16]
  hadc->Instance->CR1 &= ~(ADC_CR1_SCAN);
 8001b6a:	685a      	ldr	r2, [r3, #4]
 8001b6c:	f422 7280 	bic.w	r2, r2, #256	; 0x100
 8001b70:	605a      	str	r2, [r3, #4]
  hadc->Instance->CR1 |=  ADC_CR1_SCANCONV(hadc->Init.ScanConvMode);
 8001b72:	685a      	ldr	r2, [r3, #4]
 8001b74:	ea42 2201 	orr.w	r2, r2, r1, lsl #8
 8001b78:	605a      	str	r2, [r3, #4]

  /* Set ADC resolution */
  hadc->Instance->CR1 &= ~(ADC_CR1_RES);
 8001b7a:	685a      	ldr	r2, [r3, #4]
  hadc->Instance->CR1 |=  hadc->Init.Resolution;
 8001b7c:	68a1      	ldr	r1, [r4, #8]
  hadc->Instance->CR1 &= ~(ADC_CR1_RES);
 8001b7e:	f022 7240 	bic.w	r2, r2, #50331648	; 0x3000000
 8001b82:	605a      	str	r2, [r3, #4]
  hadc->Instance->CR1 |=  hadc->Init.Resolution;
 8001b84:	685a      	ldr	r2, [r3, #4]
 8001b86:	430a      	orrs	r2, r1
 8001b88:	605a      	str	r2, [r3, #4]

  /* Set ADC data alignment */
  hadc->Instance->CR2 &= ~(ADC_CR2_ALIGN);
 8001b8a:	689a      	ldr	r2, [r3, #8]
  hadc->Instance->CR2 |= hadc->Init.DataAlign;
 8001b8c:	68e1      	ldr	r1, [r4, #12]
  hadc->Instance->CR2 &= ~(ADC_CR2_ALIGN);
 8001b8e:	f422 6200 	bic.w	r2, r2, #2048	; 0x800
 8001b92:	609a      	str	r2, [r3, #8]
  hadc->Instance->CR2 |= hadc->Init.DataAlign;
 8001b94:	689a      	ldr	r2, [r3, #8]
 8001b96:	430a      	orrs	r2, r1
 8001b98:	609a      	str	r2, [r3, #8]
  /* Enable external trigger if trigger selection is different of software  */
  /* start.                                                                 */
  /* Note: This configuration keeps the hardware feature of parameter       */
  /*       ExternalTrigConvEdge "trigger edge none" equivalent to           */
  /*       software start.                                                  */
  if (hadc->Init.ExternalTrigConv != ADC_SOFTWARE_START)
 8001b9a:	4934      	ldr	r1, [pc, #208]	; (8001c6c <HAL_ADC_Init+0x148>)
 8001b9c:	6aa2      	ldr	r2, [r4, #40]	; 0x28
 8001b9e:	428a      	cmp	r2, r1
 8001ba0:	d052      	beq.n	8001c48 <HAL_ADC_Init+0x124>
  {
    /* Select external trigger to start conversion */
    hadc->Instance->CR2 &= ~(ADC_CR2_EXTSEL);
 8001ba2:	6899      	ldr	r1, [r3, #8]
 8001ba4:	f021 6170 	bic.w	r1, r1, #251658240	; 0xf000000
 8001ba8:	6099      	str	r1, [r3, #8]
    hadc->Instance->CR2 |= hadc->Init.ExternalTrigConv;
 8001baa:	6899      	ldr	r1, [r3, #8]
 8001bac:	430a      	orrs	r2, r1
 8001bae:	609a      	str	r2, [r3, #8]

    /* Select external trigger polarity */
    hadc->Instance->CR2 &= ~(ADC_CR2_EXTEN);
 8001bb0:	689a      	ldr	r2, [r3, #8]
    hadc->Instance->CR2 |= hadc->Init.ExternalTrigConvEdge;
 8001bb2:	6ae1      	ldr	r1, [r4, #44]	; 0x2c
    hadc->Instance->CR2 &= ~(ADC_CR2_EXTEN);
 8001bb4:	f022 5240 	bic.w	r2, r2, #805306368	; 0x30000000
 8001bb8:	609a      	str	r2, [r3, #8]
    hadc->Instance->CR2 |= hadc->Init.ExternalTrigConvEdge;
 8001bba:	689a      	ldr	r2, [r3, #8]
 8001bbc:	430a      	orrs	r2, r1
  }
  else
  {
    /* Reset the external trigger */
    hadc->Instance->CR2 &= ~(ADC_CR2_EXTSEL);
    hadc->Instance->CR2 &= ~(ADC_CR2_EXTEN);
 8001bbe:	609a      	str	r2, [r3, #8]
  }

  /* Enable or disable ADC continuous conversion mode */
  hadc->Instance->CR2 &= ~(ADC_CR2_CONT);
 8001bc0:	689a      	ldr	r2, [r3, #8]
 8001bc2:	f022 0202 	bic.w	r2, r2, #2
 8001bc6:	609a      	str	r2, [r3, #8]
  hadc->Instance->CR2 |= ADC_CR2_CONTINUOUS((uint32_t)hadc->Init.ContinuousConvMode);
 8001bc8:	689a      	ldr	r2, [r3, #8]
 8001bca:	7e21      	ldrb	r1, [r4, #24]
 8001bcc:	ea42 0241 	orr.w	r2, r2, r1, lsl #1
 8001bd0:	609a      	str	r2, [r3, #8]

  if (hadc->Init.DiscontinuousConvMode != DISABLE)
 8001bd2:	f894 2020 	ldrb.w	r2, [r4, #32]
 8001bd6:	2a00      	cmp	r2, #0
 8001bd8:	d03e      	beq.n	8001c58 <HAL_ADC_Init+0x134>
  {
    assert_param(IS_ADC_REGULAR_DISC_NUMBER(hadc->Init.NbrOfDiscConversion));

    /* Enable the selected ADC regular discontinuous mode */
    hadc->Instance->CR1 |= (uint32_t)ADC_CR1_DISCEN;
 8001bda:	685a      	ldr	r2, [r3, #4]

    /* Set the number of channels to be converted in discontinuous mode */
    hadc->Instance->CR1 &= ~(ADC_CR1_DISCNUM);
    hadc->Instance->CR1 |=  ADC_CR1_DISCONTINUOUS(hadc->Init.NbrOfDiscConversion);
 8001bdc:	6a61      	ldr	r1, [r4, #36]	; 0x24
    hadc->Instance->CR1 |= (uint32_t)ADC_CR1_DISCEN;
 8001bde:	f442 6200 	orr.w	r2, r2, #2048	; 0x800
 8001be2:	605a      	str	r2, [r3, #4]
    hadc->Instance->CR1 &= ~(ADC_CR1_DISCNUM);
 8001be4:	685a      	ldr	r2, [r3, #4]
 8001be6:	f422 4260 	bic.w	r2, r2, #57344	; 0xe000
 8001bea:	605a      	str	r2, [r3, #4]
    hadc->Instance->CR1 |=  ADC_CR1_DISCONTINUOUS(hadc->Init.NbrOfDiscConversion);
 8001bec:	685a      	ldr	r2, [r3, #4]
 8001bee:	3901      	subs	r1, #1
 8001bf0:	ea42 3241 	orr.w	r2, r2, r1, lsl #13
  }
  else
  {
    /* Disable the selected ADC regular discontinuous mode */
    hadc->Instance->CR1 &= ~(ADC_CR1_DISCEN);
 8001bf4:	605a      	str	r2, [r3, #4]
  }

  /* Set ADC number of conversion */
  hadc->Instance->SQR1 &= ~(ADC_SQR1_L);
 8001bf6:	6ada      	ldr	r2, [r3, #44]	; 0x2c
  hadc->Instance->SQR1 |=  ADC_SQR1(hadc->Init.NbrOfConversion);
 8001bf8:	69e1      	ldr	r1, [r4, #28]
  hadc->Instance->SQR1 &= ~(ADC_SQR1_L);
 8001bfa:	f422 0270 	bic.w	r2, r2, #15728640	; 0xf00000
 8001bfe:	62da      	str	r2, [r3, #44]	; 0x2c
  hadc->Instance->SQR1 |=  ADC_SQR1(hadc->Init.NbrOfConversion);
 8001c00:	6ada      	ldr	r2, [r3, #44]	; 0x2c
 8001c02:	3901      	subs	r1, #1
 8001c04:	ea42 5201 	orr.w	r2, r2, r1, lsl #20
 8001c08:	62da      	str	r2, [r3, #44]	; 0x2c

  /* Enable or disable ADC DMA continuous request */
  hadc->Instance->CR2 &= ~(ADC_CR2_DDS);
 8001c0a:	689a      	ldr	r2, [r3, #8]
 8001c0c:	f422 7200 	bic.w	r2, r2, #512	; 0x200
 8001c10:	609a      	str	r2, [r3, #8]
  hadc->Instance->CR2 |= ADC_CR2_DMAContReq((uint32_t)hadc->Init.DMAContinuousRequests);
 8001c12:	689a      	ldr	r2, [r3, #8]
 8001c14:	f894 1030 	ldrb.w	r1, [r4, #48]	; 0x30
 8001c18:	ea42 2241 	orr.w	r2, r2, r1, lsl #9
 8001c1c:	609a      	str	r2, [r3, #8]

  /* Enable or disable ADC end of conversion selection */
  hadc->Instance->CR2 &= ~(ADC_CR2_EOCS);
 8001c1e:	689a      	ldr	r2, [r3, #8]
  hadc->Instance->CR2 |= ADC_CR2_EOCSelection(hadc->Init.EOCSelection);
 8001c20:	6961      	ldr	r1, [r4, #20]
  hadc->Instance->CR2 &= ~(ADC_CR2_EOCS);
 8001c22:	f422 6280 	bic.w	r2, r2, #1024	; 0x400
 8001c26:	609a      	str	r2, [r3, #8]
  hadc->Instance->CR2 |= ADC_CR2_EOCSelection(hadc->Init.EOCSelection);
 8001c28:	689a      	ldr	r2, [r3, #8]
    ADC_CLEAR_ERRORCODE(hadc);
 8001c2a:	2000      	movs	r0, #0
  hadc->Instance->CR2 |= ADC_CR2_EOCSelection(hadc->Init.EOCSelection);
 8001c2c:	ea42 2281 	orr.w	r2, r2, r1, lsl #10
 8001c30:	609a      	str	r2, [r3, #8]
    ADC_CLEAR_ERRORCODE(hadc);
 8001c32:	6460      	str	r0, [r4, #68]	; 0x44
    ADC_STATE_CLR_SET(hadc->State,
 8001c34:	6c23      	ldr	r3, [r4, #64]	; 0x40
 8001c36:	f023 0303 	bic.w	r3, r3, #3
 8001c3a:	f043 0301 	orr.w	r3, r3, #1
 8001c3e:	6423      	str	r3, [r4, #64]	; 0x40
  __HAL_UNLOCK(hadc);
 8001c40:	2300      	movs	r3, #0
 8001c42:	f884 303c 	strb.w	r3, [r4, #60]	; 0x3c
}
 8001c46:	bd38      	pop	{r3, r4, r5, pc}
    hadc->Instance->CR2 &= ~(ADC_CR2_EXTSEL);
 8001c48:	689a      	ldr	r2, [r3, #8]
 8001c4a:	f022 6270 	bic.w	r2, r2, #251658240	; 0xf000000
 8001c4e:	609a      	str	r2, [r3, #8]
    hadc->Instance->CR2 &= ~(ADC_CR2_EXTEN);
 8001c50:	689a      	ldr	r2, [r3, #8]
 8001c52:	f022 5240 	bic.w	r2, r2, #805306368	; 0x30000000
 8001c56:	e7b2      	b.n	8001bbe <HAL_ADC_Init+0x9a>
    hadc->Instance->CR1 &= ~(ADC_CR1_DISCEN);
 8001c58:	685a      	ldr	r2, [r3, #4]
 8001c5a:	f422 6200 	bic.w	r2, r2, #2048	; 0x800
 8001c5e:	e7c9      	b.n	8001bf4 <HAL_ADC_Init+0xd0>
    tmp_hal_status = HAL_ERROR;
 8001c60:	2001      	movs	r0, #1
 8001c62:	e7ed      	b.n	8001c40 <HAL_ADC_Init+0x11c>
    return HAL_ERROR;
 8001c64:	2001      	movs	r0, #1
 8001c66:	e7ee      	b.n	8001c46 <HAL_ADC_Init+0x122>
 8001c68:	40012300 	.word	0x40012300
 8001c6c:	0f000001 	.word	0x0f000001

08001c70 <HAL_ADC_PollForConversion>:
  if (HAL_IS_BIT_SET(hadc->Instance->CR2, ADC_CR2_EOCS) &&
 8001c70:	6803      	ldr	r3, [r0, #0]
 8001c72:	689a      	ldr	r2, [r3, #8]
 8001c74:	0552      	lsls	r2, r2, #21
{
 8001c76:	b570      	push	{r4, r5, r6, lr}
 8001c78:	4604      	mov	r4, r0
 8001c7a:	460d      	mov	r5, r1
  if (HAL_IS_BIT_SET(hadc->Instance->CR2, ADC_CR2_EOCS) &&
 8001c7c:	d50b      	bpl.n	8001c96 <HAL_ADC_PollForConversion+0x26>
      HAL_IS_BIT_SET(hadc->Instance->CR2, ADC_CR2_DMA))
 8001c7e:	689b      	ldr	r3, [r3, #8]
  if (HAL_IS_BIT_SET(hadc->Instance->CR2, ADC_CR2_EOCS) &&
 8001c80:	05de      	lsls	r6, r3, #23
 8001c82:	d508      	bpl.n	8001c96 <HAL_ADC_PollForConversion+0x26>
    SET_BIT(hadc->State, HAL_ADC_STATE_ERROR_CONFIG);
 8001c84:	6c03      	ldr	r3, [r0, #64]	; 0x40
 8001c86:	f043 0320 	orr.w	r3, r3, #32
 8001c8a:	6403      	str	r3, [r0, #64]	; 0x40
    __HAL_UNLOCK(hadc);
 8001c8c:	2300      	movs	r3, #0
 8001c8e:	f880 303c 	strb.w	r3, [r0, #60]	; 0x3c
    return HAL_ERROR;
 8001c92:	2001      	movs	r0, #1
}
 8001c94:	bd70      	pop	{r4, r5, r6, pc}
  tickstart = HAL_GetTick();
 8001c96:	f7ff ff19 	bl	8001acc <HAL_GetTick>
 8001c9a:	4606      	mov	r6, r0
  while (!(__HAL_ADC_GET_FLAG(hadc, ADC_FLAG_EOC)))
 8001c9c:	6823      	ldr	r3, [r4, #0]
 8001c9e:	681a      	ldr	r2, [r3, #0]
 8001ca0:	0791      	lsls	r1, r2, #30
 8001ca2:	d50c      	bpl.n	8001cbe <HAL_ADC_PollForConversion+0x4e>
  __HAL_ADC_CLEAR_FLAG(hadc, ADC_FLAG_STRT | ADC_FLAG_EOC);
 8001ca4:	f06f 0212 	mvn.w	r2, #18
 8001ca8:	601a      	str	r2, [r3, #0]
  SET_BIT(hadc->State, HAL_ADC_STATE_REG_EOC);
 8001caa:	6c22      	ldr	r2, [r4, #64]	; 0x40
 8001cac:	f442 7200 	orr.w	r2, r2, #512	; 0x200
 8001cb0:	6422      	str	r2, [r4, #64]	; 0x40
  if (ADC_IS_SOFTWARE_START_REGULAR(hadc)                   &&
 8001cb2:	689a      	ldr	r2, [r3, #8]
 8001cb4:	f012 5f40 	tst.w	r2, #805306368	; 0x30000000
 8001cb8:	d017      	beq.n	8001cea <HAL_ADC_PollForConversion+0x7a>
  return HAL_OK;
 8001cba:	2000      	movs	r0, #0
 8001cbc:	e7ea      	b.n	8001c94 <HAL_ADC_PollForConversion+0x24>
    if (Timeout != HAL_MAX_DELAY)
 8001cbe:	1c68      	adds	r0, r5, #1
 8001cc0:	d0ed      	beq.n	8001c9e <HAL_ADC_PollForConversion+0x2e>
      if ((Timeout == 0U) || ((HAL_GetTick() - tickstart) > Timeout))
 8001cc2:	b965      	cbnz	r5, 8001cde <HAL_ADC_PollForConversion+0x6e>
        if (!(__HAL_ADC_GET_FLAG(hadc, ADC_FLAG_EOC)))
 8001cc4:	6823      	ldr	r3, [r4, #0]
 8001cc6:	681b      	ldr	r3, [r3, #0]
 8001cc8:	f013 0302 	ands.w	r3, r3, #2
 8001ccc:	d1e6      	bne.n	8001c9c <HAL_ADC_PollForConversion+0x2c>
          SET_BIT(hadc->State, HAL_ADC_STATE_TIMEOUT);
 8001cce:	6c22      	ldr	r2, [r4, #64]	; 0x40
          __HAL_UNLOCK(hadc);
 8001cd0:	f884 303c 	strb.w	r3, [r4, #60]	; 0x3c
          SET_BIT(hadc->State, HAL_ADC_STATE_TIMEOUT);
 8001cd4:	f042 0204 	orr.w	r2, r2, #4
 8001cd8:	6422      	str	r2, [r4, #64]	; 0x40
          return HAL_TIMEOUT;
 8001cda:	2003      	movs	r0, #3
 8001cdc:	e7da      	b.n	8001c94 <HAL_ADC_PollForConversion+0x24>
      if ((Timeout == 0U) || ((HAL_GetTick() - tickstart) > Timeout))
 8001cde:	f7ff fef5 	bl	8001acc <HAL_GetTick>
 8001ce2:	1b80      	subs	r0, r0, r6
 8001ce4:	42a8      	cmp	r0, r5
 8001ce6:	d8ed      	bhi.n	8001cc4 <HAL_ADC_PollForConversion+0x54>
 8001ce8:	e7d8      	b.n	8001c9c <HAL_ADC_PollForConversion+0x2c>
      (hadc->Init.ContinuousConvMode == DISABLE)            &&
 8001cea:	7e20      	ldrb	r0, [r4, #24]
  if (ADC_IS_SOFTWARE_START_REGULAR(hadc)                   &&
 8001cec:	2800      	cmp	r0, #0
 8001cee:	d1e4      	bne.n	8001cba <HAL_ADC_PollForConversion+0x4a>
      (HAL_IS_BIT_CLR(hadc->Instance->SQR1, ADC_SQR1_L) ||
 8001cf0:	6ada      	ldr	r2, [r3, #44]	; 0x2c
      (hadc->Init.ContinuousConvMode == DISABLE)            &&
 8001cf2:	f412 0f70 	tst.w	r2, #15728640	; 0xf00000
 8001cf6:	d002      	beq.n	8001cfe <HAL_ADC_PollForConversion+0x8e>
       HAL_IS_BIT_CLR(hadc->Instance->CR2, ADC_CR2_EOCS)))
 8001cf8:	689b      	ldr	r3, [r3, #8]
      (HAL_IS_BIT_CLR(hadc->Instance->SQR1, ADC_SQR1_L) ||
 8001cfa:	055a      	lsls	r2, r3, #21
 8001cfc:	d4dd      	bmi.n	8001cba <HAL_ADC_PollForConversion+0x4a>
    CLEAR_BIT(hadc->State, HAL_ADC_STATE_REG_BUSY);
 8001cfe:	6c23      	ldr	r3, [r4, #64]	; 0x40
 8001d00:	f423 7380 	bic.w	r3, r3, #256	; 0x100
 8001d04:	6423      	str	r3, [r4, #64]	; 0x40
    if (HAL_IS_BIT_CLR(hadc->State, HAL_ADC_STATE_INJ_BUSY))
 8001d06:	6c23      	ldr	r3, [r4, #64]	; 0x40
 8001d08:	04db      	lsls	r3, r3, #19
 8001d0a:	d4d6      	bmi.n	8001cba <HAL_ADC_PollForConversion+0x4a>
      SET_BIT(hadc->State, HAL_ADC_STATE_READY);
 8001d0c:	6c23      	ldr	r3, [r4, #64]	; 0x40
 8001d0e:	f043 0301 	orr.w	r3, r3, #1
 8001d12:	6423      	str	r3, [r4, #64]	; 0x40
 8001d14:	e7be      	b.n	8001c94 <HAL_ADC_PollForConversion+0x24>
	...

08001d18 <HAL_ADC_Start_DMA>:
{
 8001d18:	b573      	push	{r0, r1, r4, r5, r6, lr}
 8001d1a:	4613      	mov	r3, r2
  __IO uint32_t counter = 0U;
 8001d1c:	2200      	movs	r2, #0
 8001d1e:	9201      	str	r2, [sp, #4]
  __HAL_LOCK(hadc);
 8001d20:	f890 203c 	ldrb.w	r2, [r0, #60]	; 0x3c
 8001d24:	2a01      	cmp	r2, #1
{
 8001d26:	4605      	mov	r5, r0
  __HAL_LOCK(hadc);
 8001d28:	f000 8092 	beq.w	8001e50 <HAL_ADC_Start_DMA+0x138>
 8001d2c:	2201      	movs	r2, #1
  if ((hadc->Instance->CR2 & ADC_CR2_ADON) != ADC_CR2_ADON)
 8001d2e:	6806      	ldr	r6, [r0, #0]
  __HAL_LOCK(hadc);
 8001d30:	f880 203c 	strb.w	r2, [r0, #60]	; 0x3c
  if ((hadc->Instance->CR2 & ADC_CR2_ADON) != ADC_CR2_ADON)
 8001d34:	68b2      	ldr	r2, [r6, #8]
 8001d36:	07d4      	lsls	r4, r2, #31
 8001d38:	d554      	bpl.n	8001de4 <HAL_ADC_Start_DMA+0xcc>
  if ((hadc->Instance->CR2 & ADC_CR2_DMA) == ADC_CR2_DMA)
 8001d3a:	68b2      	ldr	r2, [r6, #8]
 8001d3c:	05d0      	lsls	r0, r2, #23
 8001d3e:	d464      	bmi.n	8001e0a <HAL_ADC_Start_DMA+0xf2>
  if (HAL_IS_BIT_SET(hadc->Instance->CR2, ADC_CR2_ADON))
 8001d40:	68b4      	ldr	r4, [r6, #8]
 8001d42:	f014 0401 	ands.w	r4, r4, #1
 8001d46:	d079      	beq.n	8001e3c <HAL_ADC_Start_DMA+0x124>
    ADC_STATE_CLR_SET(hadc->State,
 8001d48:	6c28      	ldr	r0, [r5, #64]	; 0x40
 8001d4a:	f420 60e0 	bic.w	r0, r0, #1792	; 0x700
 8001d4e:	f020 0001 	bic.w	r0, r0, #1
 8001d52:	f440 7080 	orr.w	r0, r0, #256	; 0x100
 8001d56:	6428      	str	r0, [r5, #64]	; 0x40
    if (READ_BIT(hadc->Instance->CR1, ADC_CR1_JAUTO) != RESET)
 8001d58:	6872      	ldr	r2, [r6, #4]
 8001d5a:	0552      	lsls	r2, r2, #21
      ADC_STATE_CLR_SET(hadc->State, HAL_ADC_STATE_INJ_EOC, HAL_ADC_STATE_INJ_BUSY);
 8001d5c:	bf41      	itttt	mi
 8001d5e:	6c28      	ldrmi	r0, [r5, #64]	; 0x40
 8001d60:	f420 5040 	bicmi.w	r0, r0, #12288	; 0x3000
 8001d64:	f440 5080 	orrmi.w	r0, r0, #4096	; 0x1000
 8001d68:	6428      	strmi	r0, [r5, #64]	; 0x40
    if (HAL_IS_BIT_SET(hadc->State, HAL_ADC_STATE_INJ_BUSY))
 8001d6a:	6c2a      	ldr	r2, [r5, #64]	; 0x40
    hadc->DMA_Handle->XferCpltCallback = ADC_DMAConvCplt;
 8001d6c:	6ba8      	ldr	r0, [r5, #56]	; 0x38
    if (HAL_IS_BIT_SET(hadc->State, HAL_ADC_STATE_INJ_BUSY))
 8001d6e:	f412 5280 	ands.w	r2, r2, #4096	; 0x1000
      CLEAR_BIT(hadc->ErrorCode, (HAL_ADC_ERROR_OVR | HAL_ADC_ERROR_DMA));
 8001d72:	bf1c      	itt	ne
 8001d74:	6c6a      	ldrne	r2, [r5, #68]	; 0x44
 8001d76:	f022 0206 	bicne.w	r2, r2, #6
      ADC_CLEAR_ERRORCODE(hadc);
 8001d7a:	646a      	str	r2, [r5, #68]	; 0x44
    __HAL_UNLOCK(hadc);
 8001d7c:	2400      	movs	r4, #0
    hadc->DMA_Handle->XferCpltCallback = ADC_DMAConvCplt;
 8001d7e:	4a35      	ldr	r2, [pc, #212]	; (8001e54 <HAL_ADC_Start_DMA+0x13c>)
    __HAL_UNLOCK(hadc);
 8001d80:	f885 403c 	strb.w	r4, [r5, #60]	; 0x3c
    hadc->DMA_Handle->XferCpltCallback = ADC_DMAConvCplt;
 8001d84:	63c2      	str	r2, [r0, #60]	; 0x3c
    hadc->DMA_Handle->XferHalfCpltCallback = ADC_DMAHalfConvCplt;
 8001d86:	4a34      	ldr	r2, [pc, #208]	; (8001e58 <HAL_ADC_Start_DMA+0x140>)
 8001d88:	6402      	str	r2, [r0, #64]	; 0x40
    hadc->DMA_Handle->XferErrorCallback = ADC_DMAError;
 8001d8a:	4a34      	ldr	r2, [pc, #208]	; (8001e5c <HAL_ADC_Start_DMA+0x144>)
 8001d8c:	64c2      	str	r2, [r0, #76]	; 0x4c
    __HAL_ADC_CLEAR_FLAG(hadc, ADC_FLAG_EOC | ADC_FLAG_OVR);
 8001d8e:	f06f 0222 	mvn.w	r2, #34	; 0x22
 8001d92:	6032      	str	r2, [r6, #0]
    __HAL_ADC_ENABLE_IT(hadc, ADC_IT_OVR);
 8001d94:	6872      	ldr	r2, [r6, #4]
 8001d96:	f042 6280 	orr.w	r2, r2, #67108864	; 0x4000000
 8001d9a:	6072      	str	r2, [r6, #4]
    hadc->Instance->CR2 |= ADC_CR2_DMA;
 8001d9c:	68b2      	ldr	r2, [r6, #8]
 8001d9e:	f442 7280 	orr.w	r2, r2, #256	; 0x100
 8001da2:	60b2      	str	r2, [r6, #8]
    HAL_DMA_Start_IT(hadc->DMA_Handle, (uint32_t)&hadc->Instance->DR, (uint32_t)pData, Length);
 8001da4:	460a      	mov	r2, r1
 8001da6:	f106 014c 	add.w	r1, r6, #76	; 0x4c
 8001daa:	f000 fc9d 	bl	80026e8 <HAL_DMA_Start_IT>
    if (HAL_IS_BIT_CLR(tmpADC_Common->CCR, ADC_CCR_MULTI))
 8001dae:	492c      	ldr	r1, [pc, #176]	; (8001e60 <HAL_ADC_Start_DMA+0x148>)
 8001db0:	682b      	ldr	r3, [r5, #0]
 8001db2:	684a      	ldr	r2, [r1, #4]
 8001db4:	482b      	ldr	r0, [pc, #172]	; (8001e64 <HAL_ADC_Start_DMA+0x14c>)
 8001db6:	f012 021f 	ands.w	r2, r2, #31
 8001dba:	d132      	bne.n	8001e22 <HAL_ADC_Start_DMA+0x10a>
      if ((hadc->Instance == ADC1) || ((hadc->Instance == ADC2) && ((ADC->CCR & ADC_CCR_MULTI_Msk) < ADC_CCR_MULTI_0)) \
 8001dbc:	4283      	cmp	r3, r0
 8001dbe:	d007      	beq.n	8001dd0 <HAL_ADC_Start_DMA+0xb8>
 8001dc0:	f500 7080 	add.w	r0, r0, #256	; 0x100
 8001dc4:	4283      	cmp	r3, r0
 8001dc6:	d125      	bne.n	8001e14 <HAL_ADC_Start_DMA+0xfc>
 8001dc8:	6849      	ldr	r1, [r1, #4]
 8001dca:	f011 0f1f 	tst.w	r1, #31
          || ((hadc->Instance == ADC3) && ((ADC->CCR & ADC_CCR_MULTI_Msk) < ADC_CCR_MULTI_4)))
 8001dce:	d132      	bne.n	8001e36 <HAL_ADC_Start_DMA+0x11e>
        if ((hadc->Instance->CR2 & ADC_CR2_EXTEN) == RESET)
 8001dd0:	6898      	ldr	r0, [r3, #8]
 8001dd2:	f010 5040 	ands.w	r0, r0, #805306368	; 0x30000000
 8001dd6:	d103      	bne.n	8001de0 <HAL_ADC_Start_DMA+0xc8>
          hadc->Instance->CR2 |= (uint32_t)ADC_CR2_SWSTART;
 8001dd8:	689a      	ldr	r2, [r3, #8]
 8001dda:	f042 4280 	orr.w	r2, r2, #1073741824	; 0x40000000
 8001dde:	609a      	str	r2, [r3, #8]
  return HAL_OK;
 8001de0:	2200      	movs	r2, #0
 8001de2:	e028      	b.n	8001e36 <HAL_ADC_Start_DMA+0x11e>
    __HAL_ADC_ENABLE(hadc);
 8001de4:	68b2      	ldr	r2, [r6, #8]
 8001de6:	f042 0201 	orr.w	r2, r2, #1
 8001dea:	60b2      	str	r2, [r6, #8]
    counter = (ADC_STAB_DELAY_US * (SystemCoreClock / 1000000U));
 8001dec:	4a1e      	ldr	r2, [pc, #120]	; (8001e68 <HAL_ADC_Start_DMA+0x150>)
 8001dee:	6810      	ldr	r0, [r2, #0]
 8001df0:	4a1e      	ldr	r2, [pc, #120]	; (8001e6c <HAL_ADC_Start_DMA+0x154>)
 8001df2:	fbb0 f0f2 	udiv	r0, r0, r2
 8001df6:	eb00 0040 	add.w	r0, r0, r0, lsl #1
 8001dfa:	9001      	str	r0, [sp, #4]
    while (counter != 0U)
 8001dfc:	9a01      	ldr	r2, [sp, #4]
 8001dfe:	2a00      	cmp	r2, #0
 8001e00:	d09b      	beq.n	8001d3a <HAL_ADC_Start_DMA+0x22>
      counter--;
 8001e02:	9a01      	ldr	r2, [sp, #4]
 8001e04:	3a01      	subs	r2, #1
 8001e06:	9201      	str	r2, [sp, #4]
 8001e08:	e7f8      	b.n	8001dfc <HAL_ADC_Start_DMA+0xe4>
    CLEAR_BIT(hadc->Instance->CR2, ADC_CR2_DMA);
 8001e0a:	68b2      	ldr	r2, [r6, #8]
 8001e0c:	f422 7280 	bic.w	r2, r2, #256	; 0x100
 8001e10:	60b2      	str	r2, [r6, #8]
 8001e12:	e795      	b.n	8001d40 <HAL_ADC_Start_DMA+0x28>
          || ((hadc->Instance == ADC3) && ((ADC->CCR & ADC_CCR_MULTI_Msk) < ADC_CCR_MULTI_4)))
 8001e14:	4816      	ldr	r0, [pc, #88]	; (8001e70 <HAL_ADC_Start_DMA+0x158>)
 8001e16:	4283      	cmp	r3, r0
 8001e18:	d10d      	bne.n	8001e36 <HAL_ADC_Start_DMA+0x11e>
 8001e1a:	6849      	ldr	r1, [r1, #4]
 8001e1c:	f011 0f10 	tst.w	r1, #16
 8001e20:	e7d5      	b.n	8001dce <HAL_ADC_Start_DMA+0xb6>
      if ((hadc->Instance == ADC1) && ((hadc->Instance->CR2 & ADC_CR2_EXTEN) == RESET))
 8001e22:	4283      	cmp	r3, r0
 8001e24:	d1dc      	bne.n	8001de0 <HAL_ADC_Start_DMA+0xc8>
 8001e26:	689a      	ldr	r2, [r3, #8]
 8001e28:	f012 5240 	ands.w	r2, r2, #805306368	; 0x30000000
 8001e2c:	d10e      	bne.n	8001e4c <HAL_ADC_Start_DMA+0x134>
        hadc->Instance->CR2 |= (uint32_t)ADC_CR2_SWSTART;
 8001e2e:	6899      	ldr	r1, [r3, #8]
 8001e30:	f041 4180 	orr.w	r1, r1, #1073741824	; 0x40000000
 8001e34:	6099      	str	r1, [r3, #8]
}
 8001e36:	4610      	mov	r0, r2
 8001e38:	b002      	add	sp, #8
 8001e3a:	bd70      	pop	{r4, r5, r6, pc}
    SET_BIT(hadc->State, HAL_ADC_STATE_ERROR_INTERNAL);
 8001e3c:	6c2b      	ldr	r3, [r5, #64]	; 0x40
 8001e3e:	f043 0310 	orr.w	r3, r3, #16
 8001e42:	642b      	str	r3, [r5, #64]	; 0x40
    SET_BIT(hadc->ErrorCode, HAL_ADC_ERROR_INTERNAL);
 8001e44:	6c6b      	ldr	r3, [r5, #68]	; 0x44
 8001e46:	f043 0301 	orr.w	r3, r3, #1
 8001e4a:	646b      	str	r3, [r5, #68]	; 0x44
  return HAL_OK;
 8001e4c:	4622      	mov	r2, r4
 8001e4e:	e7f2      	b.n	8001e36 <HAL_ADC_Start_DMA+0x11e>
  __HAL_LOCK(hadc);
 8001e50:	2202      	movs	r2, #2
 8001e52:	e7f0      	b.n	8001e36 <HAL_ADC_Start_DMA+0x11e>
 8001e54:	08001e9b 	.word	0x08001e9b
 8001e58:	08001e79 	.word	0x08001e79
 8001e5c:	08001e85 	.word	0x08001e85
 8001e60:	40012300 	.word	0x40012300
 8001e64:	40012000 	.word	0x40012000
 8001e68:	20000000 	.word	0x20000000
 8001e6c:	000f4240 	.word	0x000f4240
 8001e70:	40012200 	.word	0x40012200

08001e74 <HAL_ADC_ConvCpltCallback>:
 8001e74:	4770      	bx	lr

08001e76 <HAL_ADC_ConvHalfCpltCallback>:
 8001e76:	4770      	bx	lr

08001e78 <ADC_DMAHalfConvCplt>:
  * @param  hdma pointer to a DMA_HandleTypeDef structure that contains
  *                the configuration information for the specified DMA module.
  * @retval None
  */
static void ADC_DMAHalfConvCplt(DMA_HandleTypeDef *hdma)
{
 8001e78:	b508      	push	{r3, lr}
  ADC_HandleTypeDef *hadc = (ADC_HandleTypeDef *)((DMA_HandleTypeDef *)hdma)->Parent;
  /* Half conversion callback */
#if (USE_HAL_ADC_REGISTER_CALLBACKS == 1)
  hadc->ConvHalfCpltCallback(hadc);
#else
  HAL_ADC_ConvHalfCpltCallback(hadc);
 8001e7a:	6b80      	ldr	r0, [r0, #56]	; 0x38
 8001e7c:	f7ff fffb 	bl	8001e76 <HAL_ADC_ConvHalfCpltCallback>
#endif /* USE_HAL_ADC_REGISTER_CALLBACKS */
}
 8001e80:	bd08      	pop	{r3, pc}

08001e82 <HAL_ADC_ErrorCallback>:
 8001e82:	4770      	bx	lr

08001e84 <ADC_DMAError>:
  *                the configuration information for the specified DMA module.
  * @retval None
  */
static void ADC_DMAError(DMA_HandleTypeDef *hdma)
{
  ADC_HandleTypeDef *hadc = (ADC_HandleTypeDef *)((DMA_HandleTypeDef *)hdma)->Parent;
 8001e84:	6b80      	ldr	r0, [r0, #56]	; 0x38
{
 8001e86:	b508      	push	{r3, lr}
  hadc->State = HAL_ADC_STATE_ERROR_DMA;
 8001e88:	2340      	movs	r3, #64	; 0x40
 8001e8a:	6403      	str	r3, [r0, #64]	; 0x40
  /* Set ADC error code to DMA error */
  hadc->ErrorCode |= HAL_ADC_ERROR_DMA;
 8001e8c:	6c43      	ldr	r3, [r0, #68]	; 0x44
 8001e8e:	f043 0304 	orr.w	r3, r3, #4
 8001e92:	6443      	str	r3, [r0, #68]	; 0x44
  /* Error callback */
#if (USE_HAL_ADC_REGISTER_CALLBACKS == 1)
  hadc->ErrorCallback(hadc);
#else
  HAL_ADC_ErrorCallback(hadc);
 8001e94:	f7ff fff5 	bl	8001e82 <HAL_ADC_ErrorCallback>
#endif /* USE_HAL_ADC_REGISTER_CALLBACKS */
}
 8001e98:	bd08      	pop	{r3, pc}

08001e9a <ADC_DMAConvCplt>:
  ADC_HandleTypeDef *hadc = (ADC_HandleTypeDef *)((DMA_HandleTypeDef *)hdma)->Parent;
 8001e9a:	6b83      	ldr	r3, [r0, #56]	; 0x38
  if (HAL_IS_BIT_CLR(hadc->State, HAL_ADC_STATE_ERROR_INTERNAL | HAL_ADC_STATE_ERROR_DMA))
 8001e9c:	6c1a      	ldr	r2, [r3, #64]	; 0x40
 8001e9e:	f012 0f50 	tst.w	r2, #80	; 0x50
{
 8001ea2:	b510      	push	{r4, lr}
    SET_BIT(hadc->State, HAL_ADC_STATE_REG_EOC);
 8001ea4:	6c1a      	ldr	r2, [r3, #64]	; 0x40
  if (HAL_IS_BIT_CLR(hadc->State, HAL_ADC_STATE_ERROR_INTERNAL | HAL_ADC_STATE_ERROR_DMA))
 8001ea6:	d123      	bne.n	8001ef0 <ADC_DMAConvCplt+0x56>
    SET_BIT(hadc->State, HAL_ADC_STATE_REG_EOC);
 8001ea8:	f442 7200 	orr.w	r2, r2, #512	; 0x200
 8001eac:	641a      	str	r2, [r3, #64]	; 0x40
    if (ADC_IS_SOFTWARE_START_REGULAR(hadc)                   &&
 8001eae:	681a      	ldr	r2, [r3, #0]
 8001eb0:	6891      	ldr	r1, [r2, #8]
 8001eb2:	f011 5f40 	tst.w	r1, #805306368	; 0x30000000
 8001eb6:	d117      	bne.n	8001ee8 <ADC_DMAConvCplt+0x4e>
 8001eb8:	7e19      	ldrb	r1, [r3, #24]
 8001eba:	b9a9      	cbnz	r1, 8001ee8 <ADC_DMAConvCplt+0x4e>
        (HAL_IS_BIT_CLR(hadc->Instance->SQR1, ADC_SQR1_L) ||
 8001ebc:	6ad1      	ldr	r1, [r2, #44]	; 0x2c
        (hadc->Init.ContinuousConvMode == DISABLE)            &&
 8001ebe:	f411 0f70 	tst.w	r1, #15728640	; 0xf00000
 8001ec2:	d002      	beq.n	8001eca <ADC_DMAConvCplt+0x30>
         HAL_IS_BIT_CLR(hadc->Instance->CR2, ADC_CR2_EOCS)))
 8001ec4:	6891      	ldr	r1, [r2, #8]
        (HAL_IS_BIT_CLR(hadc->Instance->SQR1, ADC_SQR1_L) ||
 8001ec6:	0548      	lsls	r0, r1, #21
 8001ec8:	d40e      	bmi.n	8001ee8 <ADC_DMAConvCplt+0x4e>
      __HAL_ADC_DISABLE_IT(hadc, ADC_IT_EOC);
 8001eca:	6851      	ldr	r1, [r2, #4]
 8001ecc:	f021 0120 	bic.w	r1, r1, #32
 8001ed0:	6051      	str	r1, [r2, #4]
      CLEAR_BIT(hadc->State, HAL_ADC_STATE_REG_BUSY);
 8001ed2:	6c1a      	ldr	r2, [r3, #64]	; 0x40
 8001ed4:	f422 7280 	bic.w	r2, r2, #256	; 0x100
 8001ed8:	641a      	str	r2, [r3, #64]	; 0x40
      if (HAL_IS_BIT_CLR(hadc->State, HAL_ADC_STATE_INJ_BUSY))
 8001eda:	6c1a      	ldr	r2, [r3, #64]	; 0x40
 8001edc:	04d1      	lsls	r1, r2, #19
        SET_BIT(hadc->State, HAL_ADC_STATE_READY);
 8001ede:	bf5e      	ittt	pl
 8001ee0:	6c1a      	ldrpl	r2, [r3, #64]	; 0x40
 8001ee2:	f042 0201 	orrpl.w	r2, r2, #1
 8001ee6:	641a      	strpl	r2, [r3, #64]	; 0x40
    HAL_ADC_ConvCpltCallback(hadc);
 8001ee8:	4618      	mov	r0, r3
 8001eea:	f7ff ffc3 	bl	8001e74 <HAL_ADC_ConvCpltCallback>
}
 8001eee:	bd10      	pop	{r4, pc}
    if ((hadc->State & HAL_ADC_STATE_ERROR_INTERNAL) != 0UL)
 8001ef0:	06d2      	lsls	r2, r2, #27
 8001ef2:	d503      	bpl.n	8001efc <ADC_DMAConvCplt+0x62>
      HAL_ADC_ErrorCallback(hadc);
 8001ef4:	4618      	mov	r0, r3
 8001ef6:	f7ff ffc4 	bl	8001e82 <HAL_ADC_ErrorCallback>
 8001efa:	e7f8      	b.n	8001eee <ADC_DMAConvCplt+0x54>
      hadc->DMA_Handle->XferErrorCallback(hdma);
 8001efc:	6b9b      	ldr	r3, [r3, #56]	; 0x38
}
 8001efe:	e8bd 4010 	ldmia.w	sp!, {r4, lr}
      hadc->DMA_Handle->XferErrorCallback(hdma);
 8001f02:	6cdb      	ldr	r3, [r3, #76]	; 0x4c
 8001f04:	4718      	bx	r3
	...

08001f08 <HAL_ADC_ConfigChannel>:
{
 8001f08:	b5f7      	push	{r0, r1, r2, r4, r5, r6, r7, lr}
  __IO uint32_t counter = 0U;
 8001f0a:	2300      	movs	r3, #0
 8001f0c:	9301      	str	r3, [sp, #4]
  __HAL_LOCK(hadc);
 8001f0e:	f890 303c 	ldrb.w	r3, [r0, #60]	; 0x3c
 8001f12:	2b01      	cmp	r3, #1
 8001f14:	d067      	beq.n	8001fe6 <HAL_ADC_ConfigChannel+0xde>
 8001f16:	2301      	movs	r3, #1
 8001f18:	f880 303c 	strb.w	r3, [r0, #60]	; 0x3c
  if (sConfig->Channel > ADC_CHANNEL_9)
 8001f1c:	680d      	ldr	r5, [r1, #0]
    hadc->Instance->SMPR1 &= ~ADC_SMPR1(ADC_SMPR1_SMP10, sConfig->Channel);
 8001f1e:	6803      	ldr	r3, [r0, #0]
    hadc->Instance->SMPR1 |= ADC_SMPR1(sConfig->SamplingTime, sConfig->Channel);
 8001f20:	688e      	ldr	r6, [r1, #8]
  if (sConfig->Channel > ADC_CHANNEL_9)
 8001f22:	2d09      	cmp	r5, #9
 8001f24:	b2ac      	uxth	r4, r5
 8001f26:	d934      	bls.n	8001f92 <HAL_ADC_ConfigChannel+0x8a>
    hadc->Instance->SMPR1 &= ~ADC_SMPR1(ADC_SMPR1_SMP10, sConfig->Channel);
 8001f28:	eb04 0244 	add.w	r2, r4, r4, lsl #1
 8001f2c:	68df      	ldr	r7, [r3, #12]
 8001f2e:	3a1e      	subs	r2, #30
 8001f30:	f04f 0c07 	mov.w	ip, #7
 8001f34:	fa0c fc02 	lsl.w	ip, ip, r2
 8001f38:	ea27 070c 	bic.w	r7, r7, ip
 8001f3c:	60df      	str	r7, [r3, #12]
    hadc->Instance->SMPR1 |= ADC_SMPR1(sConfig->SamplingTime, sConfig->Channel);
 8001f3e:	68df      	ldr	r7, [r3, #12]
 8001f40:	fa06 f202 	lsl.w	r2, r6, r2
 8001f44:	433a      	orrs	r2, r7
 8001f46:	60da      	str	r2, [r3, #12]
  if (sConfig->Rank < 7U)
 8001f48:	6849      	ldr	r1, [r1, #4]
 8001f4a:	2906      	cmp	r1, #6
    hadc->Instance->SQR3 &= ~ADC_SQR3_RK(ADC_SQR3_SQ1, sConfig->Rank);
 8001f4c:	eb01 0281 	add.w	r2, r1, r1, lsl #2
  if (sConfig->Rank < 7U)
 8001f50:	d82e      	bhi.n	8001fb0 <HAL_ADC_ConfigChannel+0xa8>
    hadc->Instance->SQR3 &= ~ADC_SQR3_RK(ADC_SQR3_SQ1, sConfig->Rank);
 8001f52:	6b59      	ldr	r1, [r3, #52]	; 0x34
 8001f54:	3a05      	subs	r2, #5
 8001f56:	261f      	movs	r6, #31
 8001f58:	4096      	lsls	r6, r2
 8001f5a:	ea21 0106 	bic.w	r1, r1, r6
 8001f5e:	6359      	str	r1, [r3, #52]	; 0x34
    hadc->Instance->SQR3 |= ADC_SQR3_RK(sConfig->Channel, sConfig->Rank);
 8001f60:	6b59      	ldr	r1, [r3, #52]	; 0x34
 8001f62:	fa04 f202 	lsl.w	r2, r4, r2
 8001f66:	430a      	orrs	r2, r1
 8001f68:	635a      	str	r2, [r3, #52]	; 0x34
  if ((hadc->Instance == ADC1) && (sConfig->Channel == ADC_CHANNEL_VBAT))
 8001f6a:	4a2f      	ldr	r2, [pc, #188]	; (8002028 <HAL_ADC_ConfigChannel+0x120>)
 8001f6c:	4293      	cmp	r3, r2
 8001f6e:	d10a      	bne.n	8001f86 <HAL_ADC_ConfigChannel+0x7e>
 8001f70:	2d12      	cmp	r5, #18
 8001f72:	d13a      	bne.n	8001fea <HAL_ADC_ConfigChannel+0xe2>
      tmpADC_Common->CCR &= ~ADC_CCR_TSVREFE;
 8001f74:	4b2d      	ldr	r3, [pc, #180]	; (800202c <HAL_ADC_ConfigChannel+0x124>)
 8001f76:	685a      	ldr	r2, [r3, #4]
 8001f78:	f422 0200 	bic.w	r2, r2, #8388608	; 0x800000
 8001f7c:	605a      	str	r2, [r3, #4]
    tmpADC_Common->CCR |= ADC_CCR_VBATE;
 8001f7e:	685a      	ldr	r2, [r3, #4]
 8001f80:	f442 0280 	orr.w	r2, r2, #4194304	; 0x400000
 8001f84:	605a      	str	r2, [r3, #4]
  __HAL_UNLOCK(hadc);
 8001f86:	2300      	movs	r3, #0
 8001f88:	f880 303c 	strb.w	r3, [r0, #60]	; 0x3c
  return HAL_OK;
 8001f8c:	4618      	mov	r0, r3
}
 8001f8e:	b003      	add	sp, #12
 8001f90:	bdf0      	pop	{r4, r5, r6, r7, pc}
    hadc->Instance->SMPR2 &= ~ADC_SMPR2(ADC_SMPR2_SMP0, sConfig->Channel);
 8001f92:	691a      	ldr	r2, [r3, #16]
 8001f94:	eb05 0c45 	add.w	ip, r5, r5, lsl #1
 8001f98:	2707      	movs	r7, #7
 8001f9a:	fa07 f70c 	lsl.w	r7, r7, ip
 8001f9e:	ea22 0207 	bic.w	r2, r2, r7
 8001fa2:	611a      	str	r2, [r3, #16]
    hadc->Instance->SMPR2 |= ADC_SMPR2(sConfig->SamplingTime, sConfig->Channel);
 8001fa4:	691a      	ldr	r2, [r3, #16]
 8001fa6:	fa06 f60c 	lsl.w	r6, r6, ip
 8001faa:	4316      	orrs	r6, r2
 8001fac:	611e      	str	r6, [r3, #16]
 8001fae:	e7cb      	b.n	8001f48 <HAL_ADC_ConfigChannel+0x40>
  else if (sConfig->Rank < 13U)
 8001fb0:	290c      	cmp	r1, #12
 8001fb2:	f04f 011f 	mov.w	r1, #31
 8001fb6:	d80b      	bhi.n	8001fd0 <HAL_ADC_ConfigChannel+0xc8>
    hadc->Instance->SQR2 &= ~ADC_SQR2_RK(ADC_SQR2_SQ7, sConfig->Rank);
 8001fb8:	6b1e      	ldr	r6, [r3, #48]	; 0x30
 8001fba:	3a23      	subs	r2, #35	; 0x23
 8001fbc:	4091      	lsls	r1, r2
 8001fbe:	ea26 0101 	bic.w	r1, r6, r1
 8001fc2:	6319      	str	r1, [r3, #48]	; 0x30
    hadc->Instance->SQR2 |= ADC_SQR2_RK(sConfig->Channel, sConfig->Rank);
 8001fc4:	6b19      	ldr	r1, [r3, #48]	; 0x30
 8001fc6:	fa04 f202 	lsl.w	r2, r4, r2
 8001fca:	430a      	orrs	r2, r1
 8001fcc:	631a      	str	r2, [r3, #48]	; 0x30
 8001fce:	e7cc      	b.n	8001f6a <HAL_ADC_ConfigChannel+0x62>
    hadc->Instance->SQR1 &= ~ADC_SQR1_RK(ADC_SQR1_SQ13, sConfig->Rank);
 8001fd0:	6ade      	ldr	r6, [r3, #44]	; 0x2c
 8001fd2:	3a41      	subs	r2, #65	; 0x41
 8001fd4:	4091      	lsls	r1, r2
 8001fd6:	ea26 0101 	bic.w	r1, r6, r1
 8001fda:	62d9      	str	r1, [r3, #44]	; 0x2c
    hadc->Instance->SQR1 |= ADC_SQR1_RK(sConfig->Channel, sConfig->Rank);
 8001fdc:	6ad9      	ldr	r1, [r3, #44]	; 0x2c
 8001fde:	4094      	lsls	r4, r2
 8001fe0:	430c      	orrs	r4, r1
 8001fe2:	62dc      	str	r4, [r3, #44]	; 0x2c
 8001fe4:	e7c1      	b.n	8001f6a <HAL_ADC_ConfigChannel+0x62>
  __HAL_LOCK(hadc);
 8001fe6:	2002      	movs	r0, #2
 8001fe8:	e7d1      	b.n	8001f8e <HAL_ADC_ConfigChannel+0x86>
  if ((hadc->Instance == ADC1) && ((sConfig->Channel == ADC_CHANNEL_TEMPSENSOR) || (sConfig->Channel == ADC_CHANNEL_VREFINT)))
 8001fea:	4b11      	ldr	r3, [pc, #68]	; (8002030 <HAL_ADC_ConfigChannel+0x128>)
 8001fec:	429d      	cmp	r5, r3
 8001fee:	d001      	beq.n	8001ff4 <HAL_ADC_ConfigChannel+0xec>
 8001ff0:	2d11      	cmp	r5, #17
 8001ff2:	d1c8      	bne.n	8001f86 <HAL_ADC_ConfigChannel+0x7e>
      tmpADC_Common->CCR &= ~ADC_CCR_VBATE;
 8001ff4:	4b0d      	ldr	r3, [pc, #52]	; (800202c <HAL_ADC_ConfigChannel+0x124>)
 8001ff6:	685a      	ldr	r2, [r3, #4]
 8001ff8:	f422 0280 	bic.w	r2, r2, #4194304	; 0x400000
 8001ffc:	605a      	str	r2, [r3, #4]
    tmpADC_Common->CCR |= ADC_CCR_TSVREFE;
 8001ffe:	685a      	ldr	r2, [r3, #4]
 8002000:	f442 0200 	orr.w	r2, r2, #8388608	; 0x800000
 8002004:	605a      	str	r2, [r3, #4]
    if (sConfig->Channel == ADC_CHANNEL_TEMPSENSOR)
 8002006:	4b0a      	ldr	r3, [pc, #40]	; (8002030 <HAL_ADC_ConfigChannel+0x128>)
 8002008:	429d      	cmp	r5, r3
 800200a:	d1bc      	bne.n	8001f86 <HAL_ADC_ConfigChannel+0x7e>
      counter = (ADC_TEMPSENSOR_DELAY_US * (SystemCoreClock / 1000000U));
 800200c:	4b09      	ldr	r3, [pc, #36]	; (8002034 <HAL_ADC_ConfigChannel+0x12c>)
 800200e:	4a0a      	ldr	r2, [pc, #40]	; (8002038 <HAL_ADC_ConfigChannel+0x130>)
 8002010:	681b      	ldr	r3, [r3, #0]
 8002012:	fbb3 f3f2 	udiv	r3, r3, r2
 8002016:	220a      	movs	r2, #10
 8002018:	4353      	muls	r3, r2
        counter--;
 800201a:	9301      	str	r3, [sp, #4]
      while (counter != 0U)
 800201c:	9b01      	ldr	r3, [sp, #4]
 800201e:	2b00      	cmp	r3, #0
 8002020:	d0b1      	beq.n	8001f86 <HAL_ADC_ConfigChannel+0x7e>
        counter--;
 8002022:	9b01      	ldr	r3, [sp, #4]
 8002024:	3b01      	subs	r3, #1
 8002026:	e7f8      	b.n	800201a <HAL_ADC_ConfigChannel+0x112>
 8002028:	40012000 	.word	0x40012000
 800202c:	40012300 	.word	0x40012300
 8002030:	10000012 	.word	0x10000012
 8002034:	20000000 	.word	0x20000000
 8002038:	000f4240 	.word	0x000f4240

0800203c <HAL_CAN_Init>:
  * @param  hcan pointer to a CAN_HandleTypeDef structure that contains
  *         the configuration information for the specified CAN.
  * @retval HAL status
  */
HAL_StatusTypeDef HAL_CAN_Init(CAN_HandleTypeDef *hcan)
{
 800203c:	b538      	push	{r3, r4, r5, lr}
  uint32_t tickstart;

  /* Check CAN handle */
  if (hcan == NULL)
 800203e:	4604      	mov	r4, r0
 8002040:	2800      	cmp	r0, #0
 8002042:	d06e      	beq.n	8002122 <HAL_CAN_Init+0xe6>
    /* Init the low level hardware: CLOCK, NVIC */
    hcan->MspInitCallback(hcan);
  }

#else
  if (hcan->State == HAL_CAN_STATE_RESET)
 8002044:	f890 3020 	ldrb.w	r3, [r0, #32]
 8002048:	b90b      	cbnz	r3, 800204e <HAL_CAN_Init+0x12>
  {
    /* Init the low level hardware: CLOCK, NVIC */
    HAL_CAN_MspInit(hcan);
 800204a:	f7ff fbb3 	bl	80017b4 <HAL_CAN_MspInit>
  }
#endif /* USE_HAL_CAN_REGISTER_CALLBACKS */

  /* Request initialisation */
  SET_BIT(hcan->Instance->MCR, CAN_MCR_INRQ);
 800204e:	6822      	ldr	r2, [r4, #0]
 8002050:	6813      	ldr	r3, [r2, #0]
 8002052:	f043 0301 	orr.w	r3, r3, #1
 8002056:	6013      	str	r3, [r2, #0]

  /* Get tick */
  tickstart = HAL_GetTick();
 8002058:	f7ff fd38 	bl	8001acc <HAL_GetTick>
 800205c:	4605      	mov	r5, r0

  /* Wait initialisation acknowledge */
  while ((hcan->Instance->MSR & CAN_MSR_INAK) == 0U)
 800205e:	6823      	ldr	r3, [r4, #0]
 8002060:	685a      	ldr	r2, [r3, #4]
 8002062:	07d1      	lsls	r1, r2, #31
 8002064:	d551      	bpl.n	800210a <HAL_CAN_Init+0xce>
      return HAL_ERROR;
    }
  }

  /* Exit from sleep mode */
  CLEAR_BIT(hcan->Instance->MCR, CAN_MCR_SLEEP);
 8002066:	681a      	ldr	r2, [r3, #0]
 8002068:	f022 0202 	bic.w	r2, r2, #2
 800206c:	601a      	str	r2, [r3, #0]

  /* Get tick */
  tickstart = HAL_GetTick();
 800206e:	f7ff fd2d 	bl	8001acc <HAL_GetTick>
 8002072:	4605      	mov	r5, r0

  /* Check Sleep mode leave acknowledge */
  while ((hcan->Instance->MSR & CAN_MSR_SLAK) != 0U)
 8002074:	6823      	ldr	r3, [r4, #0]
 8002076:	685a      	ldr	r2, [r3, #4]
 8002078:	0792      	lsls	r2, r2, #30
 800207a:	d454      	bmi.n	8002126 <HAL_CAN_Init+0xea>
      return HAL_ERROR;
    }
  }

  /* Set the time triggered communication mode */
  if (hcan->Init.TimeTriggeredMode == ENABLE)
 800207c:	7e22      	ldrb	r2, [r4, #24]
 800207e:	2a01      	cmp	r2, #1
  {
    SET_BIT(hcan->Instance->MCR, CAN_MCR_TTCM);
 8002080:	681a      	ldr	r2, [r3, #0]
 8002082:	bf0c      	ite	eq
 8002084:	f042 0280 	orreq.w	r2, r2, #128	; 0x80
  }
  else
  {
    CLEAR_BIT(hcan->Instance->MCR, CAN_MCR_TTCM);
 8002088:	f022 0280 	bicne.w	r2, r2, #128	; 0x80
 800208c:	601a      	str	r2, [r3, #0]
  }

  /* Set the automatic bus-off management */
  if (hcan->Init.AutoBusOff == ENABLE)
 800208e:	7e62      	ldrb	r2, [r4, #25]
 8002090:	2a01      	cmp	r2, #1
  {
    SET_BIT(hcan->Instance->MCR, CAN_MCR_ABOM);
 8002092:	681a      	ldr	r2, [r3, #0]
 8002094:	bf0c      	ite	eq
 8002096:	f042 0240 	orreq.w	r2, r2, #64	; 0x40
  }
  else
  {
    CLEAR_BIT(hcan->Instance->MCR, CAN_MCR_ABOM);
 800209a:	f022 0240 	bicne.w	r2, r2, #64	; 0x40
 800209e:	601a      	str	r2, [r3, #0]
  }

  /* Set the automatic wake-up mode */
  if (hcan->Init.AutoWakeUp == ENABLE)
 80020a0:	7ea2      	ldrb	r2, [r4, #26]
 80020a2:	2a01      	cmp	r2, #1
  {
    SET_BIT(hcan->Instance->MCR, CAN_MCR_AWUM);
 80020a4:	681a      	ldr	r2, [r3, #0]
 80020a6:	bf0c      	ite	eq
 80020a8:	f042 0220 	orreq.w	r2, r2, #32
  }
  else
  {
    CLEAR_BIT(hcan->Instance->MCR, CAN_MCR_AWUM);
 80020ac:	f022 0220 	bicne.w	r2, r2, #32
 80020b0:	601a      	str	r2, [r3, #0]
  }

  /* Set the automatic retransmission */
  if (hcan->Init.AutoRetransmission == ENABLE)
 80020b2:	7ee2      	ldrb	r2, [r4, #27]
 80020b4:	2a01      	cmp	r2, #1
  {
    CLEAR_BIT(hcan->Instance->MCR, CAN_MCR_NART);
 80020b6:	681a      	ldr	r2, [r3, #0]
 80020b8:	bf0c      	ite	eq
 80020ba:	f022 0210 	biceq.w	r2, r2, #16
  }
  else
  {
    SET_BIT(hcan->Instance->MCR, CAN_MCR_NART);
 80020be:	f042 0210 	orrne.w	r2, r2, #16
 80020c2:	601a      	str	r2, [r3, #0]
  }

  /* Set the receive FIFO locked mode */
  if (hcan->Init.ReceiveFifoLocked == ENABLE)
 80020c4:	7f22      	ldrb	r2, [r4, #28]
 80020c6:	2a01      	cmp	r2, #1
  {
    SET_BIT(hcan->Instance->MCR, CAN_MCR_RFLM);
 80020c8:	681a      	ldr	r2, [r3, #0]
 80020ca:	bf0c      	ite	eq
 80020cc:	f042 0208 	orreq.w	r2, r2, #8
  }
  else
  {
    CLEAR_BIT(hcan->Instance->MCR, CAN_MCR_RFLM);
 80020d0:	f022 0208 	bicne.w	r2, r2, #8
 80020d4:	601a      	str	r2, [r3, #0]
  }

  /* Set the transmit FIFO priority */
  if (hcan->Init.TransmitFifoPriority == ENABLE)
 80020d6:	7f62      	ldrb	r2, [r4, #29]
 80020d8:	2a01      	cmp	r2, #1
  {
    SET_BIT(hcan->Instance->MCR, CAN_MCR_TXFP);
 80020da:	681a      	ldr	r2, [r3, #0]
 80020dc:	bf0c      	ite	eq
 80020de:	f042 0204 	orreq.w	r2, r2, #4
  }
  else
  {
    CLEAR_BIT(hcan->Instance->MCR, CAN_MCR_TXFP);
 80020e2:	f022 0204 	bicne.w	r2, r2, #4
 80020e6:	601a      	str	r2, [r3, #0]
  }

  /* Set the bit timing register */
  WRITE_REG(hcan->Instance->BTR, (uint32_t)(hcan->Init.Mode           |
 80020e8:	e9d4 2102 	ldrd	r2, r1, [r4, #8]
 80020ec:	430a      	orrs	r2, r1
 80020ee:	6921      	ldr	r1, [r4, #16]
 80020f0:	430a      	orrs	r2, r1
 80020f2:	6961      	ldr	r1, [r4, #20]
 80020f4:	430a      	orrs	r2, r1
 80020f6:	6861      	ldr	r1, [r4, #4]
 80020f8:	3901      	subs	r1, #1
 80020fa:	430a      	orrs	r2, r1
 80020fc:	61da      	str	r2, [r3, #28]
                                            hcan->Init.TimeSeg1       |
                                            hcan->Init.TimeSeg2       |
                                            (hcan->Init.Prescaler - 1U)));

  /* Initialize the error code */
  hcan->ErrorCode = HAL_CAN_ERROR_NONE;
 80020fe:	2000      	movs	r0, #0

  /* Initialize the CAN state */
  hcan->State = HAL_CAN_STATE_READY;
 8002100:	2301      	movs	r3, #1
  hcan->ErrorCode = HAL_CAN_ERROR_NONE;
 8002102:	6260      	str	r0, [r4, #36]	; 0x24
  hcan->State = HAL_CAN_STATE_READY;
 8002104:	f884 3020 	strb.w	r3, [r4, #32]

  /* Return function status */
  return HAL_OK;
}
 8002108:	bd38      	pop	{r3, r4, r5, pc}
    if ((HAL_GetTick() - tickstart) > CAN_TIMEOUT_VALUE)
 800210a:	f7ff fcdf 	bl	8001acc <HAL_GetTick>
 800210e:	1b40      	subs	r0, r0, r5
 8002110:	280a      	cmp	r0, #10
 8002112:	d9a4      	bls.n	800205e <HAL_CAN_Init+0x22>
      hcan->ErrorCode |= HAL_CAN_ERROR_TIMEOUT;
 8002114:	6a63      	ldr	r3, [r4, #36]	; 0x24
 8002116:	f443 3300 	orr.w	r3, r3, #131072	; 0x20000
 800211a:	6263      	str	r3, [r4, #36]	; 0x24
      hcan->State = HAL_CAN_STATE_ERROR;
 800211c:	2305      	movs	r3, #5
 800211e:	f884 3020 	strb.w	r3, [r4, #32]
    return HAL_ERROR;
 8002122:	2001      	movs	r0, #1
 8002124:	e7f0      	b.n	8002108 <HAL_CAN_Init+0xcc>
    if ((HAL_GetTick() - tickstart) > CAN_TIMEOUT_VALUE)
 8002126:	f7ff fcd1 	bl	8001acc <HAL_GetTick>
 800212a:	1b40      	subs	r0, r0, r5
 800212c:	280a      	cmp	r0, #10
 800212e:	d9a1      	bls.n	8002074 <HAL_CAN_Init+0x38>
 8002130:	e7f0      	b.n	8002114 <HAL_CAN_Init+0xd8>
	...

08002134 <HAL_CAN_ConfigFilter>:
  * @param  sFilterConfig pointer to a CAN_FilterTypeDef structure that
  *         contains the filter configuration information.
  * @retval None
  */
HAL_StatusTypeDef HAL_CAN_ConfigFilter(CAN_HandleTypeDef *hcan, const CAN_FilterTypeDef *sFilterConfig)
{
 8002134:	b530      	push	{r4, r5, lr}
  uint32_t filternbrbitpos;
  CAN_TypeDef *can_ip = hcan->Instance;
  HAL_CAN_StateTypeDef state = hcan->State;
 8002136:	f890 3020 	ldrb.w	r3, [r0, #32]

  if ((state == HAL_CAN_STATE_READY) ||
 800213a:	3b01      	subs	r3, #1
 800213c:	2b01      	cmp	r3, #1
 800213e:	d877      	bhi.n	8002230 <HAL_CAN_ConfigFilter+0xfc>
    /* Check the parameters */
    assert_param(IS_CAN_FILTER_BANK_SINGLE(sFilterConfig->FilterBank));
#endif /* CAN3 */

    /* Initialisation mode for the filter */
    SET_BIT(can_ip->FMR, CAN_FMR_FINIT);
 8002140:	4b3e      	ldr	r3, [pc, #248]	; (800223c <HAL_CAN_ConfigFilter+0x108>)
 8002142:	f8d3 2200 	ldr.w	r2, [r3, #512]	; 0x200
 8002146:	f042 0201 	orr.w	r2, r2, #1
 800214a:	f8c3 2200 	str.w	r2, [r3, #512]	; 0x200
      SET_BIT(can_ip->FMR, sFilterConfig->SlaveStartFilterBank << CAN_FMR_CAN2SB_Pos);
    }

#elif defined(CAN2)
    /* Select the start filter number of CAN2 slave instance */
    CLEAR_BIT(can_ip->FMR, CAN_FMR_CAN2SB);
 800214e:	f8d3 2200 	ldr.w	r2, [r3, #512]	; 0x200
 8002152:	f422 527c 	bic.w	r2, r2, #16128	; 0x3f00
 8002156:	f8c3 2200 	str.w	r2, [r3, #512]	; 0x200
    SET_BIT(can_ip->FMR, sFilterConfig->SlaveStartFilterBank << CAN_FMR_CAN2SB_Pos);
 800215a:	f8d3 2200 	ldr.w	r2, [r3, #512]	; 0x200
 800215e:	6a48      	ldr	r0, [r1, #36]	; 0x24
 8002160:	ea42 2200 	orr.w	r2, r2, r0, lsl #8
 8002164:	f8c3 2200 	str.w	r2, [r3, #512]	; 0x200

#endif /* CAN3 */
    /* Convert filter number into bit position */
    filternbrbitpos = (uint32_t)1 << (sFilterConfig->FilterBank & 0x1FU);
 8002168:	694a      	ldr	r2, [r1, #20]

    /* Filter Deactivation */
    CLEAR_BIT(can_ip->FA1R, filternbrbitpos);
 800216a:	f8d3 521c 	ldr.w	r5, [r3, #540]	; 0x21c
    filternbrbitpos = (uint32_t)1 << (sFilterConfig->FilterBank & 0x1FU);
 800216e:	f002 041f 	and.w	r4, r2, #31
 8002172:	2001      	movs	r0, #1
 8002174:	40a0      	lsls	r0, r4
    CLEAR_BIT(can_ip->FA1R, filternbrbitpos);
 8002176:	ea25 0500 	bic.w	r5, r5, r0
 800217a:	f8c3 521c 	str.w	r5, [r3, #540]	; 0x21c

    /* Filter Scale */
    if (sFilterConfig->FilterScale == CAN_FILTERSCALE_16BIT)
 800217e:	69cd      	ldr	r5, [r1, #28]
    CLEAR_BIT(can_ip->FA1R, filternbrbitpos);
 8002180:	43c4      	mvns	r4, r0
    if (sFilterConfig->FilterScale == CAN_FILTERSCALE_16BIT)
 8002182:	2d00      	cmp	r5, #0
 8002184:	d135      	bne.n	80021f2 <HAL_CAN_ConfigFilter+0xbe>
    {
      /* 16-bit scale for the filter */
      CLEAR_BIT(can_ip->FS1R, filternbrbitpos);
 8002186:	f8d3 520c 	ldr.w	r5, [r3, #524]	; 0x20c
 800218a:	4025      	ands	r5, r4
 800218c:	f8c3 520c 	str.w	r5, [r3, #524]	; 0x20c

      /* First 16-bit identifier and First 16-bit mask */
      /* Or First 16-bit identifier and Second 16-bit identifier */
      can_ip->sFilterRegister[sFilterConfig->FilterBank].FR1 =
        ((0x0000FFFFU & (uint32_t)sFilterConfig->FilterMaskIdLow) << 16U) |
 8002190:	68cb      	ldr	r3, [r1, #12]
        (0x0000FFFFU & (uint32_t)sFilterConfig->FilterIdLow);
 8002192:	888d      	ldrh	r5, [r1, #4]
        ((0x0000FFFFU & (uint32_t)sFilterConfig->FilterMaskIdLow) << 16U) |
 8002194:	ea45 4503 	orr.w	r5, r5, r3, lsl #16
 8002198:	00d3      	lsls	r3, r2, #3
 800219a:	f103 4380 	add.w	r3, r3, #1073741824	; 0x40000000
 800219e:	f503 43c8 	add.w	r3, r3, #25600	; 0x6400

      /* Second 16-bit identifier and Second 16-bit mask */
      /* Or Third 16-bit identifier and Fourth 16-bit identifier */
      can_ip->sFilterRegister[sFilterConfig->FilterBank].FR2 =
        ((0x0000FFFFU & (uint32_t)sFilterConfig->FilterMaskIdHigh) << 16U) |
        (0x0000FFFFU & (uint32_t)sFilterConfig->FilterIdHigh);
 80021a2:	880a      	ldrh	r2, [r1, #0]
      can_ip->sFilterRegister[sFilterConfig->FilterBank].FR1 =
 80021a4:	f8c3 5240 	str.w	r5, [r3, #576]	; 0x240
        ((0x0000FFFFU & (uint32_t)sFilterConfig->FilterMaskIdHigh) << 16U) |
 80021a8:	688d      	ldr	r5, [r1, #8]
        ((0x0000FFFFU & (uint32_t)sFilterConfig->FilterIdHigh) << 16U) |
        (0x0000FFFFU & (uint32_t)sFilterConfig->FilterIdLow);

      /* 32-bit mask or Second 32-bit identifier */
      can_ip->sFilterRegister[sFilterConfig->FilterBank].FR2 =
        ((0x0000FFFFU & (uint32_t)sFilterConfig->FilterMaskIdHigh) << 16U) |
 80021aa:	ea42 4205 	orr.w	r2, r2, r5, lsl #16
      can_ip->sFilterRegister[sFilterConfig->FilterBank].FR2 =
 80021ae:	f8c3 2244 	str.w	r2, [r3, #580]	; 0x244
        (0x0000FFFFU & (uint32_t)sFilterConfig->FilterMaskIdLow);
    }

    /* Filter Mode */
    if (sFilterConfig->FilterMode == CAN_FILTERMODE_IDMASK)
 80021b2:	698a      	ldr	r2, [r1, #24]
 80021b4:	4b21      	ldr	r3, [pc, #132]	; (800223c <HAL_CAN_ConfigFilter+0x108>)
 80021b6:	bb8a      	cbnz	r2, 800221c <HAL_CAN_ConfigFilter+0xe8>
    {
      /* Id/Mask mode for the filter*/
      CLEAR_BIT(can_ip->FM1R, filternbrbitpos);
 80021b8:	f8d3 2204 	ldr.w	r2, [r3, #516]	; 0x204
 80021bc:	4022      	ands	r2, r4
    }
    else /* CAN_FilterInitStruct->CAN_FilterMode == CAN_FilterMode_IdList */
    {
      /* Identifier list mode for the filter*/
      SET_BIT(can_ip->FM1R, filternbrbitpos);
 80021be:	f8c3 2204 	str.w	r2, [r3, #516]	; 0x204
    }

    /* Filter FIFO assignment */
    if (sFilterConfig->FilterFIFOAssignment == CAN_FILTER_FIFO0)
 80021c2:	690a      	ldr	r2, [r1, #16]
 80021c4:	bb72      	cbnz	r2, 8002224 <HAL_CAN_ConfigFilter+0xf0>
    {
      /* FIFO 0 assignation for the filter */
      CLEAR_BIT(can_ip->FFA1R, filternbrbitpos);
 80021c6:	f8d3 2214 	ldr.w	r2, [r3, #532]	; 0x214
 80021ca:	4014      	ands	r4, r2
 80021cc:	f8c3 4214 	str.w	r4, [r3, #532]	; 0x214
      /* FIFO 1 assignation for the filter */
      SET_BIT(can_ip->FFA1R, filternbrbitpos);
    }

    /* Filter activation */
    if (sFilterConfig->FilterActivation == CAN_FILTER_ENABLE)
 80021d0:	6a0b      	ldr	r3, [r1, #32]
 80021d2:	2b01      	cmp	r3, #1
 80021d4:	4b19      	ldr	r3, [pc, #100]	; (800223c <HAL_CAN_ConfigFilter+0x108>)
    {
      SET_BIT(can_ip->FA1R, filternbrbitpos);
 80021d6:	bf02      	ittt	eq
 80021d8:	f8d3 221c 	ldreq.w	r2, [r3, #540]	; 0x21c
 80021dc:	4302      	orreq	r2, r0
 80021de:	f8c3 221c 	streq.w	r2, [r3, #540]	; 0x21c
    }

    /* Leave the initialisation mode for the filter */
    CLEAR_BIT(can_ip->FMR, CAN_FMR_FINIT);
 80021e2:	f8d3 2200 	ldr.w	r2, [r3, #512]	; 0x200
 80021e6:	f022 0201 	bic.w	r2, r2, #1
 80021ea:	f8c3 2200 	str.w	r2, [r3, #512]	; 0x200

    /* Return function status */
    return HAL_OK;
 80021ee:	2000      	movs	r0, #0
    /* Update error code */
    hcan->ErrorCode |= HAL_CAN_ERROR_NOT_INITIALIZED;

    return HAL_ERROR;
  }
}
 80021f0:	bd30      	pop	{r4, r5, pc}
    if (sFilterConfig->FilterScale == CAN_FILTERSCALE_32BIT)
 80021f2:	2d01      	cmp	r5, #1
 80021f4:	d1dd      	bne.n	80021b2 <HAL_CAN_ConfigFilter+0x7e>
      SET_BIT(can_ip->FS1R, filternbrbitpos);
 80021f6:	f8d3 520c 	ldr.w	r5, [r3, #524]	; 0x20c
 80021fa:	4305      	orrs	r5, r0
 80021fc:	f8c3 520c 	str.w	r5, [r3, #524]	; 0x20c
        ((0x0000FFFFU & (uint32_t)sFilterConfig->FilterIdHigh) << 16U) |
 8002200:	680b      	ldr	r3, [r1, #0]
        (0x0000FFFFU & (uint32_t)sFilterConfig->FilterIdLow);
 8002202:	888d      	ldrh	r5, [r1, #4]
        ((0x0000FFFFU & (uint32_t)sFilterConfig->FilterIdHigh) << 16U) |
 8002204:	ea45 4503 	orr.w	r5, r5, r3, lsl #16
 8002208:	00d3      	lsls	r3, r2, #3
 800220a:	f103 4380 	add.w	r3, r3, #1073741824	; 0x40000000
 800220e:	f503 43c8 	add.w	r3, r3, #25600	; 0x6400
        (0x0000FFFFU & (uint32_t)sFilterConfig->FilterMaskIdLow);
 8002212:	898a      	ldrh	r2, [r1, #12]
      can_ip->sFilterRegister[sFilterConfig->FilterBank].FR1 =
 8002214:	f8c3 5240 	str.w	r5, [r3, #576]	; 0x240
        ((0x0000FFFFU & (uint32_t)sFilterConfig->FilterMaskIdHigh) << 16U) |
 8002218:	688d      	ldr	r5, [r1, #8]
 800221a:	e7c6      	b.n	80021aa <HAL_CAN_ConfigFilter+0x76>
      SET_BIT(can_ip->FM1R, filternbrbitpos);
 800221c:	f8d3 2204 	ldr.w	r2, [r3, #516]	; 0x204
 8002220:	4302      	orrs	r2, r0
 8002222:	e7cc      	b.n	80021be <HAL_CAN_ConfigFilter+0x8a>
      SET_BIT(can_ip->FFA1R, filternbrbitpos);
 8002224:	f8d3 2214 	ldr.w	r2, [r3, #532]	; 0x214
 8002228:	4302      	orrs	r2, r0
 800222a:	f8c3 2214 	str.w	r2, [r3, #532]	; 0x214
 800222e:	e7cf      	b.n	80021d0 <HAL_CAN_ConfigFilter+0x9c>
    hcan->ErrorCode |= HAL_CAN_ERROR_NOT_INITIALIZED;
 8002230:	6a43      	ldr	r3, [r0, #36]	; 0x24
 8002232:	f443 2380 	orr.w	r3, r3, #262144	; 0x40000
 8002236:	6243      	str	r3, [r0, #36]	; 0x24
    return HAL_ERROR;
 8002238:	2001      	movs	r0, #1
 800223a:	e7d9      	b.n	80021f0 <HAL_CAN_ConfigFilter+0xbc>
 800223c:	40006400 	.word	0x40006400

08002240 <HAL_CAN_Start>:
  * @param  hcan pointer to an CAN_HandleTypeDef structure that contains
  *         the configuration information for the specified CAN.
  * @retval HAL status
  */
HAL_StatusTypeDef HAL_CAN_Start(CAN_HandleTypeDef *hcan)
{
 8002240:	b570      	push	{r4, r5, r6, lr}
  uint32_t tickstart;

  if (hcan->State == HAL_CAN_STATE_READY)
 8002242:	f890 3020 	ldrb.w	r3, [r0, #32]
 8002246:	2b01      	cmp	r3, #1
{
 8002248:	4604      	mov	r4, r0
  if (hcan->State == HAL_CAN_STATE_READY)
 800224a:	b2dd      	uxtb	r5, r3
 800224c:	d120      	bne.n	8002290 <HAL_CAN_Start+0x50>
  {
    /* Change CAN peripheral state */
    hcan->State = HAL_CAN_STATE_LISTENING;

    /* Request leave initialisation */
    CLEAR_BIT(hcan->Instance->MCR, CAN_MCR_INRQ);
 800224e:	6802      	ldr	r2, [r0, #0]
    hcan->State = HAL_CAN_STATE_LISTENING;
 8002250:	2302      	movs	r3, #2
 8002252:	f880 3020 	strb.w	r3, [r0, #32]
    CLEAR_BIT(hcan->Instance->MCR, CAN_MCR_INRQ);
 8002256:	6813      	ldr	r3, [r2, #0]
 8002258:	f023 0301 	bic.w	r3, r3, #1
 800225c:	6013      	str	r3, [r2, #0]

    /* Get tick */
    tickstart = HAL_GetTick();
 800225e:	f7ff fc35 	bl	8001acc <HAL_GetTick>
 8002262:	4606      	mov	r6, r0

    /* Wait the acknowledge */
    while ((hcan->Instance->MSR & CAN_MSR_INAK) != 0U)
 8002264:	6823      	ldr	r3, [r4, #0]
 8002266:	685b      	ldr	r3, [r3, #4]
 8002268:	f013 0301 	ands.w	r3, r3, #1
 800226c:	d102      	bne.n	8002274 <HAL_CAN_Start+0x34>
        return HAL_ERROR;
      }
    }

    /* Reset the CAN ErrorCode */
    hcan->ErrorCode = HAL_CAN_ERROR_NONE;
 800226e:	6263      	str	r3, [r4, #36]	; 0x24

    /* Return function status */
    return HAL_OK;
 8002270:	461d      	mov	r5, r3
 8002272:	e00b      	b.n	800228c <HAL_CAN_Start+0x4c>
      if ((HAL_GetTick() - tickstart) > CAN_TIMEOUT_VALUE)
 8002274:	f7ff fc2a 	bl	8001acc <HAL_GetTick>
 8002278:	1b80      	subs	r0, r0, r6
 800227a:	280a      	cmp	r0, #10
 800227c:	d9f2      	bls.n	8002264 <HAL_CAN_Start+0x24>
        hcan->ErrorCode |= HAL_CAN_ERROR_TIMEOUT;
 800227e:	6a63      	ldr	r3, [r4, #36]	; 0x24
 8002280:	f443 3300 	orr.w	r3, r3, #131072	; 0x20000
 8002284:	6263      	str	r3, [r4, #36]	; 0x24
        hcan->State = HAL_CAN_STATE_ERROR;
 8002286:	2305      	movs	r3, #5
 8002288:	f884 3020 	strb.w	r3, [r4, #32]
    /* Update error code */
    hcan->ErrorCode |= HAL_CAN_ERROR_NOT_READY;

    return HAL_ERROR;
  }
}
 800228c:	4628      	mov	r0, r5
 800228e:	bd70      	pop	{r4, r5, r6, pc}
    hcan->ErrorCode |= HAL_CAN_ERROR_NOT_READY;
 8002290:	6a43      	ldr	r3, [r0, #36]	; 0x24
 8002292:	f443 2300 	orr.w	r3, r3, #524288	; 0x80000
 8002296:	6243      	str	r3, [r0, #36]	; 0x24
    return HAL_ERROR;
 8002298:	2501      	movs	r5, #1
 800229a:	e7f7      	b.n	800228c <HAL_CAN_Start+0x4c>

0800229c <HAL_CAN_ActivateNotification>:
  *         This parameter can be any combination of @arg CAN_Interrupts.
  * @retval HAL status
  */
HAL_StatusTypeDef HAL_CAN_ActivateNotification(CAN_HandleTypeDef *hcan, uint32_t ActiveITs)
{
  HAL_CAN_StateTypeDef state = hcan->State;
 800229c:	f890 3020 	ldrb.w	r3, [r0, #32]

  /* Check function parameters */
  assert_param(IS_CAN_IT(ActiveITs));

  if ((state == HAL_CAN_STATE_READY) ||
 80022a0:	3b01      	subs	r3, #1
 80022a2:	2b01      	cmp	r3, #1
 80022a4:	d805      	bhi.n	80022b2 <HAL_CAN_ActivateNotification+0x16>
      (state == HAL_CAN_STATE_LISTENING))
  {
    /* Enable the selected interrupts */
    __HAL_CAN_ENABLE_IT(hcan, ActiveITs);
 80022a6:	6802      	ldr	r2, [r0, #0]
 80022a8:	6953      	ldr	r3, [r2, #20]
 80022aa:	4319      	orrs	r1, r3
 80022ac:	6151      	str	r1, [r2, #20]

    /* Return function status */
    return HAL_OK;
 80022ae:	2000      	movs	r0, #0
 80022b0:	4770      	bx	lr
  }
  else
  {
    /* Update error code */
    hcan->ErrorCode |= HAL_CAN_ERROR_NOT_INITIALIZED;
 80022b2:	6a43      	ldr	r3, [r0, #36]	; 0x24
 80022b4:	f443 2380 	orr.w	r3, r3, #262144	; 0x40000
 80022b8:	6243      	str	r3, [r0, #36]	; 0x24

    return HAL_ERROR;
 80022ba:	2001      	movs	r0, #1
  }
}
 80022bc:	4770      	bx	lr

080022be <HAL_CAN_TxMailbox0CompleteCallback>:
 80022be:	4770      	bx	lr

080022c0 <HAL_CAN_TxMailbox1CompleteCallback>:
 80022c0:	4770      	bx	lr

080022c2 <HAL_CAN_TxMailbox2CompleteCallback>:
 80022c2:	4770      	bx	lr

080022c4 <HAL_CAN_TxMailbox0AbortCallback>:
 80022c4:	4770      	bx	lr

080022c6 <HAL_CAN_TxMailbox1AbortCallback>:
 80022c6:	4770      	bx	lr

080022c8 <HAL_CAN_TxMailbox2AbortCallback>:
 80022c8:	4770      	bx	lr

080022ca <HAL_CAN_RxFifo0MsgPendingCallback>:
 80022ca:	4770      	bx	lr

080022cc <HAL_CAN_RxFifo0FullCallback>:
 80022cc:	4770      	bx	lr

080022ce <HAL_CAN_RxFifo1MsgPendingCallback>:
 80022ce:	4770      	bx	lr

080022d0 <HAL_CAN_RxFifo1FullCallback>:
 80022d0:	4770      	bx	lr

080022d2 <HAL_CAN_SleepCallback>:
 80022d2:	4770      	bx	lr

080022d4 <HAL_CAN_WakeUpFromRxMsgCallback>:
 80022d4:	4770      	bx	lr

080022d6 <HAL_CAN_ErrorCallback>:
 80022d6:	4770      	bx	lr

080022d8 <HAL_CAN_IRQHandler>:
  * @param  hcan pointer to a CAN_HandleTypeDef structure that contains
  *         the configuration information for the specified CAN.
  * @retval None
  */
void HAL_CAN_IRQHandler(CAN_HandleTypeDef *hcan)
{
 80022d8:	e92d 4ff8 	stmdb	sp!, {r3, r4, r5, r6, r7, r8, r9, sl, fp, lr}
  uint32_t errorcode = HAL_CAN_ERROR_NONE;
  uint32_t interrupts = READ_REG(hcan->Instance->IER);
 80022dc:	6803      	ldr	r3, [r0, #0]
 80022de:	695e      	ldr	r6, [r3, #20]
  uint32_t msrflags = READ_REG(hcan->Instance->MSR);
 80022e0:	f8d3 9004 	ldr.w	r9, [r3, #4]
  uint32_t tsrflags = READ_REG(hcan->Instance->TSR);
 80022e4:	689f      	ldr	r7, [r3, #8]
  uint32_t rf0rflags = READ_REG(hcan->Instance->RF0R);
 80022e6:	f8d3 b00c 	ldr.w	fp, [r3, #12]
  uint32_t rf1rflags = READ_REG(hcan->Instance->RF1R);
 80022ea:	f8d3 a010 	ldr.w	sl, [r3, #16]
  uint32_t esrflags = READ_REG(hcan->Instance->ESR);
 80022ee:	f8d3 8018 	ldr.w	r8, [r3, #24]

  /* Transmit Mailbox empty interrupt management *****************************/
  if ((interrupts & CAN_IT_TX_MAILBOX_EMPTY) != 0U)
 80022f2:	f016 0401 	ands.w	r4, r6, #1
{
 80022f6:	4605      	mov	r5, r0
  if ((interrupts & CAN_IT_TX_MAILBOX_EMPTY) != 0U)
 80022f8:	d022      	beq.n	8002340 <HAL_CAN_IRQHandler+0x68>
  {
    /* Transmit Mailbox 0 management *****************************************/
    if ((tsrflags & CAN_TSR_RQCP0) != 0U)
 80022fa:	f017 0401 	ands.w	r4, r7, #1
 80022fe:	d007      	beq.n	8002310 <HAL_CAN_IRQHandler+0x38>
    {
      /* Clear the Transmission Complete flag (and TXOK0,ALST0,TERR0 bits) */
      __HAL_CAN_CLEAR_FLAG(hcan, CAN_FLAG_RQCP0);
 8002300:	2201      	movs	r2, #1

      if ((tsrflags & CAN_TSR_TXOK0) != 0U)
 8002302:	07b9      	lsls	r1, r7, #30
      __HAL_CAN_CLEAR_FLAG(hcan, CAN_FLAG_RQCP0);
 8002304:	609a      	str	r2, [r3, #8]
      if ((tsrflags & CAN_TSR_TXOK0) != 0U)
 8002306:	f140 80a5 	bpl.w	8002454 <HAL_CAN_IRQHandler+0x17c>
#if USE_HAL_CAN_REGISTER_CALLBACKS == 1
        /* Call registered callback*/
        hcan->TxMailbox0CompleteCallback(hcan);
#else
        /* Call weak (surcharged) callback */
        HAL_CAN_TxMailbox0CompleteCallback(hcan);
 800230a:	f7ff ffd8 	bl	80022be <HAL_CAN_TxMailbox0CompleteCallback>
  uint32_t errorcode = HAL_CAN_ERROR_NONE;
 800230e:	2400      	movs	r4, #0
        }
      }
    }

    /* Transmit Mailbox 1 management *****************************************/
    if ((tsrflags & CAN_TSR_RQCP1) != 0U)
 8002310:	05fb      	lsls	r3, r7, #23
 8002312:	d509      	bpl.n	8002328 <HAL_CAN_IRQHandler+0x50>
    {
      /* Clear the Transmission Complete flag (and TXOK1,ALST1,TERR1 bits) */
      __HAL_CAN_CLEAR_FLAG(hcan, CAN_FLAG_RQCP1);
 8002314:	682b      	ldr	r3, [r5, #0]
 8002316:	f44f 7280 	mov.w	r2, #256	; 0x100

      if ((tsrflags & CAN_TSR_TXOK1) != 0U)
 800231a:	05b8      	lsls	r0, r7, #22
      __HAL_CAN_CLEAR_FLAG(hcan, CAN_FLAG_RQCP1);
 800231c:	609a      	str	r2, [r3, #8]
      if ((tsrflags & CAN_TSR_TXOK1) != 0U)
 800231e:	f140 80a7 	bpl.w	8002470 <HAL_CAN_IRQHandler+0x198>
#if USE_HAL_CAN_REGISTER_CALLBACKS == 1
        /* Call registered callback*/
        hcan->TxMailbox1CompleteCallback(hcan);
#else
        /* Call weak (surcharged) callback */
        HAL_CAN_TxMailbox1CompleteCallback(hcan);
 8002322:	4628      	mov	r0, r5
 8002324:	f7ff ffcc 	bl	80022c0 <HAL_CAN_TxMailbox1CompleteCallback>
        }
      }
    }

    /* Transmit Mailbox 2 management *****************************************/
    if ((tsrflags & CAN_TSR_RQCP2) != 0U)
 8002328:	03fb      	lsls	r3, r7, #15
 800232a:	d509      	bpl.n	8002340 <HAL_CAN_IRQHandler+0x68>
    {
      /* Clear the Transmission Complete flag (and TXOK2,ALST2,TERR2 bits) */
      __HAL_CAN_CLEAR_FLAG(hcan, CAN_FLAG_RQCP2);
 800232c:	682b      	ldr	r3, [r5, #0]
 800232e:	f44f 3280 	mov.w	r2, #65536	; 0x10000

      if ((tsrflags & CAN_TSR_TXOK2) != 0U)
 8002332:	03b8      	lsls	r0, r7, #14
      __HAL_CAN_CLEAR_FLAG(hcan, CAN_FLAG_RQCP2);
 8002334:	609a      	str	r2, [r3, #8]
      if ((tsrflags & CAN_TSR_TXOK2) != 0U)
 8002336:	f140 80a9 	bpl.w	800248c <HAL_CAN_IRQHandler+0x1b4>
#if USE_HAL_CAN_REGISTER_CALLBACKS == 1
        /* Call registered callback*/
        hcan->TxMailbox2CompleteCallback(hcan);
#else
        /* Call weak (surcharged) callback */
        HAL_CAN_TxMailbox2CompleteCallback(hcan);
 800233a:	4628      	mov	r0, r5
 800233c:	f7ff ffc1 	bl	80022c2 <HAL_CAN_TxMailbox2CompleteCallback>
      }
    }
  }

  /* Receive FIFO 0 overrun interrupt management *****************************/
  if ((interrupts & CAN_IT_RX_FIFO0_OVERRUN) != 0U)
 8002340:	0733      	lsls	r3, r6, #28
 8002342:	d507      	bpl.n	8002354 <HAL_CAN_IRQHandler+0x7c>
  {
    if ((rf0rflags & CAN_RF0R_FOVR0) != 0U)
 8002344:	f01b 0f10 	tst.w	fp, #16
    {
      /* Set CAN error code to Rx Fifo 0 overrun error */
      errorcode |= HAL_CAN_ERROR_RX_FOV0;

      /* Clear FIFO0 Overrun Flag */
      __HAL_CAN_CLEAR_FLAG(hcan, CAN_FLAG_FOV0);
 8002348:	bf1f      	itttt	ne
 800234a:	682b      	ldrne	r3, [r5, #0]
 800234c:	2210      	movne	r2, #16
      errorcode |= HAL_CAN_ERROR_RX_FOV0;
 800234e:	f444 7400 	orrne.w	r4, r4, #512	; 0x200
      __HAL_CAN_CLEAR_FLAG(hcan, CAN_FLAG_FOV0);
 8002352:	60da      	strne	r2, [r3, #12]
    }
  }

  /* Receive FIFO 0 full interrupt management ********************************/
  if ((interrupts & CAN_IT_RX_FIFO0_FULL) != 0U)
 8002354:	0777      	lsls	r7, r6, #29
 8002356:	d508      	bpl.n	800236a <HAL_CAN_IRQHandler+0x92>
  {
    if ((rf0rflags & CAN_RF0R_FULL0) != 0U)
 8002358:	f01b 0f08 	tst.w	fp, #8
 800235c:	d005      	beq.n	800236a <HAL_CAN_IRQHandler+0x92>
    {
      /* Clear FIFO 0 full Flag */
      __HAL_CAN_CLEAR_FLAG(hcan, CAN_FLAG_FF0);
 800235e:	682b      	ldr	r3, [r5, #0]
 8002360:	2208      	movs	r2, #8
 8002362:	60da      	str	r2, [r3, #12]
#if USE_HAL_CAN_REGISTER_CALLBACKS == 1
      /* Call registered callback*/
      hcan->RxFifo0FullCallback(hcan);
#else
      /* Call weak (surcharged) callback */
      HAL_CAN_RxFifo0FullCallback(hcan);
 8002364:	4628      	mov	r0, r5
 8002366:	f7ff ffb1 	bl	80022cc <HAL_CAN_RxFifo0FullCallback>
#endif /* USE_HAL_CAN_REGISTER_CALLBACKS */
    }
  }

  /* Receive FIFO 0 message pending interrupt management *********************/
  if ((interrupts & CAN_IT_RX_FIFO0_MSG_PENDING) != 0U)
 800236a:	07b0      	lsls	r0, r6, #30
 800236c:	d506      	bpl.n	800237c <HAL_CAN_IRQHandler+0xa4>
  {
    /* Check if message is still pending */
    if ((hcan->Instance->RF0R & CAN_RF0R_FMP0) != 0U)
 800236e:	682b      	ldr	r3, [r5, #0]
 8002370:	68db      	ldr	r3, [r3, #12]
 8002372:	0799      	lsls	r1, r3, #30
 8002374:	d002      	beq.n	800237c <HAL_CAN_IRQHandler+0xa4>
#if USE_HAL_CAN_REGISTER_CALLBACKS == 1
      /* Call registered callback*/
      hcan->RxFifo0MsgPendingCallback(hcan);
#else
      /* Call weak (surcharged) callback */
      HAL_CAN_RxFifo0MsgPendingCallback(hcan);
 8002376:	4628      	mov	r0, r5
 8002378:	f7ff ffa7 	bl	80022ca <HAL_CAN_RxFifo0MsgPendingCallback>
#endif /* USE_HAL_CAN_REGISTER_CALLBACKS */
    }
  }

  /* Receive FIFO 1 overrun interrupt management *****************************/
  if ((interrupts & CAN_IT_RX_FIFO1_OVERRUN) != 0U)
 800237c:	0672      	lsls	r2, r6, #25
 800237e:	d507      	bpl.n	8002390 <HAL_CAN_IRQHandler+0xb8>
  {
    if ((rf1rflags & CAN_RF1R_FOVR1) != 0U)
 8002380:	f01a 0f10 	tst.w	sl, #16
    {
      /* Set CAN error code to Rx Fifo 1 overrun error */
      errorcode |= HAL_CAN_ERROR_RX_FOV1;

      /* Clear FIFO1 Overrun Flag */
      __HAL_CAN_CLEAR_FLAG(hcan, CAN_FLAG_FOV1);
 8002384:	bf1f      	itttt	ne
 8002386:	682b      	ldrne	r3, [r5, #0]
 8002388:	2210      	movne	r2, #16
      errorcode |= HAL_CAN_ERROR_RX_FOV1;
 800238a:	f444 6480 	orrne.w	r4, r4, #1024	; 0x400
      __HAL_CAN_CLEAR_FLAG(hcan, CAN_FLAG_FOV1);
 800238e:	611a      	strne	r2, [r3, #16]
    }
  }

  /* Receive FIFO 1 full interrupt management ********************************/
  if ((interrupts & CAN_IT_RX_FIFO1_FULL) != 0U)
 8002390:	06b3      	lsls	r3, r6, #26
 8002392:	d508      	bpl.n	80023a6 <HAL_CAN_IRQHandler+0xce>
  {
    if ((rf1rflags & CAN_RF1R_FULL1) != 0U)
 8002394:	f01a 0f08 	tst.w	sl, #8
 8002398:	d005      	beq.n	80023a6 <HAL_CAN_IRQHandler+0xce>
    {
      /* Clear FIFO 1 full Flag */
      __HAL_CAN_CLEAR_FLAG(hcan, CAN_FLAG_FF1);
 800239a:	682b      	ldr	r3, [r5, #0]
 800239c:	2208      	movs	r2, #8
 800239e:	611a      	str	r2, [r3, #16]
#if USE_HAL_CAN_REGISTER_CALLBACKS == 1
      /* Call registered callback*/
      hcan->RxFifo1FullCallback(hcan);
#else
      /* Call weak (surcharged) callback */
      HAL_CAN_RxFifo1FullCallback(hcan);
 80023a0:	4628      	mov	r0, r5
 80023a2:	f7ff ff95 	bl	80022d0 <HAL_CAN_RxFifo1FullCallback>
#endif /* USE_HAL_CAN_REGISTER_CALLBACKS */
    }
  }

  /* Receive FIFO 1 message pending interrupt management *********************/
  if ((interrupts & CAN_IT_RX_FIFO1_MSG_PENDING) != 0U)
 80023a6:	06f7      	lsls	r7, r6, #27
 80023a8:	d506      	bpl.n	80023b8 <HAL_CAN_IRQHandler+0xe0>
  {
    /* Check if message is still pending */
    if ((hcan->Instance->RF1R & CAN_RF1R_FMP1) != 0U)
 80023aa:	682b      	ldr	r3, [r5, #0]
 80023ac:	691b      	ldr	r3, [r3, #16]
 80023ae:	0798      	lsls	r0, r3, #30
 80023b0:	d002      	beq.n	80023b8 <HAL_CAN_IRQHandler+0xe0>
#if USE_HAL_CAN_REGISTER_CALLBACKS == 1
      /* Call registered callback*/
      hcan->RxFifo1MsgPendingCallback(hcan);
#else
      /* Call weak (surcharged) callback */
      HAL_CAN_RxFifo1MsgPendingCallback(hcan);
 80023b2:	4628      	mov	r0, r5
 80023b4:	f7ff ff8b 	bl	80022ce <HAL_CAN_RxFifo1MsgPendingCallback>
#endif /* USE_HAL_CAN_REGISTER_CALLBACKS */
    }
  }

  /* Sleep interrupt management *********************************************/
  if ((interrupts & CAN_IT_SLEEP_ACK) != 0U)
 80023b8:	03b1      	lsls	r1, r6, #14
 80023ba:	d508      	bpl.n	80023ce <HAL_CAN_IRQHandler+0xf6>
  {
    if ((msrflags & CAN_MSR_SLAKI) != 0U)
 80023bc:	f019 0f10 	tst.w	r9, #16
 80023c0:	d005      	beq.n	80023ce <HAL_CAN_IRQHandler+0xf6>
    {
      /* Clear Sleep interrupt Flag */
      __HAL_CAN_CLEAR_FLAG(hcan, CAN_FLAG_SLAKI);
 80023c2:	682b      	ldr	r3, [r5, #0]
 80023c4:	2210      	movs	r2, #16
 80023c6:	605a      	str	r2, [r3, #4]
#if USE_HAL_CAN_REGISTER_CALLBACKS == 1
      /* Call registered callback*/
      hcan->SleepCallback(hcan);
#else
      /* Call weak (surcharged) callback */
      HAL_CAN_SleepCallback(hcan);
 80023c8:	4628      	mov	r0, r5
 80023ca:	f7ff ff82 	bl	80022d2 <HAL_CAN_SleepCallback>
#endif /* USE_HAL_CAN_REGISTER_CALLBACKS */
    }
  }

  /* WakeUp interrupt management *********************************************/
  if ((interrupts & CAN_IT_WAKEUP) != 0U)
 80023ce:	03f2      	lsls	r2, r6, #15
 80023d0:	d508      	bpl.n	80023e4 <HAL_CAN_IRQHandler+0x10c>
  {
    if ((msrflags & CAN_MSR_WKUI) != 0U)
 80023d2:	f019 0f08 	tst.w	r9, #8
 80023d6:	d005      	beq.n	80023e4 <HAL_CAN_IRQHandler+0x10c>
    {
      /* Clear WakeUp Flag */
      __HAL_CAN_CLEAR_FLAG(hcan, CAN_FLAG_WKU);
 80023d8:	682b      	ldr	r3, [r5, #0]
 80023da:	2208      	movs	r2, #8
 80023dc:	605a      	str	r2, [r3, #4]
#if USE_HAL_CAN_REGISTER_CALLBACKS == 1
      /* Call registered callback*/
      hcan->WakeUpFromRxMsgCallback(hcan);
#else
      /* Call weak (surcharged) callback */
      HAL_CAN_WakeUpFromRxMsgCallback(hcan);
 80023de:	4628      	mov	r0, r5
 80023e0:	f7ff ff78 	bl	80022d4 <HAL_CAN_WakeUpFromRxMsgCallback>
#endif /* USE_HAL_CAN_REGISTER_CALLBACKS */
    }
  }

  /* Error interrupts management *********************************************/
  if ((interrupts & CAN_IT_ERROR) != 0U)
 80023e4:	0433      	lsls	r3, r6, #16
 80023e6:	d52c      	bpl.n	8002442 <HAL_CAN_IRQHandler+0x16a>
  {
    if ((msrflags & CAN_MSR_ERRI) != 0U)
 80023e8:	f019 0f04 	tst.w	r9, #4
 80023ec:	682a      	ldr	r2, [r5, #0]
 80023ee:	d026      	beq.n	800243e <HAL_CAN_IRQHandler+0x166>
    {
      /* Check Error Warning Flag */
      if (((interrupts & CAN_IT_ERROR_WARNING) != 0U) &&
 80023f0:	05f7      	lsls	r7, r6, #23
 80023f2:	d504      	bpl.n	80023fe <HAL_CAN_IRQHandler+0x126>
 80023f4:	f018 0f01 	tst.w	r8, #1
          ((esrflags & CAN_ESR_EWGF) != 0U))
      {
        /* Set CAN error code to Error Warning */
        errorcode |= HAL_CAN_ERROR_EWG;
 80023f8:	bf18      	it	ne
 80023fa:	f044 0401 	orrne.w	r4, r4, #1

        /* No need for clear of Error Warning Flag as read-only */
      }

      /* Check Error Passive Flag */
      if (((interrupts & CAN_IT_ERROR_PASSIVE) != 0U) &&
 80023fe:	05b0      	lsls	r0, r6, #22
 8002400:	d504      	bpl.n	800240c <HAL_CAN_IRQHandler+0x134>
 8002402:	f018 0f02 	tst.w	r8, #2
          ((esrflags & CAN_ESR_EPVF) != 0U))
      {
        /* Set CAN error code to Error Passive */
        errorcode |= HAL_CAN_ERROR_EPV;
 8002406:	bf18      	it	ne
 8002408:	f044 0402 	orrne.w	r4, r4, #2

        /* No need for clear of Error Passive Flag as read-only */
      }

      /* Check Bus-off Flag */
      if (((interrupts & CAN_IT_BUSOFF) != 0U) &&
 800240c:	0571      	lsls	r1, r6, #21
 800240e:	d504      	bpl.n	800241a <HAL_CAN_IRQHandler+0x142>
 8002410:	f018 0f04 	tst.w	r8, #4
          ((esrflags & CAN_ESR_BOFF) != 0U))
      {
        /* Set CAN error code to Bus-Off */
        errorcode |= HAL_CAN_ERROR_BOF;
 8002414:	bf18      	it	ne
 8002416:	f044 0404 	orrne.w	r4, r4, #4

        /* No need for clear of Error Bus-Off as read-only */
      }

      /* Check Last Error Code Flag */
      if (((interrupts & CAN_IT_LAST_ERROR_CODE) != 0U) &&
 800241a:	0533      	lsls	r3, r6, #20
 800241c:	d50f      	bpl.n	800243e <HAL_CAN_IRQHandler+0x166>
 800241e:	f018 0370 	ands.w	r3, r8, #112	; 0x70
 8002422:	d00c      	beq.n	800243e <HAL_CAN_IRQHandler+0x166>
          ((esrflags & CAN_ESR_LEC) != 0U))
      {
        switch (esrflags & CAN_ESR_LEC)
 8002424:	2b40      	cmp	r3, #64	; 0x40
 8002426:	d04f      	beq.n	80024c8 <HAL_CAN_IRQHandler+0x1f0>
 8002428:	d83e      	bhi.n	80024a8 <HAL_CAN_IRQHandler+0x1d0>
 800242a:	2b20      	cmp	r3, #32
 800242c:	d046      	beq.n	80024bc <HAL_CAN_IRQHandler+0x1e4>
 800242e:	2b30      	cmp	r3, #48	; 0x30
 8002430:	d047      	beq.n	80024c2 <HAL_CAN_IRQHandler+0x1ea>
 8002432:	2b10      	cmp	r3, #16
 8002434:	d03f      	beq.n	80024b6 <HAL_CAN_IRQHandler+0x1de>
          default:
            break;
        }

        /* Clear Last error code Flag */
        CLEAR_BIT(hcan->Instance->ESR, CAN_ESR_LEC);
 8002436:	6993      	ldr	r3, [r2, #24]
 8002438:	f023 0370 	bic.w	r3, r3, #112	; 0x70
 800243c:	6193      	str	r3, [r2, #24]
      }
    }

    /* Clear ERRI Flag */
    __HAL_CAN_CLEAR_FLAG(hcan, CAN_FLAG_ERRI);
 800243e:	2304      	movs	r3, #4
 8002440:	6053      	str	r3, [r2, #4]
  }

  /* Call the Error call Back in case of Errors */
  if (errorcode != HAL_CAN_ERROR_NONE)
 8002442:	b12c      	cbz	r4, 8002450 <HAL_CAN_IRQHandler+0x178>
  {
    /* Update error code in handle */
    hcan->ErrorCode |= errorcode;
 8002444:	6a6b      	ldr	r3, [r5, #36]	; 0x24
 8002446:	4323      	orrs	r3, r4
 8002448:	626b      	str	r3, [r5, #36]	; 0x24
#if USE_HAL_CAN_REGISTER_CALLBACKS == 1
    /* Call registered callback*/
    hcan->ErrorCallback(hcan);
#else
    /* Call weak (surcharged) callback */
    HAL_CAN_ErrorCallback(hcan);
 800244a:	4628      	mov	r0, r5
 800244c:	f7ff ff43 	bl	80022d6 <HAL_CAN_ErrorCallback>
#endif /* USE_HAL_CAN_REGISTER_CALLBACKS */
  }
}
 8002450:	e8bd 8ff8 	ldmia.w	sp!, {r3, r4, r5, r6, r7, r8, r9, sl, fp, pc}
        if ((tsrflags & CAN_TSR_ALST0) != 0U)
 8002454:	077a      	lsls	r2, r7, #29
 8002456:	d405      	bmi.n	8002464 <HAL_CAN_IRQHandler+0x18c>
        else if ((tsrflags & CAN_TSR_TERR0) != 0U)
 8002458:	f017 0408 	ands.w	r4, r7, #8
 800245c:	d105      	bne.n	800246a <HAL_CAN_IRQHandler+0x192>
          HAL_CAN_TxMailbox0AbortCallback(hcan);
 800245e:	f7ff ff31 	bl	80022c4 <HAL_CAN_TxMailbox0AbortCallback>
 8002462:	e755      	b.n	8002310 <HAL_CAN_IRQHandler+0x38>
          errorcode |= HAL_CAN_ERROR_TX_ALST0;
 8002464:	f44f 6400 	mov.w	r4, #2048	; 0x800
 8002468:	e752      	b.n	8002310 <HAL_CAN_IRQHandler+0x38>
          errorcode |= HAL_CAN_ERROR_TX_TERR0;
 800246a:	f44f 5480 	mov.w	r4, #4096	; 0x1000
 800246e:	e74f      	b.n	8002310 <HAL_CAN_IRQHandler+0x38>
        if ((tsrflags & CAN_TSR_ALST1) != 0U)
 8002470:	0579      	lsls	r1, r7, #21
 8002472:	d502      	bpl.n	800247a <HAL_CAN_IRQHandler+0x1a2>
          errorcode |= HAL_CAN_ERROR_TX_ALST1;
 8002474:	f444 5400 	orr.w	r4, r4, #8192	; 0x2000
 8002478:	e756      	b.n	8002328 <HAL_CAN_IRQHandler+0x50>
        else if ((tsrflags & CAN_TSR_TERR1) != 0U)
 800247a:	053a      	lsls	r2, r7, #20
 800247c:	d502      	bpl.n	8002484 <HAL_CAN_IRQHandler+0x1ac>
          errorcode |= HAL_CAN_ERROR_TX_TERR1;
 800247e:	f444 4480 	orr.w	r4, r4, #16384	; 0x4000
 8002482:	e751      	b.n	8002328 <HAL_CAN_IRQHandler+0x50>
          HAL_CAN_TxMailbox1AbortCallback(hcan);
 8002484:	4628      	mov	r0, r5
 8002486:	f7ff ff1e 	bl	80022c6 <HAL_CAN_TxMailbox1AbortCallback>
 800248a:	e74d      	b.n	8002328 <HAL_CAN_IRQHandler+0x50>
        if ((tsrflags & CAN_TSR_ALST2) != 0U)
 800248c:	0379      	lsls	r1, r7, #13
 800248e:	d502      	bpl.n	8002496 <HAL_CAN_IRQHandler+0x1be>
          errorcode |= HAL_CAN_ERROR_TX_ALST2;
 8002490:	f444 4400 	orr.w	r4, r4, #32768	; 0x8000
 8002494:	e754      	b.n	8002340 <HAL_CAN_IRQHandler+0x68>
        else if ((tsrflags & CAN_TSR_TERR2) != 0U)
 8002496:	033a      	lsls	r2, r7, #12
 8002498:	d502      	bpl.n	80024a0 <HAL_CAN_IRQHandler+0x1c8>
          errorcode |= HAL_CAN_ERROR_TX_TERR2;
 800249a:	f444 3480 	orr.w	r4, r4, #65536	; 0x10000
 800249e:	e74f      	b.n	8002340 <HAL_CAN_IRQHandler+0x68>
          HAL_CAN_TxMailbox2AbortCallback(hcan);
 80024a0:	4628      	mov	r0, r5
 80024a2:	f7ff ff11 	bl	80022c8 <HAL_CAN_TxMailbox2AbortCallback>
 80024a6:	e74b      	b.n	8002340 <HAL_CAN_IRQHandler+0x68>
        switch (esrflags & CAN_ESR_LEC)
 80024a8:	2b50      	cmp	r3, #80	; 0x50
 80024aa:	d010      	beq.n	80024ce <HAL_CAN_IRQHandler+0x1f6>
 80024ac:	2b60      	cmp	r3, #96	; 0x60
 80024ae:	d1c2      	bne.n	8002436 <HAL_CAN_IRQHandler+0x15e>
            errorcode |= HAL_CAN_ERROR_CRC;
 80024b0:	f444 7480 	orr.w	r4, r4, #256	; 0x100
            break;
 80024b4:	e7bf      	b.n	8002436 <HAL_CAN_IRQHandler+0x15e>
            errorcode |= HAL_CAN_ERROR_STF;
 80024b6:	f044 0408 	orr.w	r4, r4, #8
            break;
 80024ba:	e7bc      	b.n	8002436 <HAL_CAN_IRQHandler+0x15e>
            errorcode |= HAL_CAN_ERROR_FOR;
 80024bc:	f044 0410 	orr.w	r4, r4, #16
            break;
 80024c0:	e7b9      	b.n	8002436 <HAL_CAN_IRQHandler+0x15e>
            errorcode |= HAL_CAN_ERROR_ACK;
 80024c2:	f044 0420 	orr.w	r4, r4, #32
            break;
 80024c6:	e7b6      	b.n	8002436 <HAL_CAN_IRQHandler+0x15e>
            errorcode |= HAL_CAN_ERROR_BR;
 80024c8:	f044 0440 	orr.w	r4, r4, #64	; 0x40
            break;
 80024cc:	e7b3      	b.n	8002436 <HAL_CAN_IRQHandler+0x15e>
            errorcode |= HAL_CAN_ERROR_BD;
 80024ce:	f044 0480 	orr.w	r4, r4, #128	; 0x80
            break;
 80024d2:	e7b0      	b.n	8002436 <HAL_CAN_IRQHandler+0x15e>

080024d4 <HAL_NVIC_SetPriorityGrouping>:
__STATIC_INLINE void __NVIC_SetPriorityGrouping(uint32_t PriorityGroup)
{
  uint32_t reg_value;
  uint32_t PriorityGroupTmp = (PriorityGroup & (uint32_t)0x07UL);             /* only values 0..7 are used          */

  reg_value  =  SCB->AIRCR;                                                   /* read old register configuration    */
 80024d4:	4907      	ldr	r1, [pc, #28]	; (80024f4 <HAL_NVIC_SetPriorityGrouping+0x20>)
 80024d6:	68ca      	ldr	r2, [r1, #12]
  reg_value &= ~((uint32_t)(SCB_AIRCR_VECTKEY_Msk | SCB_AIRCR_PRIGROUP_Msk)); /* clear bits to change               */
 80024d8:	f422 62e0 	bic.w	r2, r2, #1792	; 0x700
  reg_value  =  (reg_value                                   |
                ((uint32_t)0x5FAUL << SCB_AIRCR_VECTKEY_Pos) |
                (PriorityGroupTmp << SCB_AIRCR_PRIGROUP_Pos)  );              /* Insert write key and priority group */
 80024dc:	0203      	lsls	r3, r0, #8
  reg_value &= ~((uint32_t)(SCB_AIRCR_VECTKEY_Msk | SCB_AIRCR_PRIGROUP_Msk)); /* clear bits to change               */
 80024de:	0412      	lsls	r2, r2, #16
                (PriorityGroupTmp << SCB_AIRCR_PRIGROUP_Pos)  );              /* Insert write key and priority group */
 80024e0:	f403 63e0 	and.w	r3, r3, #1792	; 0x700
  reg_value &= ~((uint32_t)(SCB_AIRCR_VECTKEY_Msk | SCB_AIRCR_PRIGROUP_Msk)); /* clear bits to change               */
 80024e4:	0c12      	lsrs	r2, r2, #16
                ((uint32_t)0x5FAUL << SCB_AIRCR_VECTKEY_Pos) |
 80024e6:	4313      	orrs	r3, r2
  reg_value  =  (reg_value                                   |
 80024e8:	f043 63bf 	orr.w	r3, r3, #100139008	; 0x5f80000
 80024ec:	f443 3300 	orr.w	r3, r3, #131072	; 0x20000
  SCB->AIRCR =  reg_value;
 80024f0:	60cb      	str	r3, [r1, #12]
  /* Check the parameters */
  assert_param(IS_NVIC_PRIORITY_GROUP(PriorityGroup));
  
  /* Set the PRIGROUP[10:8] bits according to the PriorityGroup parameter value */
  NVIC_SetPriorityGrouping(PriorityGroup);
}
 80024f2:	4770      	bx	lr
 80024f4:	e000ed00 	.word	0xe000ed00

080024f8 <HAL_NVIC_SetPriority>:
  \details Reads the priority grouping field from the NVIC Interrupt Controller.
  \return                Priority grouping field (SCB->AIRCR [10:8] PRIGROUP field).
 */
__STATIC_INLINE uint32_t __NVIC_GetPriorityGrouping(void)
{
  return ((uint32_t)((SCB->AIRCR & SCB_AIRCR_PRIGROUP_Msk) >> SCB_AIRCR_PRIGROUP_Pos));
 80024f8:	4b16      	ldr	r3, [pc, #88]	; (8002554 <HAL_NVIC_SetPriority+0x5c>)
  *         This parameter can be a value between 0 and 15
  *         A lower priority value indicates a higher priority.          
  * @retval None
  */
void HAL_NVIC_SetPriority(IRQn_Type IRQn, uint32_t PreemptPriority, uint32_t SubPriority)
{ 
 80024fa:	b530      	push	{r4, r5, lr}
 80024fc:	68dc      	ldr	r4, [r3, #12]
 80024fe:	f3c4 2402 	ubfx	r4, r4, #8, #3
{
  uint32_t PriorityGroupTmp = (PriorityGroup & (uint32_t)0x07UL);   /* only values 0..7 are used          */
  uint32_t PreemptPriorityBits;
  uint32_t SubPriorityBits;

  PreemptPriorityBits = ((7UL - PriorityGroupTmp) > (uint32_t)(__NVIC_PRIO_BITS)) ? (uint32_t)(__NVIC_PRIO_BITS) : (uint32_t)(7UL - PriorityGroupTmp);
 8002502:	f1c4 0307 	rsb	r3, r4, #7
  SubPriorityBits     = ((PriorityGroupTmp + (uint32_t)(__NVIC_PRIO_BITS)) < (uint32_t)7UL) ? (uint32_t)0UL : (uint32_t)((PriorityGroupTmp - 7UL) + (uint32_t)(__NVIC_PRIO_BITS));
 8002506:	1d25      	adds	r5, r4, #4
  PreemptPriorityBits = ((7UL - PriorityGroupTmp) > (uint32_t)(__NVIC_PRIO_BITS)) ? (uint32_t)(__NVIC_PRIO_BITS) : (uint32_t)(7UL - PriorityGroupTmp);
 8002508:	2b04      	cmp	r3, #4
 800250a:	bf28      	it	cs
 800250c:	2304      	movcs	r3, #4
  SubPriorityBits     = ((PriorityGroupTmp + (uint32_t)(__NVIC_PRIO_BITS)) < (uint32_t)7UL) ? (uint32_t)0UL : (uint32_t)((PriorityGroupTmp - 7UL) + (uint32_t)(__NVIC_PRIO_BITS));
 800250e:	2d06      	cmp	r5, #6

  return (
           ((PreemptPriority & (uint32_t)((1UL << (PreemptPriorityBits)) - 1UL)) << SubPriorityBits) |
 8002510:	f04f 35ff 	mov.w	r5, #4294967295
  SubPriorityBits     = ((PriorityGroupTmp + (uint32_t)(__NVIC_PRIO_BITS)) < (uint32_t)7UL) ? (uint32_t)0UL : (uint32_t)((PriorityGroupTmp - 7UL) + (uint32_t)(__NVIC_PRIO_BITS));
 8002514:	bf8c      	ite	hi
 8002516:	3c03      	subhi	r4, #3
 8002518:	2400      	movls	r4, #0
           ((PreemptPriority & (uint32_t)((1UL << (PreemptPriorityBits)) - 1UL)) << SubPriorityBits) |
 800251a:	fa05 f303 	lsl.w	r3, r5, r3
 800251e:	ea21 0303 	bic.w	r3, r1, r3
           ((SubPriority     & (uint32_t)((1UL << (SubPriorityBits    )) - 1UL)))
 8002522:	40a5      	lsls	r5, r4
 8002524:	ea22 0205 	bic.w	r2, r2, r5
           ((PreemptPriority & (uint32_t)((1UL << (PreemptPriorityBits)) - 1UL)) << SubPriorityBits) |
 8002528:	40a3      	lsls	r3, r4
  if ((int32_t)(IRQn) >= 0)
 800252a:	2800      	cmp	r0, #0
           ((PreemptPriority & (uint32_t)((1UL << (PreemptPriorityBits)) - 1UL)) << SubPriorityBits) |
 800252c:	ea43 0302 	orr.w	r3, r3, r2
    NVIC->IP[((uint32_t)IRQn)]               = (uint8_t)((priority << (8U - __NVIC_PRIO_BITS)) & (uint32_t)0xFFUL);
 8002530:	bfac      	ite	ge
 8002532:	f100 4060 	addge.w	r0, r0, #3758096384	; 0xe0000000
    SCB->SHP[(((uint32_t)IRQn) & 0xFUL)-4UL] = (uint8_t)((priority << (8U - __NVIC_PRIO_BITS)) & (uint32_t)0xFFUL);
 8002536:	4a08      	ldrlt	r2, [pc, #32]	; (8002558 <HAL_NVIC_SetPriority+0x60>)
    NVIC->IP[((uint32_t)IRQn)]               = (uint8_t)((priority << (8U - __NVIC_PRIO_BITS)) & (uint32_t)0xFFUL);
 8002538:	ea4f 1303 	mov.w	r3, r3, lsl #4
    SCB->SHP[(((uint32_t)IRQn) & 0xFUL)-4UL] = (uint8_t)((priority << (8U - __NVIC_PRIO_BITS)) & (uint32_t)0xFFUL);
 800253c:	bfb8      	it	lt
 800253e:	f000 000f 	andlt.w	r0, r0, #15
    NVIC->IP[((uint32_t)IRQn)]               = (uint8_t)((priority << (8U - __NVIC_PRIO_BITS)) & (uint32_t)0xFFUL);
 8002542:	b2db      	uxtb	r3, r3
 8002544:	bfaa      	itet	ge
 8002546:	f500 4061 	addge.w	r0, r0, #57600	; 0xe100
    SCB->SHP[(((uint32_t)IRQn) & 0xFUL)-4UL] = (uint8_t)((priority << (8U - __NVIC_PRIO_BITS)) & (uint32_t)0xFFUL);
 800254a:	5413      	strblt	r3, [r2, r0]
    NVIC->IP[((uint32_t)IRQn)]               = (uint8_t)((priority << (8U - __NVIC_PRIO_BITS)) & (uint32_t)0xFFUL);
 800254c:	f880 3300 	strbge.w	r3, [r0, #768]	; 0x300
  assert_param(IS_NVIC_PREEMPTION_PRIORITY(PreemptPriority));
  
  prioritygroup = NVIC_GetPriorityGrouping();
  
  NVIC_SetPriority(IRQn, NVIC_EncodePriority(prioritygroup, PreemptPriority, SubPriority));
}
 8002550:	bd30      	pop	{r4, r5, pc}
 8002552:	bf00      	nop
 8002554:	e000ed00 	.word	0xe000ed00
 8002558:	e000ed14 	.word	0xe000ed14

0800255c <HAL_NVIC_EnableIRQ>:
  if ((int32_t)(IRQn) >= 0)
 800255c:	2800      	cmp	r0, #0
 800255e:	db07      	blt.n	8002570 <HAL_NVIC_EnableIRQ+0x14>
    NVIC->ISER[(((uint32_t)IRQn) >> 5UL)] = (uint32_t)(1UL << (((uint32_t)IRQn) & 0x1FUL));
 8002560:	4a04      	ldr	r2, [pc, #16]	; (8002574 <HAL_NVIC_EnableIRQ+0x18>)
 8002562:	0941      	lsrs	r1, r0, #5
 8002564:	2301      	movs	r3, #1
 8002566:	f000 001f 	and.w	r0, r0, #31
 800256a:	4083      	lsls	r3, r0
 800256c:	f842 3021 	str.w	r3, [r2, r1, lsl #2]
  /* Check the parameters */
  assert_param(IS_NVIC_DEVICE_IRQ(IRQn));
  
  /* Enable interrupt */
  NVIC_EnableIRQ(IRQn);
}
 8002570:	4770      	bx	lr
 8002572:	bf00      	nop
 8002574:	e000e100 	.word	0xe000e100

08002578 <HAL_SYSTICK_Config>:
           function <b>SysTick_Config</b> is not included. In this case, the file <b><i>device</i>.h</b>
           must contain a vendor-specific implementation of this function.
 */
__STATIC_INLINE uint32_t SysTick_Config(uint32_t ticks)
{
  if ((ticks - 1UL) > SysTick_LOAD_RELOAD_Msk)
 8002578:	3801      	subs	r0, #1
 800257a:	f1b0 7f80 	cmp.w	r0, #16777216	; 0x1000000
 800257e:	d20b      	bcs.n	8002598 <HAL_SYSTICK_Config+0x20>
  {
    return (1UL);                                                   /* Reload value impossible */
  }

  SysTick->LOAD  = (uint32_t)(ticks - 1UL);                         /* set reload register */
 8002580:	f04f 23e0 	mov.w	r3, #3758153728	; 0xe000e000
    SCB->SHP[(((uint32_t)IRQn) & 0xFUL)-4UL] = (uint8_t)((priority << (8U - __NVIC_PRIO_BITS)) & (uint32_t)0xFFUL);
 8002584:	4a05      	ldr	r2, [pc, #20]	; (800259c <HAL_SYSTICK_Config+0x24>)
  SysTick->LOAD  = (uint32_t)(ticks - 1UL);                         /* set reload register */
 8002586:	6158      	str	r0, [r3, #20]
    SCB->SHP[(((uint32_t)IRQn) & 0xFUL)-4UL] = (uint8_t)((priority << (8U - __NVIC_PRIO_BITS)) & (uint32_t)0xFFUL);
 8002588:	21f0      	movs	r1, #240	; 0xf0
 800258a:	f882 1023 	strb.w	r1, [r2, #35]	; 0x23
  NVIC_SetPriority (SysTick_IRQn, (1UL << __NVIC_PRIO_BITS) - 1UL); /* set Priority for Systick Interrupt */
  SysTick->VAL   = 0UL;                                             /* Load the SysTick Counter Value */
 800258e:	2000      	movs	r0, #0
  SysTick->CTRL  = SysTick_CTRL_CLKSOURCE_Msk |
 8002590:	2207      	movs	r2, #7
  SysTick->VAL   = 0UL;                                             /* Load the SysTick Counter Value */
 8002592:	6198      	str	r0, [r3, #24]
  SysTick->CTRL  = SysTick_CTRL_CLKSOURCE_Msk |
 8002594:	611a      	str	r2, [r3, #16]
                   SysTick_CTRL_TICKINT_Msk   |
                   SysTick_CTRL_ENABLE_Msk;                         /* Enable SysTick IRQ and SysTick Timer */
  return (0UL);                                                     /* Function successful */
 8002596:	4770      	bx	lr
    return (1UL);                                                   /* Reload value impossible */
 8002598:	2001      	movs	r0, #1
  *                  - 1  Function failed.
  */
uint32_t HAL_SYSTICK_Config(uint32_t TicksNumb)
{
   return SysTick_Config(TicksNumb);
}
 800259a:	4770      	bx	lr
 800259c:	e000ed00 	.word	0xe000ed00

080025a0 <HAL_CRC_Init>:
  *         parameters in the CRC_InitTypeDef and create the associated handle.
  * @param  hcrc CRC handle
  * @retval HAL status
  */
HAL_StatusTypeDef HAL_CRC_Init(CRC_HandleTypeDef *hcrc)
{
 80025a0:	b510      	push	{r4, lr}
  /* Check the CRC handle allocation */
  if (hcrc == NULL)
 80025a2:	4604      	mov	r4, r0
 80025a4:	b150      	cbz	r0, 80025bc <HAL_CRC_Init+0x1c>
  }

  /* Check the parameters */
  assert_param(IS_CRC_ALL_INSTANCE(hcrc->Instance));

  if (hcrc->State == HAL_CRC_STATE_RESET)
 80025a6:	7943      	ldrb	r3, [r0, #5]
 80025a8:	f003 02ff 	and.w	r2, r3, #255	; 0xff
 80025ac:	b913      	cbnz	r3, 80025b4 <HAL_CRC_Init+0x14>
  {
    /* Allocate lock resource and initialize it */
    hcrc->Lock = HAL_UNLOCKED;
 80025ae:	7102      	strb	r2, [r0, #4]
    /* Init the low level hardware */
    HAL_CRC_MspInit(hcrc);
 80025b0:	f7ff f93e 	bl	8001830 <HAL_CRC_MspInit>
  }

  /* Change CRC peripheral state */
  hcrc->State = HAL_CRC_STATE_READY;
 80025b4:	2301      	movs	r3, #1
 80025b6:	7163      	strb	r3, [r4, #5]

  /* Return function status */
  return HAL_OK;
 80025b8:	2000      	movs	r0, #0
}
 80025ba:	bd10      	pop	{r4, pc}
    return HAL_ERROR;
 80025bc:	2001      	movs	r0, #1
 80025be:	e7fc      	b.n	80025ba <HAL_CRC_Init+0x1a>

080025c0 <DMA_CalcBaseAndBitshift>:
  *                     the configuration information for the specified DMA Stream. 
  * @retval Stream base address
  */
static uint32_t DMA_CalcBaseAndBitshift(DMA_HandleTypeDef *hdma)
{
  uint32_t stream_number = (((uint32_t)hdma->Instance & 0xFFU) - 16U) / 24U;
 80025c0:	6803      	ldr	r3, [r0, #0]
{
 80025c2:	b510      	push	{r4, lr}
  uint32_t stream_number = (((uint32_t)hdma->Instance & 0xFFU) - 16U) / 24U;
 80025c4:	b2da      	uxtb	r2, r3
 80025c6:	3a10      	subs	r2, #16
  
  /* lookup table for necessary bitshift of flags within status registers */
  static const uint8_t flagBitshiftOffset[8U] = {0U, 6U, 16U, 22U, 0U, 6U, 16U, 22U};
  hdma->StreamIndex = flagBitshiftOffset[stream_number];
 80025c8:	4c07      	ldr	r4, [pc, #28]	; (80025e8 <DMA_CalcBaseAndBitshift+0x28>)
  
  if (stream_number > 3U)
  {
    /* return pointer to HISR and HIFCR */
    hdma->StreamBaseAddress = (((uint32_t)hdma->Instance & (uint32_t)(~0x3FFU)) + 4U);
 80025ca:	f423 737f 	bic.w	r3, r3, #1020	; 0x3fc
 80025ce:	f023 0303 	bic.w	r3, r3, #3
  if (stream_number > 3U)
 80025d2:	2a5f      	cmp	r2, #95	; 0x5f
    hdma->StreamBaseAddress = (((uint32_t)hdma->Instance & (uint32_t)(~0x3FFU)) + 4U);
 80025d4:	bf88      	it	hi
 80025d6:	3304      	addhi	r3, #4
  uint32_t stream_number = (((uint32_t)hdma->Instance & 0xFFU) - 16U) / 24U;
 80025d8:	2118      	movs	r1, #24
 80025da:	fbb2 f1f1 	udiv	r1, r2, r1
  hdma->StreamIndex = flagBitshiftOffset[stream_number];
 80025de:	5c61      	ldrb	r1, [r4, r1]
 80025e0:	65c1      	str	r1, [r0, #92]	; 0x5c
    hdma->StreamBaseAddress = (((uint32_t)hdma->Instance & (uint32_t)(~0x3FFU)) + 4U);
 80025e2:	6583      	str	r3, [r0, #88]	; 0x58
    /* return pointer to LISR and LIFCR */
    hdma->StreamBaseAddress = ((uint32_t)hdma->Instance & (uint32_t)(~0x3FFU));
  }
  
  return hdma->StreamBaseAddress;
}
 80025e4:	4618      	mov	r0, r3
 80025e6:	bd10      	pop	{r4, pc}
 80025e8:	0800aade 	.word	0x0800aade

080025ec <HAL_DMA_Init>:
{
 80025ec:	b570      	push	{r4, r5, r6, lr}
 80025ee:	4604      	mov	r4, r0
  uint32_t tickstart = HAL_GetTick();
 80025f0:	f7ff fa6c 	bl	8001acc <HAL_GetTick>
 80025f4:	4605      	mov	r5, r0
  if(hdma == NULL)
 80025f6:	2c00      	cmp	r4, #0
 80025f8:	d071      	beq.n	80026de <HAL_DMA_Init+0xf2>
  hdma->State = HAL_DMA_STATE_BUSY;
 80025fa:	2302      	movs	r3, #2
 80025fc:	f884 3035 	strb.w	r3, [r4, #53]	; 0x35
  __HAL_DMA_DISABLE(hdma);
 8002600:	6822      	ldr	r2, [r4, #0]
  __HAL_UNLOCK(hdma);
 8002602:	2300      	movs	r3, #0
 8002604:	f884 3034 	strb.w	r3, [r4, #52]	; 0x34
  __HAL_DMA_DISABLE(hdma);
 8002608:	6813      	ldr	r3, [r2, #0]
 800260a:	f023 0301 	bic.w	r3, r3, #1
 800260e:	6013      	str	r3, [r2, #0]
  while((hdma->Instance->CR & DMA_SxCR_EN) != RESET)
 8002610:	6822      	ldr	r2, [r4, #0]
 8002612:	6813      	ldr	r3, [r2, #0]
 8002614:	07d8      	lsls	r0, r3, #31
 8002616:	d42e      	bmi.n	8002676 <HAL_DMA_Init+0x8a>
  tmp = hdma->Instance->CR;
 8002618:	6813      	ldr	r3, [r2, #0]
  tmp &= ((uint32_t)~(DMA_SxCR_CHSEL | DMA_SxCR_MBURST | DMA_SxCR_PBURST | \
 800261a:	4832      	ldr	r0, [pc, #200]	; (80026e4 <HAL_DMA_Init+0xf8>)
          hdma->Init.PeriphDataAlignment | hdma->Init.MemDataAlignment |
 800261c:	69a1      	ldr	r1, [r4, #24]
  tmp &= ((uint32_t)~(DMA_SxCR_CHSEL | DMA_SxCR_MBURST | DMA_SxCR_PBURST | \
 800261e:	4018      	ands	r0, r3
  tmp |=  hdma->Init.Channel             | hdma->Init.Direction        |
 8002620:	e9d4 3501 	ldrd	r3, r5, [r4, #4]
 8002624:	432b      	orrs	r3, r5
 8002626:	68e5      	ldr	r5, [r4, #12]
 8002628:	432b      	orrs	r3, r5
          hdma->Init.PeriphInc           | hdma->Init.MemInc           |
 800262a:	6925      	ldr	r5, [r4, #16]
 800262c:	432b      	orrs	r3, r5
 800262e:	6965      	ldr	r5, [r4, #20]
 8002630:	432b      	orrs	r3, r5
          hdma->Init.PeriphDataAlignment | hdma->Init.MemDataAlignment |
 8002632:	69e5      	ldr	r5, [r4, #28]
 8002634:	430b      	orrs	r3, r1
 8002636:	432b      	orrs	r3, r5
          hdma->Init.Mode                | hdma->Init.Priority;
 8002638:	6a25      	ldr	r5, [r4, #32]
 800263a:	432b      	orrs	r3, r5
  tmp |=  hdma->Init.Channel             | hdma->Init.Direction        |
 800263c:	4303      	orrs	r3, r0
  if(hdma->Init.FIFOMode == DMA_FIFOMODE_ENABLE)
 800263e:	6a60      	ldr	r0, [r4, #36]	; 0x24
 8002640:	2804      	cmp	r0, #4
    tmp |=  hdma->Init.MemBurst | hdma->Init.PeriphBurst;
 8002642:	bf02      	ittt	eq
 8002644:	e9d4 560b 	ldrdeq	r5, r6, [r4, #44]	; 0x2c
 8002648:	4335      	orreq	r5, r6
 800264a:	432b      	orreq	r3, r5
  hdma->Instance->CR = tmp;  
 800264c:	6013      	str	r3, [r2, #0]
  tmp = hdma->Instance->FCR;
 800264e:	6953      	ldr	r3, [r2, #20]
  if(hdma->Init.FIFOMode == DMA_FIFOMODE_ENABLE)
 8002650:	2804      	cmp	r0, #4
  tmp &= (uint32_t)~(DMA_SxFCR_DMDIS | DMA_SxFCR_FTH);
 8002652:	f023 0307 	bic.w	r3, r3, #7
  tmp |= hdma->Init.FIFOMode;
 8002656:	ea43 0300 	orr.w	r3, r3, r0
  if(hdma->Init.FIFOMode == DMA_FIFOMODE_ENABLE)
 800265a:	d132      	bne.n	80026c2 <HAL_DMA_Init+0xd6>
    tmp |= hdma->Init.FIFOThreshold;
 800265c:	6aa0      	ldr	r0, [r4, #40]	; 0x28
    if (hdma->Init.MemBurst != DMA_MBURST_SINGLE)
 800265e:	6ae5      	ldr	r5, [r4, #44]	; 0x2c
    tmp |= hdma->Init.FIFOThreshold;
 8002660:	4303      	orrs	r3, r0
    if (hdma->Init.MemBurst != DMA_MBURST_SINGLE)
 8002662:	b375      	cbz	r5, 80026c2 <HAL_DMA_Init+0xd6>
{
  HAL_StatusTypeDef status = HAL_OK;
  uint32_t tmp = hdma->Init.FIFOThreshold;
  
  /* Memory Data size equal to Byte */
  if(hdma->Init.MemDataAlignment == DMA_MDATAALIGN_BYTE)
 8002664:	b991      	cbnz	r1, 800268c <HAL_DMA_Init+0xa0>
  {
    switch (tmp)
 8002666:	2801      	cmp	r0, #1
 8002668:	d020      	beq.n	80026ac <HAL_DMA_Init+0xc0>
 800266a:	f030 0102 	bics.w	r1, r0, #2
 800266e:	d128      	bne.n	80026c2 <HAL_DMA_Init+0xd6>
    case DMA_FIFO_THRESHOLD_HALFFULL:
    case DMA_FIFO_THRESHOLD_3QUARTERSFULL:
      status = HAL_ERROR;
      break;
    case DMA_FIFO_THRESHOLD_FULL:
      if ((hdma->Init.MemBurst & DMA_SxCR_MBURST_1) == DMA_SxCR_MBURST_1)
 8002670:	01e9      	lsls	r1, r5, #7
 8002672:	d526      	bpl.n	80026c2 <HAL_DMA_Init+0xd6>
 8002674:	e01d      	b.n	80026b2 <HAL_DMA_Init+0xc6>
    if((HAL_GetTick() - tickstart ) > HAL_TIMEOUT_DMA_ABORT)
 8002676:	f7ff fa29 	bl	8001acc <HAL_GetTick>
 800267a:	1b40      	subs	r0, r0, r5
 800267c:	2805      	cmp	r0, #5
 800267e:	d9c7      	bls.n	8002610 <HAL_DMA_Init+0x24>
      hdma->ErrorCode = HAL_DMA_ERROR_TIMEOUT;
 8002680:	2320      	movs	r3, #32
 8002682:	6563      	str	r3, [r4, #84]	; 0x54
      hdma->State = HAL_DMA_STATE_TIMEOUT;
 8002684:	2003      	movs	r0, #3
        hdma->State = HAL_DMA_STATE_READY;
 8002686:	f884 0035 	strb.w	r0, [r4, #53]	; 0x35
}
 800268a:	bd70      	pop	{r4, r5, r6, pc}
  else if (hdma->Init.MemDataAlignment == DMA_MDATAALIGN_HALFWORD)
 800268c:	f5b1 5f00 	cmp.w	r1, #8192	; 0x2000
 8002690:	d113      	bne.n	80026ba <HAL_DMA_Init+0xce>
    switch (tmp)
 8002692:	2803      	cmp	r0, #3
 8002694:	d815      	bhi.n	80026c2 <HAL_DMA_Init+0xd6>
 8002696:	a101      	add	r1, pc, #4	; (adr r1, 800269c <HAL_DMA_Init+0xb0>)
 8002698:	f851 f020 	ldr.w	pc, [r1, r0, lsl #2]
 800269c:	080026b3 	.word	0x080026b3
 80026a0:	08002671 	.word	0x08002671
 80026a4:	080026b3 	.word	0x080026b3
 80026a8:	080026ad 	.word	0x080026ad
      if (hdma->Init.MemBurst == DMA_MBURST_INC16)
 80026ac:	f1b5 7fc0 	cmp.w	r5, #25165824	; 0x1800000
 80026b0:	d107      	bne.n	80026c2 <HAL_DMA_Init+0xd6>
        hdma->ErrorCode = HAL_DMA_ERROR_PARAM;
 80026b2:	2340      	movs	r3, #64	; 0x40
 80026b4:	6563      	str	r3, [r4, #84]	; 0x54
        hdma->State = HAL_DMA_STATE_READY;
 80026b6:	2001      	movs	r0, #1
 80026b8:	e7e5      	b.n	8002686 <HAL_DMA_Init+0x9a>
    switch (tmp)
 80026ba:	2802      	cmp	r0, #2
 80026bc:	d9f9      	bls.n	80026b2 <HAL_DMA_Init+0xc6>
 80026be:	2803      	cmp	r0, #3
 80026c0:	d0d6      	beq.n	8002670 <HAL_DMA_Init+0x84>
  hdma->Instance->FCR = tmp;
 80026c2:	6153      	str	r3, [r2, #20]
  regs = (DMA_Base_Registers *)DMA_CalcBaseAndBitshift(hdma);
 80026c4:	4620      	mov	r0, r4
 80026c6:	f7ff ff7b 	bl	80025c0 <DMA_CalcBaseAndBitshift>
  regs->IFCR = 0x3FU << hdma->StreamIndex;
 80026ca:	6de2      	ldr	r2, [r4, #92]	; 0x5c
 80026cc:	233f      	movs	r3, #63	; 0x3f
 80026ce:	4093      	lsls	r3, r2
 80026d0:	6083      	str	r3, [r0, #8]
  hdma->ErrorCode = HAL_DMA_ERROR_NONE;
 80026d2:	2000      	movs	r0, #0
  hdma->State = HAL_DMA_STATE_READY;
 80026d4:	2301      	movs	r3, #1
  hdma->ErrorCode = HAL_DMA_ERROR_NONE;
 80026d6:	6560      	str	r0, [r4, #84]	; 0x54
  hdma->State = HAL_DMA_STATE_READY;
 80026d8:	f884 3035 	strb.w	r3, [r4, #53]	; 0x35
  return HAL_OK;
 80026dc:	e7d5      	b.n	800268a <HAL_DMA_Init+0x9e>
    return HAL_ERROR;
 80026de:	2001      	movs	r0, #1
 80026e0:	e7d3      	b.n	800268a <HAL_DMA_Init+0x9e>
 80026e2:	bf00      	nop
 80026e4:	f010803f 	.word	0xf010803f

080026e8 <HAL_DMA_Start_IT>:
{
 80026e8:	b570      	push	{r4, r5, r6, lr}
  __HAL_LOCK(hdma);
 80026ea:	f890 4034 	ldrb.w	r4, [r0, #52]	; 0x34
  DMA_Base_Registers *regs = (DMA_Base_Registers *)hdma->StreamBaseAddress;
 80026ee:	6d86      	ldr	r6, [r0, #88]	; 0x58
  __HAL_LOCK(hdma);
 80026f0:	2c01      	cmp	r4, #1
 80026f2:	d031      	beq.n	8002758 <HAL_DMA_Start_IT+0x70>
 80026f4:	2401      	movs	r4, #1
 80026f6:	f880 4034 	strb.w	r4, [r0, #52]	; 0x34
  if(HAL_DMA_STATE_READY == hdma->State)
 80026fa:	f890 4035 	ldrb.w	r4, [r0, #53]	; 0x35
 80026fe:	2c01      	cmp	r4, #1
 8002700:	f04f 0500 	mov.w	r5, #0
 8002704:	f04f 0402 	mov.w	r4, #2
 8002708:	d124      	bne.n	8002754 <HAL_DMA_Start_IT+0x6c>
    hdma->State = HAL_DMA_STATE_BUSY;
 800270a:	f880 4035 	strb.w	r4, [r0, #53]	; 0x35
  hdma->Instance->CR &= (uint32_t)(~DMA_SxCR_DBM);
 800270e:	6804      	ldr	r4, [r0, #0]
    hdma->ErrorCode = HAL_DMA_ERROR_NONE;
 8002710:	6545      	str	r5, [r0, #84]	; 0x54
  hdma->Instance->CR &= (uint32_t)(~DMA_SxCR_DBM);
 8002712:	6825      	ldr	r5, [r4, #0]
 8002714:	f425 2580 	bic.w	r5, r5, #262144	; 0x40000
 8002718:	6025      	str	r5, [r4, #0]
  hdma->Instance->NDTR = DataLength;
 800271a:	6063      	str	r3, [r4, #4]
  if((hdma->Init.Direction) == DMA_MEMORY_TO_PERIPH)
 800271c:	6883      	ldr	r3, [r0, #8]
 800271e:	2b40      	cmp	r3, #64	; 0x40
    hdma->Instance->PAR = DstAddress;
 8002720:	bf0e      	itee	eq
 8002722:	60a2      	streq	r2, [r4, #8]
    hdma->Instance->PAR = SrcAddress;
 8002724:	60a1      	strne	r1, [r4, #8]
    hdma->Instance->M0AR = DstAddress;
 8002726:	60e2      	strne	r2, [r4, #12]
    regs->IFCR = 0x3FU << hdma->StreamIndex;
 8002728:	6dc2      	ldr	r2, [r0, #92]	; 0x5c
    hdma->Instance->M0AR = SrcAddress;
 800272a:	bf08      	it	eq
 800272c:	60e1      	streq	r1, [r4, #12]
    regs->IFCR = 0x3FU << hdma->StreamIndex;
 800272e:	233f      	movs	r3, #63	; 0x3f
 8002730:	4093      	lsls	r3, r2
 8002732:	60b3      	str	r3, [r6, #8]
    hdma->Instance->CR  |= DMA_IT_TC | DMA_IT_TE | DMA_IT_DME;
 8002734:	6823      	ldr	r3, [r4, #0]
 8002736:	f043 0316 	orr.w	r3, r3, #22
 800273a:	6023      	str	r3, [r4, #0]
    if(hdma->XferHalfCpltCallback != NULL)
 800273c:	6c03      	ldr	r3, [r0, #64]	; 0x40
 800273e:	b11b      	cbz	r3, 8002748 <HAL_DMA_Start_IT+0x60>
      hdma->Instance->CR  |= DMA_IT_HT;
 8002740:	6823      	ldr	r3, [r4, #0]
 8002742:	f043 0308 	orr.w	r3, r3, #8
 8002746:	6023      	str	r3, [r4, #0]
    __HAL_DMA_ENABLE(hdma);
 8002748:	6823      	ldr	r3, [r4, #0]
 800274a:	f043 0301 	orr.w	r3, r3, #1
 800274e:	6023      	str	r3, [r4, #0]
  HAL_StatusTypeDef status = HAL_OK;
 8002750:	2000      	movs	r0, #0
}
 8002752:	bd70      	pop	{r4, r5, r6, pc}
    __HAL_UNLOCK(hdma);	  
 8002754:	f880 5034 	strb.w	r5, [r0, #52]	; 0x34
  __HAL_LOCK(hdma);
 8002758:	2002      	movs	r0, #2
 800275a:	e7fa      	b.n	8002752 <HAL_DMA_Start_IT+0x6a>

0800275c <HAL_DMA_IRQHandler>:
{
 800275c:	b5f7      	push	{r0, r1, r2, r4, r5, r6, r7, lr}
  __IO uint32_t count = 0U;
 800275e:	2300      	movs	r3, #0
 8002760:	9301      	str	r3, [sp, #4]
  uint32_t timeout = SystemCoreClock / 9600U;
 8002762:	4b5c      	ldr	r3, [pc, #368]	; (80028d4 <HAL_DMA_IRQHandler+0x178>)
  DMA_Base_Registers *regs = (DMA_Base_Registers *)hdma->StreamBaseAddress;
 8002764:	6d85      	ldr	r5, [r0, #88]	; 0x58
  uint32_t timeout = SystemCoreClock / 9600U;
 8002766:	681f      	ldr	r7, [r3, #0]
  if ((tmpisr & (DMA_FLAG_TEIF0_4 << hdma->StreamIndex)) != RESET)
 8002768:	6dc3      	ldr	r3, [r0, #92]	; 0x5c
  tmpisr = regs->ISR;
 800276a:	682e      	ldr	r6, [r5, #0]
  if ((tmpisr & (DMA_FLAG_TEIF0_4 << hdma->StreamIndex)) != RESET)
 800276c:	2208      	movs	r2, #8
 800276e:	409a      	lsls	r2, r3
 8002770:	4232      	tst	r2, r6
{
 8002772:	4604      	mov	r4, r0
  if ((tmpisr & (DMA_FLAG_TEIF0_4 << hdma->StreamIndex)) != RESET)
 8002774:	d00c      	beq.n	8002790 <HAL_DMA_IRQHandler+0x34>
    if(__HAL_DMA_GET_IT_SOURCE(hdma, DMA_IT_TE) != RESET)
 8002776:	6801      	ldr	r1, [r0, #0]
 8002778:	6808      	ldr	r0, [r1, #0]
 800277a:	0740      	lsls	r0, r0, #29
 800277c:	d508      	bpl.n	8002790 <HAL_DMA_IRQHandler+0x34>
      hdma->Instance->CR  &= ~(DMA_IT_TE);
 800277e:	6808      	ldr	r0, [r1, #0]
 8002780:	f020 0004 	bic.w	r0, r0, #4
 8002784:	6008      	str	r0, [r1, #0]
      regs->IFCR = DMA_FLAG_TEIF0_4 << hdma->StreamIndex;
 8002786:	60aa      	str	r2, [r5, #8]
      hdma->ErrorCode |= HAL_DMA_ERROR_TE;
 8002788:	6d62      	ldr	r2, [r4, #84]	; 0x54
 800278a:	f042 0201 	orr.w	r2, r2, #1
 800278e:	6562      	str	r2, [r4, #84]	; 0x54
  if ((tmpisr & (DMA_FLAG_FEIF0_4 << hdma->StreamIndex)) != RESET)
 8002790:	2201      	movs	r2, #1
 8002792:	409a      	lsls	r2, r3
 8002794:	4232      	tst	r2, r6
 8002796:	d008      	beq.n	80027aa <HAL_DMA_IRQHandler+0x4e>
    if(__HAL_DMA_GET_IT_SOURCE(hdma, DMA_IT_FE) != RESET)
 8002798:	6821      	ldr	r1, [r4, #0]
 800279a:	6949      	ldr	r1, [r1, #20]
 800279c:	0609      	lsls	r1, r1, #24
      regs->IFCR = DMA_FLAG_FEIF0_4 << hdma->StreamIndex;
 800279e:	bf41      	itttt	mi
 80027a0:	60aa      	strmi	r2, [r5, #8]
      hdma->ErrorCode |= HAL_DMA_ERROR_FE;
 80027a2:	6d62      	ldrmi	r2, [r4, #84]	; 0x54
 80027a4:	f042 0202 	orrmi.w	r2, r2, #2
 80027a8:	6562      	strmi	r2, [r4, #84]	; 0x54
  if ((tmpisr & (DMA_FLAG_DMEIF0_4 << hdma->StreamIndex)) != RESET)
 80027aa:	2204      	movs	r2, #4
 80027ac:	409a      	lsls	r2, r3
 80027ae:	4232      	tst	r2, r6
 80027b0:	d008      	beq.n	80027c4 <HAL_DMA_IRQHandler+0x68>
    if(__HAL_DMA_GET_IT_SOURCE(hdma, DMA_IT_DME) != RESET)
 80027b2:	6821      	ldr	r1, [r4, #0]
 80027b4:	6809      	ldr	r1, [r1, #0]
 80027b6:	0788      	lsls	r0, r1, #30
      regs->IFCR = DMA_FLAG_DMEIF0_4 << hdma->StreamIndex;
 80027b8:	bf41      	itttt	mi
 80027ba:	60aa      	strmi	r2, [r5, #8]
      hdma->ErrorCode |= HAL_DMA_ERROR_DME;
 80027bc:	6d62      	ldrmi	r2, [r4, #84]	; 0x54
 80027be:	f042 0204 	orrmi.w	r2, r2, #4
 80027c2:	6562      	strmi	r2, [r4, #84]	; 0x54
  if ((tmpisr & (DMA_FLAG_HTIF0_4 << hdma->StreamIndex)) != RESET)
 80027c4:	2210      	movs	r2, #16
 80027c6:	409a      	lsls	r2, r3
 80027c8:	4232      	tst	r2, r6
 80027ca:	d010      	beq.n	80027ee <HAL_DMA_IRQHandler+0x92>
    if(__HAL_DMA_GET_IT_SOURCE(hdma, DMA_IT_HT) != RESET)
 80027cc:	6823      	ldr	r3, [r4, #0]
 80027ce:	6819      	ldr	r1, [r3, #0]
 80027d0:	0709      	lsls	r1, r1, #28
 80027d2:	d50c      	bpl.n	80027ee <HAL_DMA_IRQHandler+0x92>
      regs->IFCR = DMA_FLAG_HTIF0_4 << hdma->StreamIndex;
 80027d4:	60aa      	str	r2, [r5, #8]
      if(((hdma->Instance->CR) & (uint32_t)(DMA_SxCR_DBM)) != RESET)
 80027d6:	681a      	ldr	r2, [r3, #0]
 80027d8:	0350      	lsls	r0, r2, #13
 80027da:	d537      	bpl.n	800284c <HAL_DMA_IRQHandler+0xf0>
        if((hdma->Instance->CR & DMA_SxCR_CT) == RESET)
 80027dc:	681b      	ldr	r3, [r3, #0]
 80027de:	0319      	lsls	r1, r3, #12
 80027e0:	d401      	bmi.n	80027e6 <HAL_DMA_IRQHandler+0x8a>
        if(hdma->XferHalfCpltCallback != NULL)
 80027e2:	6c23      	ldr	r3, [r4, #64]	; 0x40
 80027e4:	e000      	b.n	80027e8 <HAL_DMA_IRQHandler+0x8c>
          if(hdma->XferM1HalfCpltCallback != NULL)
 80027e6:	6ca3      	ldr	r3, [r4, #72]	; 0x48
        if(hdma->XferHalfCpltCallback != NULL)
 80027e8:	b10b      	cbz	r3, 80027ee <HAL_DMA_IRQHandler+0x92>
          hdma->XferHalfCpltCallback(hdma);
 80027ea:	4620      	mov	r0, r4
 80027ec:	4798      	blx	r3
  if ((tmpisr & (DMA_FLAG_TCIF0_4 << hdma->StreamIndex)) != RESET)
 80027ee:	6de1      	ldr	r1, [r4, #92]	; 0x5c
 80027f0:	2220      	movs	r2, #32
 80027f2:	408a      	lsls	r2, r1
 80027f4:	4232      	tst	r2, r6
 80027f6:	d03a      	beq.n	800286e <HAL_DMA_IRQHandler+0x112>
    if(__HAL_DMA_GET_IT_SOURCE(hdma, DMA_IT_TC) != RESET)
 80027f8:	6823      	ldr	r3, [r4, #0]
 80027fa:	6818      	ldr	r0, [r3, #0]
 80027fc:	06c6      	lsls	r6, r0, #27
 80027fe:	d536      	bpl.n	800286e <HAL_DMA_IRQHandler+0x112>
      regs->IFCR = DMA_FLAG_TCIF0_4 << hdma->StreamIndex;
 8002800:	60aa      	str	r2, [r5, #8]
      if(HAL_DMA_STATE_ABORT == hdma->State)
 8002802:	f894 2035 	ldrb.w	r2, [r4, #53]	; 0x35
 8002806:	2a05      	cmp	r2, #5
        hdma->Instance->CR  &= ~(DMA_IT_TC | DMA_IT_TE | DMA_IT_DME);
 8002808:	681a      	ldr	r2, [r3, #0]
      if(HAL_DMA_STATE_ABORT == hdma->State)
 800280a:	d127      	bne.n	800285c <HAL_DMA_IRQHandler+0x100>
        hdma->Instance->CR  &= ~(DMA_IT_TC | DMA_IT_TE | DMA_IT_DME);
 800280c:	f022 0216 	bic.w	r2, r2, #22
 8002810:	601a      	str	r2, [r3, #0]
        hdma->Instance->FCR &= ~(DMA_IT_FE);
 8002812:	695a      	ldr	r2, [r3, #20]
 8002814:	f022 0280 	bic.w	r2, r2, #128	; 0x80
 8002818:	615a      	str	r2, [r3, #20]
        if((hdma->XferHalfCpltCallback != NULL) || (hdma->XferM1HalfCpltCallback != NULL))
 800281a:	6c22      	ldr	r2, [r4, #64]	; 0x40
 800281c:	b90a      	cbnz	r2, 8002822 <HAL_DMA_IRQHandler+0xc6>
 800281e:	6ca2      	ldr	r2, [r4, #72]	; 0x48
 8002820:	b11a      	cbz	r2, 800282a <HAL_DMA_IRQHandler+0xce>
          hdma->Instance->CR  &= ~(DMA_IT_HT);
 8002822:	681a      	ldr	r2, [r3, #0]
 8002824:	f022 0208 	bic.w	r2, r2, #8
 8002828:	601a      	str	r2, [r3, #0]
        regs->IFCR = 0x3FU << hdma->StreamIndex;
 800282a:	233f      	movs	r3, #63	; 0x3f
 800282c:	408b      	lsls	r3, r1
 800282e:	60ab      	str	r3, [r5, #8]
        hdma->State = HAL_DMA_STATE_READY;
 8002830:	2301      	movs	r3, #1
 8002832:	f884 3035 	strb.w	r3, [r4, #53]	; 0x35
        __HAL_UNLOCK(hdma);
 8002836:	2300      	movs	r3, #0
 8002838:	f884 3034 	strb.w	r3, [r4, #52]	; 0x34
        if(hdma->XferAbortCallback != NULL)
 800283c:	6d23      	ldr	r3, [r4, #80]	; 0x50
    if(hdma->XferErrorCallback != NULL)
 800283e:	2b00      	cmp	r3, #0
 8002840:	d045      	beq.n	80028ce <HAL_DMA_IRQHandler+0x172>
      hdma->XferErrorCallback(hdma);
 8002842:	4620      	mov	r0, r4
}
 8002844:	b003      	add	sp, #12
 8002846:	e8bd 40f0 	ldmia.w	sp!, {r4, r5, r6, r7, lr}
      hdma->XferErrorCallback(hdma);
 800284a:	4718      	bx	r3
        if((hdma->Instance->CR & DMA_SxCR_CIRC) == RESET)
 800284c:	681a      	ldr	r2, [r3, #0]
 800284e:	05d2      	lsls	r2, r2, #23
          hdma->Instance->CR  &= ~(DMA_IT_HT);
 8002850:	bf5e      	ittt	pl
 8002852:	681a      	ldrpl	r2, [r3, #0]
 8002854:	f022 0208 	bicpl.w	r2, r2, #8
 8002858:	601a      	strpl	r2, [r3, #0]
 800285a:	e7c2      	b.n	80027e2 <HAL_DMA_IRQHandler+0x86>
      if(((hdma->Instance->CR) & (uint32_t)(DMA_SxCR_DBM)) != RESET)
 800285c:	0350      	lsls	r0, r2, #13
 800285e:	d527      	bpl.n	80028b0 <HAL_DMA_IRQHandler+0x154>
        if((hdma->Instance->CR & DMA_SxCR_CT) == RESET)
 8002860:	681b      	ldr	r3, [r3, #0]
 8002862:	0319      	lsls	r1, r3, #12
 8002864:	d431      	bmi.n	80028ca <HAL_DMA_IRQHandler+0x16e>
          if(hdma->XferM1CpltCallback != NULL)
 8002866:	6c63      	ldr	r3, [r4, #68]	; 0x44
        if(hdma->XferCpltCallback != NULL)
 8002868:	b10b      	cbz	r3, 800286e <HAL_DMA_IRQHandler+0x112>
          hdma->XferCpltCallback(hdma);
 800286a:	4620      	mov	r0, r4
 800286c:	4798      	blx	r3
  if(hdma->ErrorCode != HAL_DMA_ERROR_NONE)
 800286e:	6d63      	ldr	r3, [r4, #84]	; 0x54
 8002870:	b36b      	cbz	r3, 80028ce <HAL_DMA_IRQHandler+0x172>
    if((hdma->ErrorCode & HAL_DMA_ERROR_TE) != RESET)
 8002872:	6d63      	ldr	r3, [r4, #84]	; 0x54
 8002874:	07da      	lsls	r2, r3, #31
 8002876:	d519      	bpl.n	80028ac <HAL_DMA_IRQHandler+0x150>
      __HAL_DMA_DISABLE(hdma);
 8002878:	6822      	ldr	r2, [r4, #0]
  uint32_t timeout = SystemCoreClock / 9600U;
 800287a:	f44f 5316 	mov.w	r3, #9600	; 0x2580
 800287e:	fbb7 f7f3 	udiv	r7, r7, r3
      hdma->State = HAL_DMA_STATE_ABORT;
 8002882:	2305      	movs	r3, #5
 8002884:	f884 3035 	strb.w	r3, [r4, #53]	; 0x35
      __HAL_DMA_DISABLE(hdma);
 8002888:	6813      	ldr	r3, [r2, #0]
 800288a:	f023 0301 	bic.w	r3, r3, #1
 800288e:	6013      	str	r3, [r2, #0]
        if (++count > timeout)
 8002890:	9b01      	ldr	r3, [sp, #4]
 8002892:	3301      	adds	r3, #1
 8002894:	42bb      	cmp	r3, r7
 8002896:	9301      	str	r3, [sp, #4]
 8002898:	d802      	bhi.n	80028a0 <HAL_DMA_IRQHandler+0x144>
      while((hdma->Instance->CR & DMA_SxCR_EN) != RESET);
 800289a:	6813      	ldr	r3, [r2, #0]
 800289c:	07db      	lsls	r3, r3, #31
 800289e:	d4f7      	bmi.n	8002890 <HAL_DMA_IRQHandler+0x134>
      hdma->State = HAL_DMA_STATE_READY;
 80028a0:	2301      	movs	r3, #1
 80028a2:	f884 3035 	strb.w	r3, [r4, #53]	; 0x35
      __HAL_UNLOCK(hdma);
 80028a6:	2300      	movs	r3, #0
 80028a8:	f884 3034 	strb.w	r3, [r4, #52]	; 0x34
    if(hdma->XferErrorCallback != NULL)
 80028ac:	6ce3      	ldr	r3, [r4, #76]	; 0x4c
 80028ae:	e7c6      	b.n	800283e <HAL_DMA_IRQHandler+0xe2>
        if((hdma->Instance->CR & DMA_SxCR_CIRC) == RESET)
 80028b0:	681a      	ldr	r2, [r3, #0]
 80028b2:	f412 7280 	ands.w	r2, r2, #256	; 0x100
 80028b6:	d108      	bne.n	80028ca <HAL_DMA_IRQHandler+0x16e>
          hdma->Instance->CR  &= ~(DMA_IT_TC);
 80028b8:	6819      	ldr	r1, [r3, #0]
 80028ba:	f021 0110 	bic.w	r1, r1, #16
 80028be:	6019      	str	r1, [r3, #0]
          hdma->State = HAL_DMA_STATE_READY;
 80028c0:	2301      	movs	r3, #1
 80028c2:	f884 3035 	strb.w	r3, [r4, #53]	; 0x35
          __HAL_UNLOCK(hdma);
 80028c6:	f884 2034 	strb.w	r2, [r4, #52]	; 0x34
        if(hdma->XferCpltCallback != NULL)
 80028ca:	6be3      	ldr	r3, [r4, #60]	; 0x3c
 80028cc:	e7cc      	b.n	8002868 <HAL_DMA_IRQHandler+0x10c>
}
 80028ce:	b003      	add	sp, #12
 80028d0:	bdf0      	pop	{r4, r5, r6, r7, pc}
 80028d2:	bf00      	nop
 80028d4:	20000000 	.word	0x20000000

080028d8 <HAL_GPIO_Init>:
  * @param  GPIO_Init pointer to a GPIO_InitTypeDef structure that contains
  *         the configuration information for the specified GPIO peripheral.
  * @retval None
  */
void HAL_GPIO_Init(GPIO_TypeDef  *GPIOx, GPIO_InitTypeDef *GPIO_Init)
{
 80028d8:	e92d 4ff7 	stmdb	sp!, {r0, r1, r2, r4, r5, r6, r7, r8, r9, sl, fp, lr}
      /*--------------------- EXTI Mode Configuration ------------------------*/
      /* Configure the External Interrupt or event for the current IO */
      if((GPIO_Init->Mode & EXTI_MODE) != 0x00U)
      {
        /* Enable SYSCFG Clock */
        __HAL_RCC_SYSCFG_CLK_ENABLE();
 80028dc:	f8df 919c 	ldr.w	r9, [pc, #412]	; 8002a7c <HAL_GPIO_Init+0x1a4>
        temp &= ~(0x0FU << (4U * (position & 0x03U)));
        temp |= ((uint32_t)(GPIO_GET_INDEX(GPIOx)) << (4U * (position & 0x03U)));
        SYSCFG->EXTICR[position >> 2U] = temp;

        /* Clear Rising Falling edge configuration */
        temp = EXTI->RTSR;
 80028e0:	4a64      	ldr	r2, [pc, #400]	; (8002a74 <HAL_GPIO_Init+0x19c>)
  for(position = 0U; position < GPIO_NUMBER; position++)
 80028e2:	2300      	movs	r3, #0
    iocurrent = (uint32_t)(GPIO_Init->Pin) & ioposition;
 80028e4:	680d      	ldr	r5, [r1, #0]
    ioposition = 0x01U << position;
 80028e6:	2401      	movs	r4, #1
 80028e8:	409c      	lsls	r4, r3
    iocurrent = (uint32_t)(GPIO_Init->Pin) & ioposition;
 80028ea:	ea04 0c05 	and.w	ip, r4, r5
    if(iocurrent == ioposition)
 80028ee:	43ac      	bics	r4, r5
 80028f0:	f040 80ad 	bne.w	8002a4e <HAL_GPIO_Init+0x176>
      if(((GPIO_Init->Mode & GPIO_MODE) == MODE_OUTPUT) || \
 80028f4:	684d      	ldr	r5, [r1, #4]
 80028f6:	f005 0403 	and.w	r4, r5, #3
 80028fa:	ea4f 0843 	mov.w	r8, r3, lsl #1
        temp &= ~(GPIO_OSPEEDER_OSPEEDR0 << (position * 2U));
 80028fe:	2603      	movs	r6, #3
      if(((GPIO_Init->Mode & GPIO_MODE) == MODE_OUTPUT) || \
 8002900:	1e67      	subs	r7, r4, #1
        temp &= ~(GPIO_OSPEEDER_OSPEEDR0 << (position * 2U));
 8002902:	fa06 f608 	lsl.w	r6, r6, r8
      if(((GPIO_Init->Mode & GPIO_MODE) == MODE_OUTPUT) || \
 8002906:	2f01      	cmp	r7, #1
        temp &= ~(GPIO_OSPEEDER_OSPEEDR0 << (position * 2U));
 8002908:	ea6f 0606 	mvn.w	r6, r6
      if(((GPIO_Init->Mode & GPIO_MODE) == MODE_OUTPUT) || \
 800290c:	d834      	bhi.n	8002978 <HAL_GPIO_Init+0xa0>
        temp = GPIOx->OSPEEDR; 
 800290e:	6887      	ldr	r7, [r0, #8]
        temp &= ~(GPIO_OSPEEDER_OSPEEDR0 << (position * 2U));
 8002910:	ea07 0e06 	and.w	lr, r7, r6
        temp |= (GPIO_Init->Speed << (position * 2U));
 8002914:	68cf      	ldr	r7, [r1, #12]
 8002916:	fa07 f708 	lsl.w	r7, r7, r8
 800291a:	ea47 070e 	orr.w	r7, r7, lr
        GPIOx->OSPEEDR = temp;
 800291e:	6087      	str	r7, [r0, #8]
        temp = GPIOx->OTYPER;
 8002920:	6847      	ldr	r7, [r0, #4]
        temp &= ~(GPIO_OTYPER_OT_0 << position) ;
 8002922:	ea27 0e0c 	bic.w	lr, r7, ip
        temp |= (((GPIO_Init->Mode & OUTPUT_TYPE) >> OUTPUT_TYPE_Pos) << position);
 8002926:	f3c5 1700 	ubfx	r7, r5, #4, #1
 800292a:	409f      	lsls	r7, r3
 800292c:	ea47 070e 	orr.w	r7, r7, lr
        GPIOx->OTYPER = temp;
 8002930:	6047      	str	r7, [r0, #4]
        temp = GPIOx->PUPDR;
 8002932:	68c7      	ldr	r7, [r0, #12]
        temp &= ~(GPIO_PUPDR_PUPDR0 << (position * 2U));
 8002934:	ea07 0e06 	and.w	lr, r7, r6
        temp |= ((GPIO_Init->Pull) << (position * 2U));
 8002938:	688f      	ldr	r7, [r1, #8]
 800293a:	fa07 f708 	lsl.w	r7, r7, r8
 800293e:	ea47 070e 	orr.w	r7, r7, lr
      if((GPIO_Init->Mode & GPIO_MODE) == MODE_AF)
 8002942:	2c02      	cmp	r4, #2
        GPIOx->PUPDR = temp;
 8002944:	60c7      	str	r7, [r0, #12]
      if((GPIO_Init->Mode & GPIO_MODE) == MODE_AF)
 8002946:	d119      	bne.n	800297c <HAL_GPIO_Init+0xa4>
        temp = GPIOx->AFR[position >> 3U];
 8002948:	ea4f 0ad3 	mov.w	sl, r3, lsr #3
 800294c:	eb00 0a8a 	add.w	sl, r0, sl, lsl #2
        temp &= ~(0xFU << ((uint32_t)(position & 0x07U) * 4U)) ;
 8002950:	f003 0b07 	and.w	fp, r3, #7
        temp = GPIOx->AFR[position >> 3U];
 8002954:	f8da 7020 	ldr.w	r7, [sl, #32]
        temp &= ~(0xFU << ((uint32_t)(position & 0x07U) * 4U)) ;
 8002958:	ea4f 0b8b 	mov.w	fp, fp, lsl #2
 800295c:	f04f 0e0f 	mov.w	lr, #15
 8002960:	fa0e fe0b 	lsl.w	lr, lr, fp
 8002964:	ea27 0e0e 	bic.w	lr, r7, lr
        temp |= ((uint32_t)(GPIO_Init->Alternate) << (((uint32_t)position & 0x07U) * 4U));
 8002968:	690f      	ldr	r7, [r1, #16]
 800296a:	fa07 f70b 	lsl.w	r7, r7, fp
 800296e:	ea47 070e 	orr.w	r7, r7, lr
        GPIOx->AFR[position >> 3U] = temp;
 8002972:	f8ca 7020 	str.w	r7, [sl, #32]
 8002976:	e001      	b.n	800297c <HAL_GPIO_Init+0xa4>
      if((GPIO_Init->Mode & GPIO_MODE) != MODE_ANALOG)
 8002978:	2c03      	cmp	r4, #3
 800297a:	d1da      	bne.n	8002932 <HAL_GPIO_Init+0x5a>
      temp = GPIOx->MODER;
 800297c:	6807      	ldr	r7, [r0, #0]
      temp |= ((GPIO_Init->Mode & GPIO_MODE) << (position * 2U));
 800297e:	fa04 f408 	lsl.w	r4, r4, r8
      temp &= ~(GPIO_MODER_MODER0 << (position * 2U));
 8002982:	4037      	ands	r7, r6
      temp |= ((GPIO_Init->Mode & GPIO_MODE) << (position * 2U));
 8002984:	433c      	orrs	r4, r7
      if((GPIO_Init->Mode & EXTI_MODE) != 0x00U)
 8002986:	f415 3f40 	tst.w	r5, #196608	; 0x30000
      GPIOx->MODER = temp;
 800298a:	6004      	str	r4, [r0, #0]
      if((GPIO_Init->Mode & EXTI_MODE) != 0x00U)
 800298c:	d05f      	beq.n	8002a4e <HAL_GPIO_Init+0x176>
        __HAL_RCC_SYSCFG_CLK_ENABLE();
 800298e:	f04f 0a00 	mov.w	sl, #0
 8002992:	f8cd a004 	str.w	sl, [sp, #4]
 8002996:	f8d9 6044 	ldr.w	r6, [r9, #68]	; 0x44
        temp |= ((uint32_t)(GPIO_GET_INDEX(GPIOx)) << (4U * (position & 0x03U)));
 800299a:	4c37      	ldr	r4, [pc, #220]	; (8002a78 <HAL_GPIO_Init+0x1a0>)
        __HAL_RCC_SYSCFG_CLK_ENABLE();
 800299c:	f446 4680 	orr.w	r6, r6, #16384	; 0x4000
 80029a0:	f8c9 6044 	str.w	r6, [r9, #68]	; 0x44
 80029a4:	f8d9 6044 	ldr.w	r6, [r9, #68]	; 0x44
 80029a8:	f406 4680 	and.w	r6, r6, #16384	; 0x4000
 80029ac:	9601      	str	r6, [sp, #4]
 80029ae:	9e01      	ldr	r6, [sp, #4]
        temp = SYSCFG->EXTICR[position >> 2U];
 80029b0:	f023 0603 	bic.w	r6, r3, #3
 80029b4:	f106 4680 	add.w	r6, r6, #1073741824	; 0x40000000
 80029b8:	f506 369c 	add.w	r6, r6, #79872	; 0x13800
        temp &= ~(0x0FU << (4U * (position & 0x03U)));
 80029bc:	f003 0e03 	and.w	lr, r3, #3
        temp = SYSCFG->EXTICR[position >> 2U];
 80029c0:	f8d6 8008 	ldr.w	r8, [r6, #8]
        temp &= ~(0x0FU << (4U * (position & 0x03U)));
 80029c4:	ea4f 0e8e 	mov.w	lr, lr, lsl #2
 80029c8:	270f      	movs	r7, #15
 80029ca:	fa07 f70e 	lsl.w	r7, r7, lr
        temp |= ((uint32_t)(GPIO_GET_INDEX(GPIOx)) << (4U * (position & 0x03U)));
 80029ce:	42a0      	cmp	r0, r4
        temp &= ~(0x0FU << (4U * (position & 0x03U)));
 80029d0:	ea28 0707 	bic.w	r7, r8, r7
        temp |= ((uint32_t)(GPIO_GET_INDEX(GPIOx)) << (4U * (position & 0x03U)));
 80029d4:	d042      	beq.n	8002a5c <HAL_GPIO_Init+0x184>
 80029d6:	f504 6480 	add.w	r4, r4, #1024	; 0x400
 80029da:	42a0      	cmp	r0, r4
 80029dc:	d040      	beq.n	8002a60 <HAL_GPIO_Init+0x188>
 80029de:	f504 6480 	add.w	r4, r4, #1024	; 0x400
 80029e2:	42a0      	cmp	r0, r4
 80029e4:	d03e      	beq.n	8002a64 <HAL_GPIO_Init+0x18c>
 80029e6:	f504 6480 	add.w	r4, r4, #1024	; 0x400
 80029ea:	42a0      	cmp	r0, r4
 80029ec:	d03c      	beq.n	8002a68 <HAL_GPIO_Init+0x190>
 80029ee:	f504 6480 	add.w	r4, r4, #1024	; 0x400
 80029f2:	42a0      	cmp	r0, r4
 80029f4:	d03a      	beq.n	8002a6c <HAL_GPIO_Init+0x194>
 80029f6:	f504 6480 	add.w	r4, r4, #1024	; 0x400
 80029fa:	42a0      	cmp	r0, r4
 80029fc:	d038      	beq.n	8002a70 <HAL_GPIO_Init+0x198>
 80029fe:	f504 6480 	add.w	r4, r4, #1024	; 0x400
 8002a02:	42a0      	cmp	r0, r4
 8002a04:	bf0c      	ite	eq
 8002a06:	2406      	moveq	r4, #6
 8002a08:	2407      	movne	r4, #7
 8002a0a:	fa04 f40e 	lsl.w	r4, r4, lr
 8002a0e:	433c      	orrs	r4, r7
        SYSCFG->EXTICR[position >> 2U] = temp;
 8002a10:	60b4      	str	r4, [r6, #8]
        temp = EXTI->RTSR;
 8002a12:	6894      	ldr	r4, [r2, #8]
        temp &= ~((uint32_t)iocurrent);
 8002a14:	ea6f 060c 	mvn.w	r6, ip
        if((GPIO_Init->Mode & TRIGGER_RISING) != 0x00U)
 8002a18:	02ef      	lsls	r7, r5, #11
        temp &= ~((uint32_t)iocurrent);
 8002a1a:	bf54      	ite	pl
 8002a1c:	4034      	andpl	r4, r6
        {
          temp |= iocurrent;
 8002a1e:	ea4c 0404 	orrmi.w	r4, ip, r4
        }
        EXTI->RTSR = temp;
 8002a22:	6094      	str	r4, [r2, #8]

        temp = EXTI->FTSR;
 8002a24:	68d4      	ldr	r4, [r2, #12]
        temp &= ~((uint32_t)iocurrent);
        if((GPIO_Init->Mode & TRIGGER_FALLING) != 0x00U)
 8002a26:	02af      	lsls	r7, r5, #10
        temp &= ~((uint32_t)iocurrent);
 8002a28:	bf54      	ite	pl
 8002a2a:	4034      	andpl	r4, r6
        {
          temp |= iocurrent;
 8002a2c:	ea4c 0404 	orrmi.w	r4, ip, r4
        }
        EXTI->FTSR = temp;
 8002a30:	60d4      	str	r4, [r2, #12]

        temp = EXTI->EMR;
 8002a32:	6854      	ldr	r4, [r2, #4]
        temp &= ~((uint32_t)iocurrent);
        if((GPIO_Init->Mode & EXTI_EVT) != 0x00U)
 8002a34:	03af      	lsls	r7, r5, #14
        temp &= ~((uint32_t)iocurrent);
 8002a36:	bf54      	ite	pl
 8002a38:	4034      	andpl	r4, r6
        {
          temp |= iocurrent;
 8002a3a:	ea4c 0404 	orrmi.w	r4, ip, r4
        }
        EXTI->EMR = temp;
 8002a3e:	6054      	str	r4, [r2, #4]

        /* Clear EXTI line configuration */
        temp = EXTI->IMR;
 8002a40:	6814      	ldr	r4, [r2, #0]
        temp &= ~((uint32_t)iocurrent);
        if((GPIO_Init->Mode & EXTI_IT) != 0x00U)
 8002a42:	03ed      	lsls	r5, r5, #15
        temp &= ~((uint32_t)iocurrent);
 8002a44:	bf54      	ite	pl
 8002a46:	4034      	andpl	r4, r6
        {
          temp |= iocurrent;
 8002a48:	ea4c 0404 	orrmi.w	r4, ip, r4
        }
        EXTI->IMR = temp;
 8002a4c:	6014      	str	r4, [r2, #0]
  for(position = 0U; position < GPIO_NUMBER; position++)
 8002a4e:	3301      	adds	r3, #1
 8002a50:	2b10      	cmp	r3, #16
 8002a52:	f47f af47 	bne.w	80028e4 <HAL_GPIO_Init+0xc>
      }
    }
  }
}
 8002a56:	b003      	add	sp, #12
 8002a58:	e8bd 8ff0 	ldmia.w	sp!, {r4, r5, r6, r7, r8, r9, sl, fp, pc}
        temp |= ((uint32_t)(GPIO_GET_INDEX(GPIOx)) << (4U * (position & 0x03U)));
 8002a5c:	4654      	mov	r4, sl
 8002a5e:	e7d4      	b.n	8002a0a <HAL_GPIO_Init+0x132>
 8002a60:	2401      	movs	r4, #1
 8002a62:	e7d2      	b.n	8002a0a <HAL_GPIO_Init+0x132>
 8002a64:	2402      	movs	r4, #2
 8002a66:	e7d0      	b.n	8002a0a <HAL_GPIO_Init+0x132>
 8002a68:	2403      	movs	r4, #3
 8002a6a:	e7ce      	b.n	8002a0a <HAL_GPIO_Init+0x132>
 8002a6c:	2404      	movs	r4, #4
 8002a6e:	e7cc      	b.n	8002a0a <HAL_GPIO_Init+0x132>
 8002a70:	2405      	movs	r4, #5
 8002a72:	e7ca      	b.n	8002a0a <HAL_GPIO_Init+0x132>
 8002a74:	40013c00 	.word	0x40013c00
 8002a78:	40020000 	.word	0x40020000
 8002a7c:	40023800 	.word	0x40023800

08002a80 <HAL_GPIO_ReadPin>:
  GPIO_PinState bitstatus;

  /* Check the parameters */
  assert_param(IS_GPIO_PIN(GPIO_Pin));

  if((GPIOx->IDR & GPIO_Pin) != (uint32_t)GPIO_PIN_RESET)
 8002a80:	6903      	ldr	r3, [r0, #16]
 8002a82:	4219      	tst	r1, r3
  else
  {
    bitstatus = GPIO_PIN_RESET;
  }
  return bitstatus;
}
 8002a84:	bf14      	ite	ne
 8002a86:	2001      	movne	r0, #1
 8002a88:	2000      	moveq	r0, #0
 8002a8a:	4770      	bx	lr

08002a8c <HAL_GPIO_WritePin>:
{
  /* Check the parameters */
  assert_param(IS_GPIO_PIN(GPIO_Pin));
  assert_param(IS_GPIO_PIN_ACTION(PinState));

  if(PinState != GPIO_PIN_RESET)
 8002a8c:	b10a      	cbz	r2, 8002a92 <HAL_GPIO_WritePin+0x6>
  {
    GPIOx->BSRR = GPIO_Pin;
  }
  else
  {
    GPIOx->BSRR = (uint32_t)GPIO_Pin << 16U;
 8002a8e:	6181      	str	r1, [r0, #24]
  }
}
 8002a90:	4770      	bx	lr
    GPIOx->BSRR = (uint32_t)GPIO_Pin << 16U;
 8002a92:	0409      	lsls	r1, r1, #16
 8002a94:	e7fb      	b.n	8002a8e <HAL_GPIO_WritePin+0x2>
	...

08002a98 <HAL_PWREx_EnableOverDrive>:
  *         During the Over-drive switch activation, no peripheral clocks should be enabled.   
  *         The peripheral clocks must be enabled once the Over-drive mode is activated.   
  * @retval HAL status
  */
HAL_StatusTypeDef HAL_PWREx_EnableOverDrive(void)
{
 8002a98:	b537      	push	{r0, r1, r2, r4, r5, lr}
  uint32_t tickstart = 0U;

  __HAL_RCC_PWR_CLK_ENABLE();
 8002a9a:	2300      	movs	r3, #0
 8002a9c:	9301      	str	r3, [sp, #4]
 8002a9e:	4b18      	ldr	r3, [pc, #96]	; (8002b00 <HAL_PWREx_EnableOverDrive+0x68>)
  __HAL_PWR_OVERDRIVE_ENABLE();

  /* Get tick */
  tickstart = HAL_GetTick();

  while(!__HAL_PWR_GET_FLAG(PWR_FLAG_ODRDY))
 8002aa0:	4d18      	ldr	r5, [pc, #96]	; (8002b04 <HAL_PWREx_EnableOverDrive+0x6c>)
  __HAL_RCC_PWR_CLK_ENABLE();
 8002aa2:	6c1a      	ldr	r2, [r3, #64]	; 0x40
 8002aa4:	f042 5280 	orr.w	r2, r2, #268435456	; 0x10000000
 8002aa8:	641a      	str	r2, [r3, #64]	; 0x40
 8002aaa:	6c1b      	ldr	r3, [r3, #64]	; 0x40
 8002aac:	f003 5380 	and.w	r3, r3, #268435456	; 0x10000000
 8002ab0:	9301      	str	r3, [sp, #4]
 8002ab2:	9b01      	ldr	r3, [sp, #4]
  __HAL_PWR_OVERDRIVE_ENABLE();
 8002ab4:	4b14      	ldr	r3, [pc, #80]	; (8002b08 <HAL_PWREx_EnableOverDrive+0x70>)
 8002ab6:	2201      	movs	r2, #1
 8002ab8:	641a      	str	r2, [r3, #64]	; 0x40
  tickstart = HAL_GetTick();
 8002aba:	f7ff f807 	bl	8001acc <HAL_GetTick>
 8002abe:	4604      	mov	r4, r0
  while(!__HAL_PWR_GET_FLAG(PWR_FLAG_ODRDY))
 8002ac0:	686b      	ldr	r3, [r5, #4]
 8002ac2:	03da      	lsls	r2, r3, #15
 8002ac4:	d50b      	bpl.n	8002ade <HAL_PWREx_EnableOverDrive+0x46>
      return HAL_TIMEOUT;
    }
  }
  
  /* Enable the Over-drive switch */
  __HAL_PWR_OVERDRIVESWITCHING_ENABLE();
 8002ac6:	4b10      	ldr	r3, [pc, #64]	; (8002b08 <HAL_PWREx_EnableOverDrive+0x70>)

  /* Get tick */
  tickstart = HAL_GetTick();

  while(!__HAL_PWR_GET_FLAG(PWR_FLAG_ODSWRDY))
 8002ac8:	4d0e      	ldr	r5, [pc, #56]	; (8002b04 <HAL_PWREx_EnableOverDrive+0x6c>)
  __HAL_PWR_OVERDRIVESWITCHING_ENABLE();
 8002aca:	2201      	movs	r2, #1
 8002acc:	645a      	str	r2, [r3, #68]	; 0x44
  tickstart = HAL_GetTick();
 8002ace:	f7fe fffd 	bl	8001acc <HAL_GetTick>
 8002ad2:	4604      	mov	r4, r0
  while(!__HAL_PWR_GET_FLAG(PWR_FLAG_ODSWRDY))
 8002ad4:	686b      	ldr	r3, [r5, #4]
 8002ad6:	039b      	lsls	r3, r3, #14
 8002ad8:	d50a      	bpl.n	8002af0 <HAL_PWREx_EnableOverDrive+0x58>
    if((HAL_GetTick() - tickstart ) > PWR_OVERDRIVE_TIMEOUT_VALUE)
    {
      return HAL_TIMEOUT;
    }
  } 
  return HAL_OK;
 8002ada:	2000      	movs	r0, #0
 8002adc:	e006      	b.n	8002aec <HAL_PWREx_EnableOverDrive+0x54>
    if((HAL_GetTick() - tickstart) > PWR_OVERDRIVE_TIMEOUT_VALUE)
 8002ade:	f7fe fff5 	bl	8001acc <HAL_GetTick>
 8002ae2:	1b00      	subs	r0, r0, r4
 8002ae4:	f5b0 7f7a 	cmp.w	r0, #1000	; 0x3e8
 8002ae8:	d9ea      	bls.n	8002ac0 <HAL_PWREx_EnableOverDrive+0x28>
      return HAL_TIMEOUT;
 8002aea:	2003      	movs	r0, #3
}
 8002aec:	b003      	add	sp, #12
 8002aee:	bd30      	pop	{r4, r5, pc}
    if((HAL_GetTick() - tickstart ) > PWR_OVERDRIVE_TIMEOUT_VALUE)
 8002af0:	f7fe ffec 	bl	8001acc <HAL_GetTick>
 8002af4:	1b00      	subs	r0, r0, r4
 8002af6:	f5b0 7f7a 	cmp.w	r0, #1000	; 0x3e8
 8002afa:	d9eb      	bls.n	8002ad4 <HAL_PWREx_EnableOverDrive+0x3c>
 8002afc:	e7f5      	b.n	8002aea <HAL_PWREx_EnableOverDrive+0x52>
 8002afe:	bf00      	nop
 8002b00:	40023800 	.word	0x40023800
 8002b04:	40007000 	.word	0x40007000
 8002b08:	420e0000 	.word	0x420e0000

08002b0c <HAL_RCC_ClockConfig>:
  *         HPRE[3:0] bits to ensure that HCLK not exceed the maximum allowed frequency
  *         (for more details refer to section above "Initialization/de-initialization functions")
  * @retval None
  */
HAL_StatusTypeDef HAL_RCC_ClockConfig(RCC_ClkInitTypeDef  *RCC_ClkInitStruct, uint32_t FLatency)
{
 8002b0c:	e92d 41f0 	stmdb	sp!, {r4, r5, r6, r7, r8, lr}
 8002b10:	460d      	mov	r5, r1
  uint32_t tickstart;

  /* Check Null pointer */
  if(RCC_ClkInitStruct == NULL)
 8002b12:	4604      	mov	r4, r0
 8002b14:	b910      	cbnz	r0, 8002b1c <HAL_RCC_ClockConfig+0x10>
  {
    return HAL_ERROR;
 8002b16:	2001      	movs	r0, #1

  /* Configure the source of time base considering new system clocks settings */
  HAL_InitTick (uwTickPrio);

  return HAL_OK;
}
 8002b18:	e8bd 81f0 	ldmia.w	sp!, {r4, r5, r6, r7, r8, pc}
  if(FLatency > __HAL_FLASH_GET_LATENCY())
 8002b1c:	4b43      	ldr	r3, [pc, #268]	; (8002c2c <HAL_RCC_ClockConfig+0x120>)
 8002b1e:	681a      	ldr	r2, [r3, #0]
 8002b20:	f002 020f 	and.w	r2, r2, #15
 8002b24:	428a      	cmp	r2, r1
 8002b26:	d328      	bcc.n	8002b7a <HAL_RCC_ClockConfig+0x6e>
  if(((RCC_ClkInitStruct->ClockType) & RCC_CLOCKTYPE_HCLK) == RCC_CLOCKTYPE_HCLK)
 8002b28:	6821      	ldr	r1, [r4, #0]
 8002b2a:	078f      	lsls	r7, r1, #30
 8002b2c:	d42d      	bmi.n	8002b8a <HAL_RCC_ClockConfig+0x7e>
  if(((RCC_ClkInitStruct->ClockType) & RCC_CLOCKTYPE_SYSCLK) == RCC_CLOCKTYPE_SYSCLK)
 8002b2e:	07c8      	lsls	r0, r1, #31
 8002b30:	d440      	bmi.n	8002bb4 <HAL_RCC_ClockConfig+0xa8>
  if(FLatency < __HAL_FLASH_GET_LATENCY())
 8002b32:	4b3e      	ldr	r3, [pc, #248]	; (8002c2c <HAL_RCC_ClockConfig+0x120>)
 8002b34:	681a      	ldr	r2, [r3, #0]
 8002b36:	f002 020f 	and.w	r2, r2, #15
 8002b3a:	42aa      	cmp	r2, r5
 8002b3c:	d865      	bhi.n	8002c0a <HAL_RCC_ClockConfig+0xfe>
  if(((RCC_ClkInitStruct->ClockType) & RCC_CLOCKTYPE_PCLK1) == RCC_CLOCKTYPE_PCLK1)
 8002b3e:	6822      	ldr	r2, [r4, #0]
 8002b40:	0751      	lsls	r1, r2, #29
 8002b42:	d46b      	bmi.n	8002c1c <HAL_RCC_ClockConfig+0x110>
  if(((RCC_ClkInitStruct->ClockType) & RCC_CLOCKTYPE_PCLK2) == RCC_CLOCKTYPE_PCLK2)
 8002b44:	0713      	lsls	r3, r2, #28
 8002b46:	d507      	bpl.n	8002b58 <HAL_RCC_ClockConfig+0x4c>
    MODIFY_REG(RCC->CFGR, RCC_CFGR_PPRE2, ((RCC_ClkInitStruct->APB2CLKDivider) << 3U));
 8002b48:	4a39      	ldr	r2, [pc, #228]	; (8002c30 <HAL_RCC_ClockConfig+0x124>)
 8002b4a:	6921      	ldr	r1, [r4, #16]
 8002b4c:	6893      	ldr	r3, [r2, #8]
 8002b4e:	f423 4360 	bic.w	r3, r3, #57344	; 0xe000
 8002b52:	ea43 03c1 	orr.w	r3, r3, r1, lsl #3
 8002b56:	6093      	str	r3, [r2, #8]
  SystemCoreClock = HAL_RCC_GetSysClockFreq() >> AHBPrescTable[(RCC->CFGR & RCC_CFGR_HPRE)>> RCC_CFGR_HPRE_Pos];
 8002b58:	f000 f898 	bl	8002c8c <HAL_RCC_GetSysClockFreq>
 8002b5c:	4b34      	ldr	r3, [pc, #208]	; (8002c30 <HAL_RCC_ClockConfig+0x124>)
 8002b5e:	4a35      	ldr	r2, [pc, #212]	; (8002c34 <HAL_RCC_ClockConfig+0x128>)
 8002b60:	689b      	ldr	r3, [r3, #8]
 8002b62:	f3c3 1303 	ubfx	r3, r3, #4, #4
 8002b66:	5cd3      	ldrb	r3, [r2, r3]
 8002b68:	40d8      	lsrs	r0, r3
 8002b6a:	4b33      	ldr	r3, [pc, #204]	; (8002c38 <HAL_RCC_ClockConfig+0x12c>)
 8002b6c:	6018      	str	r0, [r3, #0]
  HAL_InitTick (uwTickPrio);
 8002b6e:	4b33      	ldr	r3, [pc, #204]	; (8002c3c <HAL_RCC_ClockConfig+0x130>)
 8002b70:	6818      	ldr	r0, [r3, #0]
 8002b72:	f7fe ff61 	bl	8001a38 <HAL_InitTick>
  return HAL_OK;
 8002b76:	2000      	movs	r0, #0
 8002b78:	e7ce      	b.n	8002b18 <HAL_RCC_ClockConfig+0xc>
    __HAL_FLASH_SET_LATENCY(FLatency);
 8002b7a:	b2ca      	uxtb	r2, r1
 8002b7c:	701a      	strb	r2, [r3, #0]
    if(__HAL_FLASH_GET_LATENCY() != FLatency)
 8002b7e:	681b      	ldr	r3, [r3, #0]
 8002b80:	f003 030f 	and.w	r3, r3, #15
 8002b84:	428b      	cmp	r3, r1
 8002b86:	d1c6      	bne.n	8002b16 <HAL_RCC_ClockConfig+0xa>
 8002b88:	e7ce      	b.n	8002b28 <HAL_RCC_ClockConfig+0x1c>
    if(((RCC_ClkInitStruct->ClockType) & RCC_CLOCKTYPE_PCLK1) == RCC_CLOCKTYPE_PCLK1)
 8002b8a:	4b29      	ldr	r3, [pc, #164]	; (8002c30 <HAL_RCC_ClockConfig+0x124>)
 8002b8c:	f011 0f04 	tst.w	r1, #4
      MODIFY_REG(RCC->CFGR, RCC_CFGR_PPRE1, RCC_HCLK_DIV16);
 8002b90:	bf1e      	ittt	ne
 8002b92:	689a      	ldrne	r2, [r3, #8]
 8002b94:	f442 52e0 	orrne.w	r2, r2, #7168	; 0x1c00
 8002b98:	609a      	strne	r2, [r3, #8]
    if(((RCC_ClkInitStruct->ClockType) & RCC_CLOCKTYPE_PCLK2) == RCC_CLOCKTYPE_PCLK2)
 8002b9a:	070e      	lsls	r6, r1, #28
      MODIFY_REG(RCC->CFGR, RCC_CFGR_PPRE2, (RCC_HCLK_DIV16 << 3));
 8002b9c:	bf42      	ittt	mi
 8002b9e:	689a      	ldrmi	r2, [r3, #8]
 8002ba0:	f442 4260 	orrmi.w	r2, r2, #57344	; 0xe000
 8002ba4:	609a      	strmi	r2, [r3, #8]
    MODIFY_REG(RCC->CFGR, RCC_CFGR_HPRE, RCC_ClkInitStruct->AHBCLKDivider);
 8002ba6:	689a      	ldr	r2, [r3, #8]
 8002ba8:	68a0      	ldr	r0, [r4, #8]
 8002baa:	f022 02f0 	bic.w	r2, r2, #240	; 0xf0
 8002bae:	4302      	orrs	r2, r0
 8002bb0:	609a      	str	r2, [r3, #8]
 8002bb2:	e7bc      	b.n	8002b2e <HAL_RCC_ClockConfig+0x22>
    if(RCC_ClkInitStruct->SYSCLKSource == RCC_SYSCLKSOURCE_HSE)
 8002bb4:	6862      	ldr	r2, [r4, #4]
 8002bb6:	4b1e      	ldr	r3, [pc, #120]	; (8002c30 <HAL_RCC_ClockConfig+0x124>)
 8002bb8:	2a01      	cmp	r2, #1
 8002bba:	d11c      	bne.n	8002bf6 <HAL_RCC_ClockConfig+0xea>
      if(__HAL_RCC_GET_FLAG(RCC_FLAG_HSERDY) == RESET)
 8002bbc:	681b      	ldr	r3, [r3, #0]
 8002bbe:	f413 3f00 	tst.w	r3, #131072	; 0x20000
      if(__HAL_RCC_GET_FLAG(RCC_FLAG_HSIRDY) == RESET)
 8002bc2:	d0a8      	beq.n	8002b16 <HAL_RCC_ClockConfig+0xa>
    __HAL_RCC_SYSCLK_CONFIG(RCC_ClkInitStruct->SYSCLKSource);
 8002bc4:	4e1a      	ldr	r6, [pc, #104]	; (8002c30 <HAL_RCC_ClockConfig+0x124>)
 8002bc6:	68b3      	ldr	r3, [r6, #8]
 8002bc8:	f023 0303 	bic.w	r3, r3, #3
 8002bcc:	4313      	orrs	r3, r2
 8002bce:	60b3      	str	r3, [r6, #8]
    tickstart = HAL_GetTick();
 8002bd0:	f7fe ff7c 	bl	8001acc <HAL_GetTick>
      if ((HAL_GetTick() - tickstart) > CLOCKSWITCH_TIMEOUT_VALUE)
 8002bd4:	f241 3888 	movw	r8, #5000	; 0x1388
    tickstart = HAL_GetTick();
 8002bd8:	4607      	mov	r7, r0
    while (__HAL_RCC_GET_SYSCLK_SOURCE() != (RCC_ClkInitStruct->SYSCLKSource << RCC_CFGR_SWS_Pos))
 8002bda:	68b3      	ldr	r3, [r6, #8]
 8002bdc:	6862      	ldr	r2, [r4, #4]
 8002bde:	f003 030c 	and.w	r3, r3, #12
 8002be2:	ebb3 0f82 	cmp.w	r3, r2, lsl #2
 8002be6:	d0a4      	beq.n	8002b32 <HAL_RCC_ClockConfig+0x26>
      if ((HAL_GetTick() - tickstart) > CLOCKSWITCH_TIMEOUT_VALUE)
 8002be8:	f7fe ff70 	bl	8001acc <HAL_GetTick>
 8002bec:	1bc0      	subs	r0, r0, r7
 8002bee:	4540      	cmp	r0, r8
 8002bf0:	d9f3      	bls.n	8002bda <HAL_RCC_ClockConfig+0xce>
        return HAL_TIMEOUT;
 8002bf2:	2003      	movs	r0, #3
 8002bf4:	e790      	b.n	8002b18 <HAL_RCC_ClockConfig+0xc>
    else if((RCC_ClkInitStruct->SYSCLKSource == RCC_SYSCLKSOURCE_PLLCLK)   ||
 8002bf6:	1e91      	subs	r1, r2, #2
 8002bf8:	2901      	cmp	r1, #1
      if(__HAL_RCC_GET_FLAG(RCC_FLAG_PLLRDY) == RESET)
 8002bfa:	681b      	ldr	r3, [r3, #0]
    else if((RCC_ClkInitStruct->SYSCLKSource == RCC_SYSCLKSOURCE_PLLCLK)   ||
 8002bfc:	d802      	bhi.n	8002c04 <HAL_RCC_ClockConfig+0xf8>
      if(__HAL_RCC_GET_FLAG(RCC_FLAG_PLLRDY) == RESET)
 8002bfe:	f013 7f00 	tst.w	r3, #33554432	; 0x2000000
 8002c02:	e7de      	b.n	8002bc2 <HAL_RCC_ClockConfig+0xb6>
      if(__HAL_RCC_GET_FLAG(RCC_FLAG_HSIRDY) == RESET)
 8002c04:	f013 0f02 	tst.w	r3, #2
 8002c08:	e7db      	b.n	8002bc2 <HAL_RCC_ClockConfig+0xb6>
    __HAL_FLASH_SET_LATENCY(FLatency);
 8002c0a:	b2ea      	uxtb	r2, r5
 8002c0c:	701a      	strb	r2, [r3, #0]
    if(__HAL_FLASH_GET_LATENCY() != FLatency)
 8002c0e:	681b      	ldr	r3, [r3, #0]
 8002c10:	f003 030f 	and.w	r3, r3, #15
 8002c14:	42ab      	cmp	r3, r5
 8002c16:	f47f af7e 	bne.w	8002b16 <HAL_RCC_ClockConfig+0xa>
 8002c1a:	e790      	b.n	8002b3e <HAL_RCC_ClockConfig+0x32>
    MODIFY_REG(RCC->CFGR, RCC_CFGR_PPRE1, RCC_ClkInitStruct->APB1CLKDivider);
 8002c1c:	4904      	ldr	r1, [pc, #16]	; (8002c30 <HAL_RCC_ClockConfig+0x124>)
 8002c1e:	68e0      	ldr	r0, [r4, #12]
 8002c20:	688b      	ldr	r3, [r1, #8]
 8002c22:	f423 53e0 	bic.w	r3, r3, #7168	; 0x1c00
 8002c26:	4303      	orrs	r3, r0
 8002c28:	608b      	str	r3, [r1, #8]
 8002c2a:	e78b      	b.n	8002b44 <HAL_RCC_ClockConfig+0x38>
 8002c2c:	40023c00 	.word	0x40023c00
 8002c30:	40023800 	.word	0x40023800
 8002c34:	0800aac6 	.word	0x0800aac6
 8002c38:	20000000 	.word	0x20000000
 8002c3c:	20000008 	.word	0x20000008

08002c40 <HAL_RCC_GetHCLKFreq>:
  * @retval HCLK frequency
  */
uint32_t HAL_RCC_GetHCLKFreq(void)
{
  return SystemCoreClock;
}
 8002c40:	4b01      	ldr	r3, [pc, #4]	; (8002c48 <HAL_RCC_GetHCLKFreq+0x8>)
 8002c42:	6818      	ldr	r0, [r3, #0]
 8002c44:	4770      	bx	lr
 8002c46:	bf00      	nop
 8002c48:	20000000 	.word	0x20000000

08002c4c <HAL_RCC_GetPCLK1Freq>:
  * @retval PCLK1 frequency
  */
uint32_t HAL_RCC_GetPCLK1Freq(void)
{
  /* Get HCLK source and Compute PCLK1 frequency ---------------------------*/
  return (HAL_RCC_GetHCLKFreq() >> APBPrescTable[(RCC->CFGR & RCC_CFGR_PPRE1)>> RCC_CFGR_PPRE1_Pos]);
 8002c4c:	4b04      	ldr	r3, [pc, #16]	; (8002c60 <HAL_RCC_GetPCLK1Freq+0x14>)
 8002c4e:	4a05      	ldr	r2, [pc, #20]	; (8002c64 <HAL_RCC_GetPCLK1Freq+0x18>)
 8002c50:	689b      	ldr	r3, [r3, #8]
 8002c52:	f3c3 2382 	ubfx	r3, r3, #10, #3
 8002c56:	5cd3      	ldrb	r3, [r2, r3]
 8002c58:	4a03      	ldr	r2, [pc, #12]	; (8002c68 <HAL_RCC_GetPCLK1Freq+0x1c>)
 8002c5a:	6810      	ldr	r0, [r2, #0]
}
 8002c5c:	40d8      	lsrs	r0, r3
 8002c5e:	4770      	bx	lr
 8002c60:	40023800 	.word	0x40023800
 8002c64:	0800aad6 	.word	0x0800aad6
 8002c68:	20000000 	.word	0x20000000

08002c6c <HAL_RCC_GetPCLK2Freq>:
  * @retval PCLK2 frequency
  */
uint32_t HAL_RCC_GetPCLK2Freq(void)
{
  /* Get HCLK source and Compute PCLK2 frequency ---------------------------*/
  return (HAL_RCC_GetHCLKFreq()>> APBPrescTable[(RCC->CFGR & RCC_CFGR_PPRE2)>> RCC_CFGR_PPRE2_Pos]);
 8002c6c:	4b04      	ldr	r3, [pc, #16]	; (8002c80 <HAL_RCC_GetPCLK2Freq+0x14>)
 8002c6e:	4a05      	ldr	r2, [pc, #20]	; (8002c84 <HAL_RCC_GetPCLK2Freq+0x18>)
 8002c70:	689b      	ldr	r3, [r3, #8]
 8002c72:	f3c3 3342 	ubfx	r3, r3, #13, #3
 8002c76:	5cd3      	ldrb	r3, [r2, r3]
 8002c78:	4a03      	ldr	r2, [pc, #12]	; (8002c88 <HAL_RCC_GetPCLK2Freq+0x1c>)
 8002c7a:	6810      	ldr	r0, [r2, #0]
}
 8002c7c:	40d8      	lsrs	r0, r3
 8002c7e:	4770      	bx	lr
 8002c80:	40023800 	.word	0x40023800
 8002c84:	0800aad6 	.word	0x0800aad6
 8002c88:	20000000 	.word	0x20000000

08002c8c <HAL_RCC_GetSysClockFreq>:
  uint32_t pllp = 0U;
  uint32_t pllr = 0U;
  uint32_t sysclockfreq = 0U;

  /* Get SYSCLK source -------------------------------------------------------*/
  switch (RCC->CFGR & RCC_CFGR_SWS)
 8002c8c:	4920      	ldr	r1, [pc, #128]	; (8002d10 <HAL_RCC_GetSysClockFreq+0x84>)
{
 8002c8e:	b508      	push	{r3, lr}
  switch (RCC->CFGR & RCC_CFGR_SWS)
 8002c90:	688b      	ldr	r3, [r1, #8]
 8002c92:	f003 030c 	and.w	r3, r3, #12
 8002c96:	2b08      	cmp	r3, #8
 8002c98:	d007      	beq.n	8002caa <HAL_RCC_GetSysClockFreq+0x1e>
 8002c9a:	2b0c      	cmp	r3, #12
 8002c9c:	d020      	beq.n	8002ce0 <HAL_RCC_GetSysClockFreq+0x54>
 8002c9e:	481d      	ldr	r0, [pc, #116]	; (8002d14 <HAL_RCC_GetSysClockFreq+0x88>)
 8002ca0:	4a1d      	ldr	r2, [pc, #116]	; (8002d18 <HAL_RCC_GetSysClockFreq+0x8c>)
 8002ca2:	2b04      	cmp	r3, #4
 8002ca4:	bf08      	it	eq
 8002ca6:	4610      	moveq	r0, r2
      sysclockfreq = HSI_VALUE;
      break;
    }
  }
  return sysclockfreq;
}
 8002ca8:	bd08      	pop	{r3, pc}
      pllm = RCC->PLLCFGR & RCC_PLLCFGR_PLLM;
 8002caa:	684a      	ldr	r2, [r1, #4]
      if(__HAL_RCC_GET_PLL_OSCSOURCE() != RCC_PLLSOURCE_HSI)
 8002cac:	684b      	ldr	r3, [r1, #4]
        pllvco = (uint32_t) ((((uint64_t) HSE_VALUE * ((uint64_t) ((RCC->PLLCFGR & RCC_PLLCFGR_PLLN) >> RCC_PLLCFGR_PLLN_Pos)))) / (uint64_t)pllm);
 8002cae:	6849      	ldr	r1, [r1, #4]
      if(__HAL_RCC_GET_PLL_OSCSOURCE() != RCC_PLLSOURCE_HSI)
 8002cb0:	f413 0380 	ands.w	r3, r3, #4194304	; 0x400000
        pllvco = (uint32_t) ((((uint64_t) HSE_VALUE * ((uint64_t) ((RCC->PLLCFGR & RCC_PLLCFGR_PLLN) >> RCC_PLLCFGR_PLLN_Pos)))) / (uint64_t)pllm);
 8002cb4:	bf14      	ite	ne
 8002cb6:	4818      	ldrne	r0, [pc, #96]	; (8002d18 <HAL_RCC_GetSysClockFreq+0x8c>)
        pllvco = (uint32_t) ((((uint64_t) HSI_VALUE * ((uint64_t) ((RCC->PLLCFGR & RCC_PLLCFGR_PLLN) >> RCC_PLLCFGR_PLLN_Pos)))) / (uint64_t)pllm);
 8002cb8:	4816      	ldreq	r0, [pc, #88]	; (8002d14 <HAL_RCC_GetSysClockFreq+0x88>)
        pllvco = (uint32_t) ((((uint64_t) HSE_VALUE * ((uint64_t) ((RCC->PLLCFGR & RCC_PLLCFGR_PLLN) >> RCC_PLLCFGR_PLLN_Pos)))) / (uint64_t)pllm);
 8002cba:	f3c1 1188 	ubfx	r1, r1, #6, #9
 8002cbe:	bf18      	it	ne
 8002cc0:	2300      	movne	r3, #0
      pllm = RCC->PLLCFGR & RCC_PLLCFGR_PLLM;
 8002cc2:	f002 023f 	and.w	r2, r2, #63	; 0x3f
        pllvco = (uint32_t) ((((uint64_t) HSI_VALUE * ((uint64_t) ((RCC->PLLCFGR & RCC_PLLCFGR_PLLN) >> RCC_PLLCFGR_PLLN_Pos)))) / (uint64_t)pllm);
 8002cc6:	fba1 0100 	umull	r0, r1, r1, r0
 8002cca:	f7fd ff8d 	bl	8000be8 <__aeabi_uldivmod>
      pllp = ((((RCC->PLLCFGR & RCC_PLLCFGR_PLLP) >> RCC_PLLCFGR_PLLP_Pos) + 1U) *2U);
 8002cce:	4b10      	ldr	r3, [pc, #64]	; (8002d10 <HAL_RCC_GetSysClockFreq+0x84>)
 8002cd0:	685b      	ldr	r3, [r3, #4]
 8002cd2:	f3c3 4301 	ubfx	r3, r3, #16, #2
 8002cd6:	3301      	adds	r3, #1
 8002cd8:	005b      	lsls	r3, r3, #1
      sysclockfreq = pllvco/pllr;
 8002cda:	fbb0 f0f3 	udiv	r0, r0, r3
      break;
 8002cde:	e7e3      	b.n	8002ca8 <HAL_RCC_GetSysClockFreq+0x1c>
      pllm = RCC->PLLCFGR & RCC_PLLCFGR_PLLM;
 8002ce0:	684a      	ldr	r2, [r1, #4]
      if(__HAL_RCC_GET_PLL_OSCSOURCE() != RCC_PLLSOURCE_HSI)
 8002ce2:	684b      	ldr	r3, [r1, #4]
        pllvco = (uint32_t) ((((uint64_t) HSE_VALUE * ((uint64_t) ((RCC->PLLCFGR & RCC_PLLCFGR_PLLN) >> RCC_PLLCFGR_PLLN_Pos)))) / (uint64_t)pllm);
 8002ce4:	6849      	ldr	r1, [r1, #4]
      if(__HAL_RCC_GET_PLL_OSCSOURCE() != RCC_PLLSOURCE_HSI)
 8002ce6:	f413 0380 	ands.w	r3, r3, #4194304	; 0x400000
        pllvco = (uint32_t) ((((uint64_t) HSE_VALUE * ((uint64_t) ((RCC->PLLCFGR & RCC_PLLCFGR_PLLN) >> RCC_PLLCFGR_PLLN_Pos)))) / (uint64_t)pllm);
 8002cea:	bf14      	ite	ne
 8002cec:	480a      	ldrne	r0, [pc, #40]	; (8002d18 <HAL_RCC_GetSysClockFreq+0x8c>)
        pllvco = (uint32_t) ((((uint64_t) HSI_VALUE * ((uint64_t) ((RCC->PLLCFGR & RCC_PLLCFGR_PLLN) >> RCC_PLLCFGR_PLLN_Pos)))) / (uint64_t)pllm);
 8002cee:	4809      	ldreq	r0, [pc, #36]	; (8002d14 <HAL_RCC_GetSysClockFreq+0x88>)
        pllvco = (uint32_t) ((((uint64_t) HSE_VALUE * ((uint64_t) ((RCC->PLLCFGR & RCC_PLLCFGR_PLLN) >> RCC_PLLCFGR_PLLN_Pos)))) / (uint64_t)pllm);
 8002cf0:	f3c1 1188 	ubfx	r1, r1, #6, #9
 8002cf4:	bf18      	it	ne
 8002cf6:	2300      	movne	r3, #0
      pllm = RCC->PLLCFGR & RCC_PLLCFGR_PLLM;
 8002cf8:	f002 023f 	and.w	r2, r2, #63	; 0x3f
        pllvco = (uint32_t) ((((uint64_t) HSI_VALUE * ((uint64_t) ((RCC->PLLCFGR & RCC_PLLCFGR_PLLN) >> RCC_PLLCFGR_PLLN_Pos)))) / (uint64_t)pllm);
 8002cfc:	fba1 0100 	umull	r0, r1, r1, r0
 8002d00:	f7fd ff72 	bl	8000be8 <__aeabi_uldivmod>
      pllr = ((RCC->PLLCFGR & RCC_PLLCFGR_PLLR) >> RCC_PLLCFGR_PLLR_Pos);
 8002d04:	4b02      	ldr	r3, [pc, #8]	; (8002d10 <HAL_RCC_GetSysClockFreq+0x84>)
 8002d06:	685b      	ldr	r3, [r3, #4]
 8002d08:	f3c3 7302 	ubfx	r3, r3, #28, #3
 8002d0c:	e7e5      	b.n	8002cda <HAL_RCC_GetSysClockFreq+0x4e>
 8002d0e:	bf00      	nop
 8002d10:	40023800 	.word	0x40023800
 8002d14:	00f42400 	.word	0x00f42400
 8002d18:	007a1200 	.word	0x007a1200

08002d1c <HAL_RCC_OscConfig>:
  * @note   This function add the PLL/PLLR factor management during PLL configuration this feature
  *         is only available in STM32F410xx/STM32F446xx/STM32F469xx/STM32F479xx/STM32F412Zx/STM32F412Vx/STM32F412Rx/STM32F412Cx devices
  * @retval HAL status
  */
HAL_StatusTypeDef HAL_RCC_OscConfig(RCC_OscInitTypeDef  *RCC_OscInitStruct)
{
 8002d1c:	e92d 41f3 	stmdb	sp!, {r0, r1, r4, r5, r6, r7, r8, lr}
  uint32_t tickstart, pll_config;

  /* Check Null pointer */
  if(RCC_OscInitStruct == NULL)
 8002d20:	4604      	mov	r4, r0
 8002d22:	2800      	cmp	r0, #0
 8002d24:	d031      	beq.n	8002d8a <HAL_RCC_OscConfig+0x6e>
  }

  /* Check the parameters */
  assert_param(IS_RCC_OSCILLATORTYPE(RCC_OscInitStruct->OscillatorType));
  /*------------------------------- HSE Configuration ------------------------*/
  if(((RCC_OscInitStruct->OscillatorType) & RCC_OSCILLATORTYPE_HSE) == RCC_OSCILLATORTYPE_HSE)
 8002d26:	6803      	ldr	r3, [r0, #0]
 8002d28:	07df      	lsls	r7, r3, #31
 8002d2a:	d410      	bmi.n	8002d4e <HAL_RCC_OscConfig+0x32>
        }
      }
    }
  }
  /*----------------------------- HSI Configuration --------------------------*/
  if(((RCC_OscInitStruct->OscillatorType) & RCC_OSCILLATORTYPE_HSI) == RCC_OSCILLATORTYPE_HSI)
 8002d2c:	6823      	ldr	r3, [r4, #0]
 8002d2e:	079e      	lsls	r6, r3, #30
 8002d30:	d467      	bmi.n	8002e02 <HAL_RCC_OscConfig+0xe6>
        }
      }
    }
  }
  /*------------------------------ LSI Configuration -------------------------*/
  if(((RCC_OscInitStruct->OscillatorType) & RCC_OSCILLATORTYPE_LSI) == RCC_OSCILLATORTYPE_LSI)
 8002d32:	6823      	ldr	r3, [r4, #0]
 8002d34:	071a      	lsls	r2, r3, #28
 8002d36:	f100 80b2 	bmi.w	8002e9e <HAL_RCC_OscConfig+0x182>
        }
      }
    }
  }
  /*------------------------------ LSE Configuration -------------------------*/
  if(((RCC_OscInitStruct->OscillatorType) & RCC_OSCILLATORTYPE_LSE) == RCC_OSCILLATORTYPE_LSE)
 8002d3a:	6823      	ldr	r3, [r4, #0]
 8002d3c:	075b      	lsls	r3, r3, #29
 8002d3e:	f100 80d2 	bmi.w	8002ee6 <HAL_RCC_OscConfig+0x1ca>
    }
  }
  /*-------------------------------- PLL Configuration -----------------------*/
  /* Check the parameters */
  assert_param(IS_RCC_PLL(RCC_OscInitStruct->PLL.PLLState));
  if ((RCC_OscInitStruct->PLL.PLLState) != RCC_PLL_NONE)
 8002d42:	69a0      	ldr	r0, [r4, #24]
 8002d44:	2800      	cmp	r0, #0
 8002d46:	f040 8139 	bne.w	8002fbc <HAL_RCC_OscConfig+0x2a0>
          return HAL_ERROR;
        }
      }
    }
  }
  return HAL_OK;
 8002d4a:	2000      	movs	r0, #0
 8002d4c:	e034      	b.n	8002db8 <HAL_RCC_OscConfig+0x9c>
    if((__HAL_RCC_GET_SYSCLK_SOURCE() == RCC_CFGR_SWS_HSE)                                                                     ||\
 8002d4e:	4b98      	ldr	r3, [pc, #608]	; (8002fb0 <HAL_RCC_OscConfig+0x294>)
 8002d50:	689a      	ldr	r2, [r3, #8]
 8002d52:	f002 020c 	and.w	r2, r2, #12
 8002d56:	2a04      	cmp	r2, #4
 8002d58:	d010      	beq.n	8002d7c <HAL_RCC_OscConfig+0x60>
      ((__HAL_RCC_GET_SYSCLK_SOURCE() == RCC_CFGR_SWS_PLL) && ((RCC->PLLCFGR & RCC_PLLCFGR_PLLSRC) == RCC_PLLCFGR_PLLSRC_HSE)) ||\
 8002d5a:	689a      	ldr	r2, [r3, #8]
 8002d5c:	f002 020c 	and.w	r2, r2, #12
    if((__HAL_RCC_GET_SYSCLK_SOURCE() == RCC_CFGR_SWS_HSE)                                                                     ||\
 8002d60:	2a08      	cmp	r2, #8
 8002d62:	d102      	bne.n	8002d6a <HAL_RCC_OscConfig+0x4e>
      ((__HAL_RCC_GET_SYSCLK_SOURCE() == RCC_CFGR_SWS_PLL) && ((RCC->PLLCFGR & RCC_PLLCFGR_PLLSRC) == RCC_PLLCFGR_PLLSRC_HSE)) ||\
 8002d64:	685b      	ldr	r3, [r3, #4]
 8002d66:	025d      	lsls	r5, r3, #9
 8002d68:	d408      	bmi.n	8002d7c <HAL_RCC_OscConfig+0x60>
      ((__HAL_RCC_GET_SYSCLK_SOURCE() == RCC_CFGR_SWS_PLLR) && ((RCC->PLLCFGR & RCC_PLLCFGR_PLLSRC) == RCC_PLLCFGR_PLLSRC_HSE)))
 8002d6a:	4b91      	ldr	r3, [pc, #580]	; (8002fb0 <HAL_RCC_OscConfig+0x294>)
 8002d6c:	689a      	ldr	r2, [r3, #8]
 8002d6e:	f002 020c 	and.w	r2, r2, #12
      ((__HAL_RCC_GET_SYSCLK_SOURCE() == RCC_CFGR_SWS_PLL) && ((RCC->PLLCFGR & RCC_PLLCFGR_PLLSRC) == RCC_PLLCFGR_PLLSRC_HSE)) ||\
 8002d72:	2a0c      	cmp	r2, #12
 8002d74:	d10b      	bne.n	8002d8e <HAL_RCC_OscConfig+0x72>
      ((__HAL_RCC_GET_SYSCLK_SOURCE() == RCC_CFGR_SWS_PLLR) && ((RCC->PLLCFGR & RCC_PLLCFGR_PLLSRC) == RCC_PLLCFGR_PLLSRC_HSE)))
 8002d76:	685a      	ldr	r2, [r3, #4]
 8002d78:	0250      	lsls	r0, r2, #9
 8002d7a:	d508      	bpl.n	8002d8e <HAL_RCC_OscConfig+0x72>
      if((__HAL_RCC_GET_FLAG(RCC_FLAG_HSERDY) != RESET) && (RCC_OscInitStruct->HSEState == RCC_HSE_OFF))
 8002d7c:	4b8c      	ldr	r3, [pc, #560]	; (8002fb0 <HAL_RCC_OscConfig+0x294>)
 8002d7e:	681b      	ldr	r3, [r3, #0]
 8002d80:	0399      	lsls	r1, r3, #14
 8002d82:	d5d3      	bpl.n	8002d2c <HAL_RCC_OscConfig+0x10>
 8002d84:	6863      	ldr	r3, [r4, #4]
 8002d86:	2b00      	cmp	r3, #0
 8002d88:	d1d0      	bne.n	8002d2c <HAL_RCC_OscConfig+0x10>
          return HAL_ERROR;
 8002d8a:	2001      	movs	r0, #1
 8002d8c:	e014      	b.n	8002db8 <HAL_RCC_OscConfig+0x9c>
      __HAL_RCC_HSE_CONFIG(RCC_OscInitStruct->HSEState);
 8002d8e:	6862      	ldr	r2, [r4, #4]
 8002d90:	f5b2 3f80 	cmp.w	r2, #65536	; 0x10000
 8002d94:	d113      	bne.n	8002dbe <HAL_RCC_OscConfig+0xa2>
 8002d96:	681a      	ldr	r2, [r3, #0]
 8002d98:	f442 3280 	orr.w	r2, r2, #65536	; 0x10000
 8002d9c:	601a      	str	r2, [r3, #0]
        tickstart = HAL_GetTick();
 8002d9e:	f7fe fe95 	bl	8001acc <HAL_GetTick>
        while(__HAL_RCC_GET_FLAG(RCC_FLAG_HSERDY) == RESET)
 8002da2:	4e83      	ldr	r6, [pc, #524]	; (8002fb0 <HAL_RCC_OscConfig+0x294>)
        tickstart = HAL_GetTick();
 8002da4:	4605      	mov	r5, r0
        while(__HAL_RCC_GET_FLAG(RCC_FLAG_HSERDY) == RESET)
 8002da6:	6833      	ldr	r3, [r6, #0]
 8002da8:	039a      	lsls	r2, r3, #14
 8002daa:	d4bf      	bmi.n	8002d2c <HAL_RCC_OscConfig+0x10>
          if((HAL_GetTick() - tickstart ) > HSE_TIMEOUT_VALUE)
 8002dac:	f7fe fe8e 	bl	8001acc <HAL_GetTick>
 8002db0:	1b40      	subs	r0, r0, r5
 8002db2:	2864      	cmp	r0, #100	; 0x64
 8002db4:	d9f7      	bls.n	8002da6 <HAL_RCC_OscConfig+0x8a>
            return HAL_TIMEOUT;
 8002db6:	2003      	movs	r0, #3
}
 8002db8:	b002      	add	sp, #8
 8002dba:	e8bd 81f0 	ldmia.w	sp!, {r4, r5, r6, r7, r8, pc}
      __HAL_RCC_HSE_CONFIG(RCC_OscInitStruct->HSEState);
 8002dbe:	4d7c      	ldr	r5, [pc, #496]	; (8002fb0 <HAL_RCC_OscConfig+0x294>)
 8002dc0:	f5b2 2fa0 	cmp.w	r2, #327680	; 0x50000
 8002dc4:	682b      	ldr	r3, [r5, #0]
 8002dc6:	d107      	bne.n	8002dd8 <HAL_RCC_OscConfig+0xbc>
 8002dc8:	f443 2380 	orr.w	r3, r3, #262144	; 0x40000
 8002dcc:	602b      	str	r3, [r5, #0]
 8002dce:	682b      	ldr	r3, [r5, #0]
 8002dd0:	f443 3380 	orr.w	r3, r3, #65536	; 0x10000
 8002dd4:	602b      	str	r3, [r5, #0]
      if((RCC_OscInitStruct->HSEState) != RCC_HSE_OFF)
 8002dd6:	e7e2      	b.n	8002d9e <HAL_RCC_OscConfig+0x82>
      __HAL_RCC_HSE_CONFIG(RCC_OscInitStruct->HSEState);
 8002dd8:	f423 3380 	bic.w	r3, r3, #65536	; 0x10000
 8002ddc:	602b      	str	r3, [r5, #0]
 8002dde:	682b      	ldr	r3, [r5, #0]
 8002de0:	f423 2380 	bic.w	r3, r3, #262144	; 0x40000
 8002de4:	602b      	str	r3, [r5, #0]
      if((RCC_OscInitStruct->HSEState) != RCC_HSE_OFF)
 8002de6:	2a00      	cmp	r2, #0
 8002de8:	d1d9      	bne.n	8002d9e <HAL_RCC_OscConfig+0x82>
        tickstart = HAL_GetTick();
 8002dea:	f7fe fe6f 	bl	8001acc <HAL_GetTick>
 8002dee:	4606      	mov	r6, r0
        while(__HAL_RCC_GET_FLAG(RCC_FLAG_HSERDY) != RESET)
 8002df0:	682b      	ldr	r3, [r5, #0]
 8002df2:	039b      	lsls	r3, r3, #14
 8002df4:	d59a      	bpl.n	8002d2c <HAL_RCC_OscConfig+0x10>
          if((HAL_GetTick() - tickstart ) > HSE_TIMEOUT_VALUE)
 8002df6:	f7fe fe69 	bl	8001acc <HAL_GetTick>
 8002dfa:	1b80      	subs	r0, r0, r6
 8002dfc:	2864      	cmp	r0, #100	; 0x64
 8002dfe:	d9f7      	bls.n	8002df0 <HAL_RCC_OscConfig+0xd4>
 8002e00:	e7d9      	b.n	8002db6 <HAL_RCC_OscConfig+0x9a>
    if((__HAL_RCC_GET_SYSCLK_SOURCE() == RCC_CFGR_SWS_HSI)                                                                     ||\
 8002e02:	4b6b      	ldr	r3, [pc, #428]	; (8002fb0 <HAL_RCC_OscConfig+0x294>)
 8002e04:	689a      	ldr	r2, [r3, #8]
 8002e06:	f012 0f0c 	tst.w	r2, #12
 8002e0a:	d010      	beq.n	8002e2e <HAL_RCC_OscConfig+0x112>
      ((__HAL_RCC_GET_SYSCLK_SOURCE() == RCC_CFGR_SWS_PLL) && ((RCC->PLLCFGR & RCC_PLLCFGR_PLLSRC) == RCC_PLLCFGR_PLLSRC_HSI)) ||\
 8002e0c:	689a      	ldr	r2, [r3, #8]
 8002e0e:	f002 020c 	and.w	r2, r2, #12
    if((__HAL_RCC_GET_SYSCLK_SOURCE() == RCC_CFGR_SWS_HSI)                                                                     ||\
 8002e12:	2a08      	cmp	r2, #8
 8002e14:	d102      	bne.n	8002e1c <HAL_RCC_OscConfig+0x100>
      ((__HAL_RCC_GET_SYSCLK_SOURCE() == RCC_CFGR_SWS_PLL) && ((RCC->PLLCFGR & RCC_PLLCFGR_PLLSRC) == RCC_PLLCFGR_PLLSRC_HSI)) ||\
 8002e16:	685b      	ldr	r3, [r3, #4]
 8002e18:	025f      	lsls	r7, r3, #9
 8002e1a:	d508      	bpl.n	8002e2e <HAL_RCC_OscConfig+0x112>
      ((__HAL_RCC_GET_SYSCLK_SOURCE() == RCC_CFGR_SWS_PLLR) && ((RCC->PLLCFGR & RCC_PLLCFGR_PLLSRC) == RCC_PLLCFGR_PLLSRC_HSI)))
 8002e1c:	4a64      	ldr	r2, [pc, #400]	; (8002fb0 <HAL_RCC_OscConfig+0x294>)
 8002e1e:	6893      	ldr	r3, [r2, #8]
 8002e20:	f003 030c 	and.w	r3, r3, #12
      ((__HAL_RCC_GET_SYSCLK_SOURCE() == RCC_CFGR_SWS_PLL) && ((RCC->PLLCFGR & RCC_PLLCFGR_PLLSRC) == RCC_PLLCFGR_PLLSRC_HSI)) ||\
 8002e24:	2b0c      	cmp	r3, #12
 8002e26:	d111      	bne.n	8002e4c <HAL_RCC_OscConfig+0x130>
      ((__HAL_RCC_GET_SYSCLK_SOURCE() == RCC_CFGR_SWS_PLLR) && ((RCC->PLLCFGR & RCC_PLLCFGR_PLLSRC) == RCC_PLLCFGR_PLLSRC_HSI)))
 8002e28:	6853      	ldr	r3, [r2, #4]
 8002e2a:	025e      	lsls	r6, r3, #9
 8002e2c:	d40e      	bmi.n	8002e4c <HAL_RCC_OscConfig+0x130>
      if((__HAL_RCC_GET_FLAG(RCC_FLAG_HSIRDY) != RESET) && (RCC_OscInitStruct->HSIState != RCC_HSI_ON))
 8002e2e:	4a60      	ldr	r2, [pc, #384]	; (8002fb0 <HAL_RCC_OscConfig+0x294>)
 8002e30:	6813      	ldr	r3, [r2, #0]
 8002e32:	079d      	lsls	r5, r3, #30
 8002e34:	d502      	bpl.n	8002e3c <HAL_RCC_OscConfig+0x120>
 8002e36:	68e3      	ldr	r3, [r4, #12]
 8002e38:	2b01      	cmp	r3, #1
 8002e3a:	d1a6      	bne.n	8002d8a <HAL_RCC_OscConfig+0x6e>
        __HAL_RCC_HSI_CALIBRATIONVALUE_ADJUST(RCC_OscInitStruct->HSICalibrationValue);
 8002e3c:	6813      	ldr	r3, [r2, #0]
 8002e3e:	6921      	ldr	r1, [r4, #16]
 8002e40:	f023 03f8 	bic.w	r3, r3, #248	; 0xf8
 8002e44:	ea43 03c1 	orr.w	r3, r3, r1, lsl #3
 8002e48:	6013      	str	r3, [r2, #0]
      if((__HAL_RCC_GET_FLAG(RCC_FLAG_HSIRDY) != RESET) && (RCC_OscInitStruct->HSIState != RCC_HSI_ON))
 8002e4a:	e772      	b.n	8002d32 <HAL_RCC_OscConfig+0x16>
      if((RCC_OscInitStruct->HSIState)!= RCC_HSI_OFF)
 8002e4c:	68e2      	ldr	r2, [r4, #12]
 8002e4e:	4b59      	ldr	r3, [pc, #356]	; (8002fb4 <HAL_RCC_OscConfig+0x298>)
 8002e50:	b1b2      	cbz	r2, 8002e80 <HAL_RCC_OscConfig+0x164>
        __HAL_RCC_HSI_ENABLE();
 8002e52:	2201      	movs	r2, #1
 8002e54:	601a      	str	r2, [r3, #0]
        tickstart = HAL_GetTick();
 8002e56:	f7fe fe39 	bl	8001acc <HAL_GetTick>
        while(__HAL_RCC_GET_FLAG(RCC_FLAG_HSIRDY) == RESET)
 8002e5a:	4d55      	ldr	r5, [pc, #340]	; (8002fb0 <HAL_RCC_OscConfig+0x294>)
        tickstart = HAL_GetTick();
 8002e5c:	4606      	mov	r6, r0
        while(__HAL_RCC_GET_FLAG(RCC_FLAG_HSIRDY) == RESET)
 8002e5e:	682b      	ldr	r3, [r5, #0]
 8002e60:	0798      	lsls	r0, r3, #30
 8002e62:	d507      	bpl.n	8002e74 <HAL_RCC_OscConfig+0x158>
        __HAL_RCC_HSI_CALIBRATIONVALUE_ADJUST(RCC_OscInitStruct->HSICalibrationValue);
 8002e64:	682b      	ldr	r3, [r5, #0]
 8002e66:	6922      	ldr	r2, [r4, #16]
 8002e68:	f023 03f8 	bic.w	r3, r3, #248	; 0xf8
 8002e6c:	ea43 03c2 	orr.w	r3, r3, r2, lsl #3
 8002e70:	602b      	str	r3, [r5, #0]
 8002e72:	e75e      	b.n	8002d32 <HAL_RCC_OscConfig+0x16>
          if((HAL_GetTick() - tickstart ) > HSI_TIMEOUT_VALUE)
 8002e74:	f7fe fe2a 	bl	8001acc <HAL_GetTick>
 8002e78:	1b80      	subs	r0, r0, r6
 8002e7a:	2802      	cmp	r0, #2
 8002e7c:	d9ef      	bls.n	8002e5e <HAL_RCC_OscConfig+0x142>
 8002e7e:	e79a      	b.n	8002db6 <HAL_RCC_OscConfig+0x9a>
        __HAL_RCC_HSI_DISABLE();
 8002e80:	601a      	str	r2, [r3, #0]
        tickstart = HAL_GetTick();
 8002e82:	f7fe fe23 	bl	8001acc <HAL_GetTick>
        while(__HAL_RCC_GET_FLAG(RCC_FLAG_HSIRDY) != RESET)
 8002e86:	4e4a      	ldr	r6, [pc, #296]	; (8002fb0 <HAL_RCC_OscConfig+0x294>)
        tickstart = HAL_GetTick();
 8002e88:	4605      	mov	r5, r0
        while(__HAL_RCC_GET_FLAG(RCC_FLAG_HSIRDY) != RESET)
 8002e8a:	6833      	ldr	r3, [r6, #0]
 8002e8c:	0799      	lsls	r1, r3, #30
 8002e8e:	f57f af50 	bpl.w	8002d32 <HAL_RCC_OscConfig+0x16>
          if((HAL_GetTick() - tickstart ) > HSI_TIMEOUT_VALUE)
 8002e92:	f7fe fe1b 	bl	8001acc <HAL_GetTick>
 8002e96:	1b40      	subs	r0, r0, r5
 8002e98:	2802      	cmp	r0, #2
 8002e9a:	d9f6      	bls.n	8002e8a <HAL_RCC_OscConfig+0x16e>
 8002e9c:	e78b      	b.n	8002db6 <HAL_RCC_OscConfig+0x9a>
    if((RCC_OscInitStruct->LSIState)!= RCC_LSI_OFF)
 8002e9e:	6962      	ldr	r2, [r4, #20]
 8002ea0:	4b44      	ldr	r3, [pc, #272]	; (8002fb4 <HAL_RCC_OscConfig+0x298>)
 8002ea2:	b182      	cbz	r2, 8002ec6 <HAL_RCC_OscConfig+0x1aa>
      __HAL_RCC_LSI_ENABLE();
 8002ea4:	2201      	movs	r2, #1
 8002ea6:	f8c3 2e80 	str.w	r2, [r3, #3712]	; 0xe80
      tickstart = HAL_GetTick();
 8002eaa:	f7fe fe0f 	bl	8001acc <HAL_GetTick>
      while(__HAL_RCC_GET_FLAG(RCC_FLAG_LSIRDY) == RESET)
 8002eae:	4e40      	ldr	r6, [pc, #256]	; (8002fb0 <HAL_RCC_OscConfig+0x294>)
      tickstart = HAL_GetTick();
 8002eb0:	4605      	mov	r5, r0
      while(__HAL_RCC_GET_FLAG(RCC_FLAG_LSIRDY) == RESET)
 8002eb2:	6f73      	ldr	r3, [r6, #116]	; 0x74
 8002eb4:	079f      	lsls	r7, r3, #30
 8002eb6:	f53f af40 	bmi.w	8002d3a <HAL_RCC_OscConfig+0x1e>
        if((HAL_GetTick() - tickstart ) > LSI_TIMEOUT_VALUE)
 8002eba:	f7fe fe07 	bl	8001acc <HAL_GetTick>
 8002ebe:	1b40      	subs	r0, r0, r5
 8002ec0:	2802      	cmp	r0, #2
 8002ec2:	d9f6      	bls.n	8002eb2 <HAL_RCC_OscConfig+0x196>
 8002ec4:	e777      	b.n	8002db6 <HAL_RCC_OscConfig+0x9a>
      __HAL_RCC_LSI_DISABLE();
 8002ec6:	f8c3 2e80 	str.w	r2, [r3, #3712]	; 0xe80
      tickstart = HAL_GetTick();
 8002eca:	f7fe fdff 	bl	8001acc <HAL_GetTick>
      while(__HAL_RCC_GET_FLAG(RCC_FLAG_LSIRDY) != RESET)
 8002ece:	4e38      	ldr	r6, [pc, #224]	; (8002fb0 <HAL_RCC_OscConfig+0x294>)
      tickstart = HAL_GetTick();
 8002ed0:	4605      	mov	r5, r0
      while(__HAL_RCC_GET_FLAG(RCC_FLAG_LSIRDY) != RESET)
 8002ed2:	6f73      	ldr	r3, [r6, #116]	; 0x74
 8002ed4:	0798      	lsls	r0, r3, #30
 8002ed6:	f57f af30 	bpl.w	8002d3a <HAL_RCC_OscConfig+0x1e>
        if((HAL_GetTick() - tickstart ) > LSI_TIMEOUT_VALUE)
 8002eda:	f7fe fdf7 	bl	8001acc <HAL_GetTick>
 8002ede:	1b40      	subs	r0, r0, r5
 8002ee0:	2802      	cmp	r0, #2
 8002ee2:	d9f6      	bls.n	8002ed2 <HAL_RCC_OscConfig+0x1b6>
 8002ee4:	e767      	b.n	8002db6 <HAL_RCC_OscConfig+0x9a>
    if(__HAL_RCC_PWR_IS_CLK_DISABLED())
 8002ee6:	4b32      	ldr	r3, [pc, #200]	; (8002fb0 <HAL_RCC_OscConfig+0x294>)
 8002ee8:	6c1a      	ldr	r2, [r3, #64]	; 0x40
 8002eea:	f012 5280 	ands.w	r2, r2, #268435456	; 0x10000000
 8002eee:	d128      	bne.n	8002f42 <HAL_RCC_OscConfig+0x226>
      __HAL_RCC_PWR_CLK_ENABLE();
 8002ef0:	9201      	str	r2, [sp, #4]
 8002ef2:	6c1a      	ldr	r2, [r3, #64]	; 0x40
 8002ef4:	f042 5280 	orr.w	r2, r2, #268435456	; 0x10000000
 8002ef8:	641a      	str	r2, [r3, #64]	; 0x40
 8002efa:	6c1b      	ldr	r3, [r3, #64]	; 0x40
 8002efc:	f003 5380 	and.w	r3, r3, #268435456	; 0x10000000
 8002f00:	9301      	str	r3, [sp, #4]
 8002f02:	9b01      	ldr	r3, [sp, #4]
      pwrclkchanged = SET;
 8002f04:	2701      	movs	r7, #1
    if(HAL_IS_BIT_CLR(PWR->CR, PWR_CR_DBP))
 8002f06:	4d2c      	ldr	r5, [pc, #176]	; (8002fb8 <HAL_RCC_OscConfig+0x29c>)
 8002f08:	682b      	ldr	r3, [r5, #0]
 8002f0a:	05d9      	lsls	r1, r3, #23
 8002f0c:	d51b      	bpl.n	8002f46 <HAL_RCC_OscConfig+0x22a>
    __HAL_RCC_LSE_CONFIG(RCC_OscInitStruct->LSEState);
 8002f0e:	68a3      	ldr	r3, [r4, #8]
 8002f10:	4d27      	ldr	r5, [pc, #156]	; (8002fb0 <HAL_RCC_OscConfig+0x294>)
 8002f12:	2b01      	cmp	r3, #1
 8002f14:	d127      	bne.n	8002f66 <HAL_RCC_OscConfig+0x24a>
 8002f16:	6f2b      	ldr	r3, [r5, #112]	; 0x70
 8002f18:	f043 0301 	orr.w	r3, r3, #1
 8002f1c:	672b      	str	r3, [r5, #112]	; 0x70
      tickstart = HAL_GetTick();
 8002f1e:	f7fe fdd5 	bl	8001acc <HAL_GetTick>
      while(__HAL_RCC_GET_FLAG(RCC_FLAG_LSERDY) == RESET)
 8002f22:	4e23      	ldr	r6, [pc, #140]	; (8002fb0 <HAL_RCC_OscConfig+0x294>)
      tickstart = HAL_GetTick();
 8002f24:	4605      	mov	r5, r0
        if((HAL_GetTick() - tickstart ) > RCC_LSE_TIMEOUT_VALUE)
 8002f26:	f241 3888 	movw	r8, #5000	; 0x1388
      while(__HAL_RCC_GET_FLAG(RCC_FLAG_LSERDY) == RESET)
 8002f2a:	6f33      	ldr	r3, [r6, #112]	; 0x70
 8002f2c:	079b      	lsls	r3, r3, #30
 8002f2e:	d539      	bpl.n	8002fa4 <HAL_RCC_OscConfig+0x288>
    if(pwrclkchanged == SET)
 8002f30:	2f00      	cmp	r7, #0
 8002f32:	f43f af06 	beq.w	8002d42 <HAL_RCC_OscConfig+0x26>
      __HAL_RCC_PWR_CLK_DISABLE();
 8002f36:	4a1e      	ldr	r2, [pc, #120]	; (8002fb0 <HAL_RCC_OscConfig+0x294>)
 8002f38:	6c13      	ldr	r3, [r2, #64]	; 0x40
 8002f3a:	f023 5380 	bic.w	r3, r3, #268435456	; 0x10000000
 8002f3e:	6413      	str	r3, [r2, #64]	; 0x40
 8002f40:	e6ff      	b.n	8002d42 <HAL_RCC_OscConfig+0x26>
    FlagStatus       pwrclkchanged = RESET;
 8002f42:	2700      	movs	r7, #0
 8002f44:	e7df      	b.n	8002f06 <HAL_RCC_OscConfig+0x1ea>
      SET_BIT(PWR->CR, PWR_CR_DBP);
 8002f46:	682b      	ldr	r3, [r5, #0]
 8002f48:	f443 7380 	orr.w	r3, r3, #256	; 0x100
 8002f4c:	602b      	str	r3, [r5, #0]
      tickstart = HAL_GetTick();
 8002f4e:	f7fe fdbd 	bl	8001acc <HAL_GetTick>
 8002f52:	4606      	mov	r6, r0
      while(HAL_IS_BIT_CLR(PWR->CR, PWR_CR_DBP))
 8002f54:	682b      	ldr	r3, [r5, #0]
 8002f56:	05da      	lsls	r2, r3, #23
 8002f58:	d4d9      	bmi.n	8002f0e <HAL_RCC_OscConfig+0x1f2>
        if((HAL_GetTick() - tickstart) > RCC_DBP_TIMEOUT_VALUE)
 8002f5a:	f7fe fdb7 	bl	8001acc <HAL_GetTick>
 8002f5e:	1b80      	subs	r0, r0, r6
 8002f60:	2802      	cmp	r0, #2
 8002f62:	d9f7      	bls.n	8002f54 <HAL_RCC_OscConfig+0x238>
 8002f64:	e727      	b.n	8002db6 <HAL_RCC_OscConfig+0x9a>
    __HAL_RCC_LSE_CONFIG(RCC_OscInitStruct->LSEState);
 8002f66:	2b05      	cmp	r3, #5
 8002f68:	d104      	bne.n	8002f74 <HAL_RCC_OscConfig+0x258>
 8002f6a:	6f2b      	ldr	r3, [r5, #112]	; 0x70
 8002f6c:	f043 0304 	orr.w	r3, r3, #4
 8002f70:	672b      	str	r3, [r5, #112]	; 0x70
 8002f72:	e7d0      	b.n	8002f16 <HAL_RCC_OscConfig+0x1fa>
 8002f74:	6f2a      	ldr	r2, [r5, #112]	; 0x70
 8002f76:	f022 0201 	bic.w	r2, r2, #1
 8002f7a:	672a      	str	r2, [r5, #112]	; 0x70
 8002f7c:	6f2a      	ldr	r2, [r5, #112]	; 0x70
 8002f7e:	f022 0204 	bic.w	r2, r2, #4
 8002f82:	672a      	str	r2, [r5, #112]	; 0x70
    if((RCC_OscInitStruct->LSEState) != RCC_LSE_OFF)
 8002f84:	2b00      	cmp	r3, #0
 8002f86:	d1ca      	bne.n	8002f1e <HAL_RCC_OscConfig+0x202>
      tickstart = HAL_GetTick();
 8002f88:	f7fe fda0 	bl	8001acc <HAL_GetTick>
        if((HAL_GetTick() - tickstart ) > RCC_LSE_TIMEOUT_VALUE)
 8002f8c:	f241 3888 	movw	r8, #5000	; 0x1388
      tickstart = HAL_GetTick();
 8002f90:	4606      	mov	r6, r0
      while(__HAL_RCC_GET_FLAG(RCC_FLAG_LSERDY) != RESET)
 8002f92:	6f2b      	ldr	r3, [r5, #112]	; 0x70
 8002f94:	0798      	lsls	r0, r3, #30
 8002f96:	d5cb      	bpl.n	8002f30 <HAL_RCC_OscConfig+0x214>
        if((HAL_GetTick() - tickstart ) > RCC_LSE_TIMEOUT_VALUE)
 8002f98:	f7fe fd98 	bl	8001acc <HAL_GetTick>
 8002f9c:	1b80      	subs	r0, r0, r6
 8002f9e:	4540      	cmp	r0, r8
 8002fa0:	d9f7      	bls.n	8002f92 <HAL_RCC_OscConfig+0x276>
 8002fa2:	e708      	b.n	8002db6 <HAL_RCC_OscConfig+0x9a>
        if((HAL_GetTick() - tickstart ) > RCC_LSE_TIMEOUT_VALUE)
 8002fa4:	f7fe fd92 	bl	8001acc <HAL_GetTick>
 8002fa8:	1b40      	subs	r0, r0, r5
 8002faa:	4540      	cmp	r0, r8
 8002fac:	d9bd      	bls.n	8002f2a <HAL_RCC_OscConfig+0x20e>
 8002fae:	e702      	b.n	8002db6 <HAL_RCC_OscConfig+0x9a>
 8002fb0:	40023800 	.word	0x40023800
 8002fb4:	42470000 	.word	0x42470000
 8002fb8:	40007000 	.word	0x40007000
    if(__HAL_RCC_GET_SYSCLK_SOURCE() != RCC_CFGR_SWS_PLL)
 8002fbc:	4d3b      	ldr	r5, [pc, #236]	; (80030ac <HAL_RCC_OscConfig+0x390>)
 8002fbe:	68ab      	ldr	r3, [r5, #8]
 8002fc0:	f003 030c 	and.w	r3, r3, #12
 8002fc4:	2b08      	cmp	r3, #8
 8002fc6:	d040      	beq.n	800304a <HAL_RCC_OscConfig+0x32e>
      if((RCC_OscInitStruct->PLL.PLLState) == RCC_PLL_ON)
 8002fc8:	4b39      	ldr	r3, [pc, #228]	; (80030b0 <HAL_RCC_OscConfig+0x394>)
 8002fca:	2200      	movs	r2, #0
 8002fcc:	2802      	cmp	r0, #2
        __HAL_RCC_PLL_DISABLE();
 8002fce:	661a      	str	r2, [r3, #96]	; 0x60
      if((RCC_OscInitStruct->PLL.PLLState) == RCC_PLL_ON)
 8002fd0:	d12e      	bne.n	8003030 <HAL_RCC_OscConfig+0x314>
        tickstart = HAL_GetTick();
 8002fd2:	f7fe fd7b 	bl	8001acc <HAL_GetTick>
 8002fd6:	4606      	mov	r6, r0
        while(__HAL_RCC_GET_FLAG(RCC_FLAG_PLLRDY) != RESET)
 8002fd8:	682b      	ldr	r3, [r5, #0]
 8002fda:	0199      	lsls	r1, r3, #6
 8002fdc:	d422      	bmi.n	8003024 <HAL_RCC_OscConfig+0x308>
        WRITE_REG(RCC->PLLCFGR, (RCC_OscInitStruct->PLL.PLLSource                                            | \
 8002fde:	e9d4 3207 	ldrd	r3, r2, [r4, #28]
 8002fe2:	4313      	orrs	r3, r2
 8002fe4:	6a62      	ldr	r2, [r4, #36]	; 0x24
 8002fe6:	ea43 1382 	orr.w	r3, r3, r2, lsl #6
 8002fea:	6ae2      	ldr	r2, [r4, #44]	; 0x2c
 8002fec:	ea43 6302 	orr.w	r3, r3, r2, lsl #24
 8002ff0:	6b22      	ldr	r2, [r4, #48]	; 0x30
 8002ff2:	ea43 7302 	orr.w	r3, r3, r2, lsl #28
 8002ff6:	6aa2      	ldr	r2, [r4, #40]	; 0x28
 8002ff8:	0852      	lsrs	r2, r2, #1
 8002ffa:	3a01      	subs	r2, #1
 8002ffc:	ea43 4302 	orr.w	r3, r3, r2, lsl #16
 8003000:	606b      	str	r3, [r5, #4]
        __HAL_RCC_PLL_ENABLE();
 8003002:	4b2b      	ldr	r3, [pc, #172]	; (80030b0 <HAL_RCC_OscConfig+0x394>)
        while(__HAL_RCC_GET_FLAG(RCC_FLAG_PLLRDY) == RESET)
 8003004:	4d29      	ldr	r5, [pc, #164]	; (80030ac <HAL_RCC_OscConfig+0x390>)
        __HAL_RCC_PLL_ENABLE();
 8003006:	2201      	movs	r2, #1
 8003008:	661a      	str	r2, [r3, #96]	; 0x60
        tickstart = HAL_GetTick();
 800300a:	f7fe fd5f 	bl	8001acc <HAL_GetTick>
 800300e:	4604      	mov	r4, r0
        while(__HAL_RCC_GET_FLAG(RCC_FLAG_PLLRDY) == RESET)
 8003010:	682b      	ldr	r3, [r5, #0]
 8003012:	019a      	lsls	r2, r3, #6
 8003014:	f53f ae99 	bmi.w	8002d4a <HAL_RCC_OscConfig+0x2e>
          if((HAL_GetTick() - tickstart ) > PLL_TIMEOUT_VALUE)
 8003018:	f7fe fd58 	bl	8001acc <HAL_GetTick>
 800301c:	1b00      	subs	r0, r0, r4
 800301e:	2802      	cmp	r0, #2
 8003020:	d9f6      	bls.n	8003010 <HAL_RCC_OscConfig+0x2f4>
 8003022:	e6c8      	b.n	8002db6 <HAL_RCC_OscConfig+0x9a>
          if((HAL_GetTick() - tickstart ) > PLL_TIMEOUT_VALUE)
 8003024:	f7fe fd52 	bl	8001acc <HAL_GetTick>
 8003028:	1b80      	subs	r0, r0, r6
 800302a:	2802      	cmp	r0, #2
 800302c:	d9d4      	bls.n	8002fd8 <HAL_RCC_OscConfig+0x2bc>
 800302e:	e6c2      	b.n	8002db6 <HAL_RCC_OscConfig+0x9a>
        tickstart = HAL_GetTick();
 8003030:	f7fe fd4c 	bl	8001acc <HAL_GetTick>
 8003034:	4604      	mov	r4, r0
        while(__HAL_RCC_GET_FLAG(RCC_FLAG_PLLRDY) != RESET)
 8003036:	682b      	ldr	r3, [r5, #0]
 8003038:	019b      	lsls	r3, r3, #6
 800303a:	f57f ae86 	bpl.w	8002d4a <HAL_RCC_OscConfig+0x2e>
          if((HAL_GetTick() - tickstart ) > PLL_TIMEOUT_VALUE)
 800303e:	f7fe fd45 	bl	8001acc <HAL_GetTick>
 8003042:	1b00      	subs	r0, r0, r4
 8003044:	2802      	cmp	r0, #2
 8003046:	d9f6      	bls.n	8003036 <HAL_RCC_OscConfig+0x31a>
 8003048:	e6b5      	b.n	8002db6 <HAL_RCC_OscConfig+0x9a>
      if((RCC_OscInitStruct->PLL.PLLState) == RCC_PLL_OFF)
 800304a:	2801      	cmp	r0, #1
 800304c:	f43f aeb4 	beq.w	8002db8 <HAL_RCC_OscConfig+0x9c>
        pll_config = RCC->PLLCFGR;
 8003050:	686b      	ldr	r3, [r5, #4]
        if (((RCC_OscInitStruct->PLL.PLLState) == RCC_PLL_OFF) ||
 8003052:	69e2      	ldr	r2, [r4, #28]
            (READ_BIT(pll_config, RCC_PLLCFGR_PLLSRC) != RCC_OscInitStruct->PLL.PLLSource) ||
 8003054:	f403 0180 	and.w	r1, r3, #4194304	; 0x400000
        if (((RCC_OscInitStruct->PLL.PLLState) == RCC_PLL_OFF) ||
 8003058:	4291      	cmp	r1, r2
 800305a:	f47f ae96 	bne.w	8002d8a <HAL_RCC_OscConfig+0x6e>
            (READ_BIT(pll_config, RCC_PLLCFGR_PLLSRC) != RCC_OscInitStruct->PLL.PLLSource) ||
 800305e:	6a21      	ldr	r1, [r4, #32]
            (READ_BIT(pll_config, RCC_PLLCFGR_PLLM) != (RCC_OscInitStruct->PLL.PLLM) << RCC_PLLCFGR_PLLM_Pos) ||
 8003060:	f003 023f 	and.w	r2, r3, #63	; 0x3f
            (READ_BIT(pll_config, RCC_PLLCFGR_PLLSRC) != RCC_OscInitStruct->PLL.PLLSource) ||
 8003064:	428a      	cmp	r2, r1
 8003066:	f47f ae90 	bne.w	8002d8a <HAL_RCC_OscConfig+0x6e>
            (READ_BIT(pll_config, RCC_PLLCFGR_PLLN) != (RCC_OscInitStruct->PLL.PLLN) << RCC_PLLCFGR_PLLN_Pos) ||
 800306a:	6a61      	ldr	r1, [r4, #36]	; 0x24
            (READ_BIT(pll_config, RCC_PLLCFGR_PLLM) != (RCC_OscInitStruct->PLL.PLLM) << RCC_PLLCFGR_PLLM_Pos) ||
 800306c:	f647 72c0 	movw	r2, #32704	; 0x7fc0
 8003070:	401a      	ands	r2, r3
 8003072:	ebb2 1f81 	cmp.w	r2, r1, lsl #6
 8003076:	f47f ae88 	bne.w	8002d8a <HAL_RCC_OscConfig+0x6e>
            (READ_BIT(pll_config, RCC_PLLCFGR_PLLP) != (((RCC_OscInitStruct->PLL.PLLP >> 1U) - 1U)) << RCC_PLLCFGR_PLLP_Pos) ||
 800307a:	6aa2      	ldr	r2, [r4, #40]	; 0x28
 800307c:	0852      	lsrs	r2, r2, #1
 800307e:	f403 3140 	and.w	r1, r3, #196608	; 0x30000
 8003082:	3a01      	subs	r2, #1
            (READ_BIT(pll_config, RCC_PLLCFGR_PLLN) != (RCC_OscInitStruct->PLL.PLLN) << RCC_PLLCFGR_PLLN_Pos) ||
 8003084:	ebb1 4f02 	cmp.w	r1, r2, lsl #16
 8003088:	f47f ae7f 	bne.w	8002d8a <HAL_RCC_OscConfig+0x6e>
            (READ_BIT(pll_config, RCC_PLLCFGR_PLLQ) != (RCC_OscInitStruct->PLL.PLLQ << RCC_PLLCFGR_PLLQ_Pos)) ||
 800308c:	6ae1      	ldr	r1, [r4, #44]	; 0x2c
 800308e:	f003 6270 	and.w	r2, r3, #251658240	; 0xf000000
            (READ_BIT(pll_config, RCC_PLLCFGR_PLLP) != (((RCC_OscInitStruct->PLL.PLLP >> 1U) - 1U)) << RCC_PLLCFGR_PLLP_Pos) ||
 8003092:	ebb2 6f01 	cmp.w	r2, r1, lsl #24
 8003096:	f47f ae78 	bne.w	8002d8a <HAL_RCC_OscConfig+0x6e>
            (READ_BIT(pll_config, RCC_PLLCFGR_PLLR) != (RCC_OscInitStruct->PLL.PLLR << RCC_PLLCFGR_PLLR_Pos)))
 800309a:	6b22      	ldr	r2, [r4, #48]	; 0x30
 800309c:	f003 43e0 	and.w	r3, r3, #1879048192	; 0x70000000
            (READ_BIT(pll_config, RCC_PLLCFGR_PLLQ) != (RCC_OscInitStruct->PLL.PLLQ << RCC_PLLCFGR_PLLQ_Pos)) ||
 80030a0:	ebb3 7f02 	cmp.w	r3, r2, lsl #28
 80030a4:	f43f ae51 	beq.w	8002d4a <HAL_RCC_OscConfig+0x2e>
 80030a8:	e66f      	b.n	8002d8a <HAL_RCC_OscConfig+0x6e>
 80030aa:	bf00      	nop
 80030ac:	40023800 	.word	0x40023800
 80030b0:	42470000 	.word	0x42470000

080030b4 <UART_EndRxTransfer>:
  * @retval None
  */
static void UART_EndRxTransfer(UART_HandleTypeDef *huart)
{
  /* Disable RXNE, PE and ERR (Frame error, noise error, overrun error) interrupts */
  ATOMIC_CLEAR_BIT(huart->Instance->CR1, (USART_CR1_RXNEIE | USART_CR1_PEIE));
 80030b4:	6802      	ldr	r2, [r0, #0]
   __ASM volatile ("ldrex %0, %1" : "=r" (result) : "Q" (*addr) );
 80030b6:	f102 030c 	add.w	r3, r2, #12
 80030ba:	e853 3f00 	ldrex	r3, [r3]
 80030be:	f423 7390 	bic.w	r3, r3, #288	; 0x120
   __ASM volatile ("strex %0, %2, %1" : "=&r" (result), "=Q" (*addr) : "r" (value) );
 80030c2:	320c      	adds	r2, #12
 80030c4:	e842 3100 	strex	r1, r3, [r2]
   return(result);
 80030c8:	6802      	ldr	r2, [r0, #0]
 80030ca:	2900      	cmp	r1, #0
 80030cc:	d1f2      	bne.n	80030b4 <UART_EndRxTransfer>
   __ASM volatile ("ldrex %0, %1" : "=r" (result) : "Q" (*addr) );
 80030ce:	f102 0314 	add.w	r3, r2, #20
 80030d2:	e853 3f00 	ldrex	r3, [r3]
  ATOMIC_CLEAR_BIT(huart->Instance->CR3, USART_CR3_EIE);
 80030d6:	f023 0301 	bic.w	r3, r3, #1
   __ASM volatile ("strex %0, %2, %1" : "=&r" (result), "=Q" (*addr) : "r" (value) );
 80030da:	f102 0c14 	add.w	ip, r2, #20
 80030de:	e84c 3100 	strex	r1, r3, [ip]
 80030e2:	2900      	cmp	r1, #0
 80030e4:	d1f3      	bne.n	80030ce <UART_EndRxTransfer+0x1a>

  /* In case of reception waiting for IDLE event, disable also the IDLE IE interrupt source */
  if (huart->ReceptionType == HAL_UART_RECEPTION_TOIDLE)
 80030e6:	6b03      	ldr	r3, [r0, #48]	; 0x30
 80030e8:	2b01      	cmp	r3, #1
 80030ea:	d10b      	bne.n	8003104 <UART_EndRxTransfer+0x50>
   __ASM volatile ("ldrex %0, %1" : "=r" (result) : "Q" (*addr) );
 80030ec:	f102 030c 	add.w	r3, r2, #12
 80030f0:	e853 3f00 	ldrex	r3, [r3]
  {
    ATOMIC_CLEAR_BIT(huart->Instance->CR1, USART_CR1_IDLEIE);
 80030f4:	f023 0310 	bic.w	r3, r3, #16
   __ASM volatile ("strex %0, %2, %1" : "=&r" (result), "=Q" (*addr) : "r" (value) );
 80030f8:	f102 0c0c 	add.w	ip, r2, #12
 80030fc:	e84c 3100 	strex	r1, r3, [ip]
 8003100:	2900      	cmp	r1, #0
 8003102:	d1f3      	bne.n	80030ec <UART_EndRxTransfer+0x38>
  }

  /* At end of Rx process, restore huart->RxState to Ready */
  huart->RxState = HAL_UART_STATE_READY;
 8003104:	2320      	movs	r3, #32
 8003106:	f880 3042 	strb.w	r3, [r0, #66]	; 0x42
  huart->ReceptionType = HAL_UART_RECEPTION_STANDARD;
 800310a:	2300      	movs	r3, #0
 800310c:	6303      	str	r3, [r0, #48]	; 0x30
}
 800310e:	4770      	bx	lr

08003110 <UART_SetConfig>:
  assert_param(IS_UART_MODE(huart->Init.Mode));

  /*-------------------------- USART CR2 Configuration -----------------------*/
  /* Configure the UART Stop Bits: Set STOP[13:12] bits
     according to huart->Init.StopBits value */
  MODIFY_REG(huart->Instance->CR2, USART_CR2_STOP, huart->Init.StopBits);
 8003110:	6802      	ldr	r2, [r0, #0]
 8003112:	68c1      	ldr	r1, [r0, #12]
 8003114:	6913      	ldr	r3, [r2, #16]
 8003116:	f423 5340 	bic.w	r3, r3, #12288	; 0x3000
 800311a:	430b      	orrs	r3, r1
{
 800311c:	b570      	push	{r4, r5, r6, lr}
  MODIFY_REG(huart->Instance->CR2, USART_CR2_STOP, huart->Init.StopBits);
 800311e:	6113      	str	r3, [r2, #16]
{
 8003120:	4605      	mov	r5, r0
     Set the M bits according to huart->Init.WordLength value
     Set PCE and PS bits according to huart->Init.Parity value
     Set TE and RE bits according to huart->Init.Mode value
     Set OVER8 bit according to huart->Init.OverSampling value */

  tmpreg = (uint32_t)huart->Init.WordLength | huart->Init.Parity | huart->Init.Mode | huart->Init.OverSampling;
 8003122:	6883      	ldr	r3, [r0, #8]
 8003124:	6900      	ldr	r0, [r0, #16]
  MODIFY_REG(huart->Instance->CR1,
 8003126:	68d1      	ldr	r1, [r2, #12]
  tmpreg = (uint32_t)huart->Init.WordLength | huart->Init.Parity | huart->Init.Mode | huart->Init.OverSampling;
 8003128:	4303      	orrs	r3, r0
 800312a:	6968      	ldr	r0, [r5, #20]
 800312c:	4303      	orrs	r3, r0
 800312e:	69e8      	ldr	r0, [r5, #28]
  MODIFY_REG(huart->Instance->CR1,
 8003130:	f421 4116 	bic.w	r1, r1, #38400	; 0x9600
 8003134:	f021 010c 	bic.w	r1, r1, #12
  tmpreg = (uint32_t)huart->Init.WordLength | huart->Init.Parity | huart->Init.Mode | huart->Init.OverSampling;
 8003138:	4303      	orrs	r3, r0
  MODIFY_REG(huart->Instance->CR1,
 800313a:	430b      	orrs	r3, r1
 800313c:	60d3      	str	r3, [r2, #12]
             (uint32_t)(USART_CR1_M | USART_CR1_PCE | USART_CR1_PS | USART_CR1_TE | USART_CR1_RE | USART_CR1_OVER8),
             tmpreg);

  /*-------------------------- USART CR3 Configuration -----------------------*/
  /* Configure the UART HFC: Set CTSE and RTSE bits according to huart->Init.HwFlowCtl value */
  MODIFY_REG(huart->Instance->CR3, (USART_CR3_RTSE | USART_CR3_CTSE), huart->Init.HwFlowCtl);
 800313e:	6953      	ldr	r3, [r2, #20]
 8003140:	69a9      	ldr	r1, [r5, #24]
 8003142:	f423 7340 	bic.w	r3, r3, #768	; 0x300
 8003146:	430b      	orrs	r3, r1
 8003148:	6153      	str	r3, [r2, #20]
    if ((huart->Instance == USART1) || (huart->Instance == USART6) || (huart->Instance == UART9) || (huart->Instance == UART10))
    {
      pclk = HAL_RCC_GetPCLK2Freq();
    }
#elif defined(USART6)
    if ((huart->Instance == USART1) || (huart->Instance == USART6))
 800314a:	4b1f      	ldr	r3, [pc, #124]	; (80031c8 <UART_SetConfig+0xb8>)
 800314c:	429a      	cmp	r2, r3
 800314e:	d003      	beq.n	8003158 <UART_SetConfig+0x48>
 8003150:	f503 6380 	add.w	r3, r3, #1024	; 0x400
 8003154:	429a      	cmp	r2, r3
 8003156:	d123      	bne.n	80031a0 <UART_SetConfig+0x90>
    {
      pclk = HAL_RCC_GetPCLK2Freq();
 8003158:	f7ff fd88 	bl	8002c6c <HAL_RCC_GetPCLK2Freq>
    else
    {
      pclk = HAL_RCC_GetPCLK1Freq();
    }
  /*-------------------------- USART BRR Configuration ---------------------*/
  if (huart->Init.OverSampling == UART_OVERSAMPLING_8)
 800315c:	69eb      	ldr	r3, [r5, #28]
  {
    huart->Instance->BRR = UART_BRR_SAMPLING8(pclk, huart->Init.BaudRate);
 800315e:	2119      	movs	r1, #25
  if (huart->Init.OverSampling == UART_OVERSAMPLING_8)
 8003160:	f5b3 4f00 	cmp.w	r3, #32768	; 0x8000
    huart->Instance->BRR = UART_BRR_SAMPLING8(pclk, huart->Init.BaudRate);
 8003164:	e9d5 4600 	ldrd	r4, r6, [r5]
 8003168:	fba0 0101 	umull	r0, r1, r0, r1
  if (huart->Init.OverSampling == UART_OVERSAMPLING_8)
 800316c:	d11b      	bne.n	80031a6 <UART_SetConfig+0x96>
    huart->Instance->BRR = UART_BRR_SAMPLING8(pclk, huart->Init.BaudRate);
 800316e:	19b2      	adds	r2, r6, r6
 8003170:	f04f 0300 	mov.w	r3, #0
 8003174:	415b      	adcs	r3, r3
 8003176:	f7fd fd37 	bl	8000be8 <__aeabi_uldivmod>
 800317a:	2264      	movs	r2, #100	; 0x64
 800317c:	fbb0 f1f2 	udiv	r1, r0, r2
 8003180:	fb02 0311 	mls	r3, r2, r1, r0
 8003184:	00db      	lsls	r3, r3, #3
 8003186:	3332      	adds	r3, #50	; 0x32
 8003188:	fbb3 f3f2 	udiv	r3, r3, r2
 800318c:	f003 0207 	and.w	r2, r3, #7
 8003190:	005b      	lsls	r3, r3, #1
 8003192:	eb02 1201 	add.w	r2, r2, r1, lsl #4
 8003196:	f403 73f8 	and.w	r3, r3, #496	; 0x1f0
 800319a:	4413      	add	r3, r2
  }
  else
  {
    huart->Instance->BRR = UART_BRR_SAMPLING16(pclk, huart->Init.BaudRate);
 800319c:	60a3      	str	r3, [r4, #8]
  }
}
 800319e:	bd70      	pop	{r4, r5, r6, pc}
      pclk = HAL_RCC_GetPCLK1Freq();
 80031a0:	f7ff fd54 	bl	8002c4c <HAL_RCC_GetPCLK1Freq>
 80031a4:	e7da      	b.n	800315c <UART_SetConfig+0x4c>
    huart->Instance->BRR = UART_BRR_SAMPLING16(pclk, huart->Init.BaudRate);
 80031a6:	00b2      	lsls	r2, r6, #2
 80031a8:	0fb3      	lsrs	r3, r6, #30
 80031aa:	f7fd fd1d 	bl	8000be8 <__aeabi_uldivmod>
 80031ae:	2264      	movs	r2, #100	; 0x64
 80031b0:	fbb0 f1f2 	udiv	r1, r0, r2
 80031b4:	fb02 0311 	mls	r3, r2, r1, r0
 80031b8:	011b      	lsls	r3, r3, #4
 80031ba:	3332      	adds	r3, #50	; 0x32
 80031bc:	fbb3 f3f2 	udiv	r3, r3, r2
 80031c0:	eb03 1301 	add.w	r3, r3, r1, lsl #4
 80031c4:	e7ea      	b.n	800319c <UART_SetConfig+0x8c>
 80031c6:	bf00      	nop
 80031c8:	40011000 	.word	0x40011000

080031cc <UART_WaitOnFlagUntilTimeout.constprop.0>:
static HAL_StatusTypeDef UART_WaitOnFlagUntilTimeout(UART_HandleTypeDef *huart, uint32_t Flag, FlagStatus Status,
 80031cc:	b5f7      	push	{r0, r1, r2, r4, r5, r6, r7, lr}
 80031ce:	4605      	mov	r5, r0
 80031d0:	460c      	mov	r4, r1
 80031d2:	4617      	mov	r7, r2
 80031d4:	461e      	mov	r6, r3
  while ((__HAL_UART_GET_FLAG(huart, Flag) ? SET : RESET) == Status)
 80031d6:	682a      	ldr	r2, [r5, #0]
 80031d8:	6813      	ldr	r3, [r2, #0]
 80031da:	ea34 0303 	bics.w	r3, r4, r3
 80031de:	d101      	bne.n	80031e4 <UART_WaitOnFlagUntilTimeout.constprop.0+0x18>
  return HAL_OK;
 80031e0:	2000      	movs	r0, #0
 80031e2:	e021      	b.n	8003228 <UART_WaitOnFlagUntilTimeout.constprop.0+0x5c>
    if (Timeout != HAL_MAX_DELAY)
 80031e4:	1c70      	adds	r0, r6, #1
 80031e6:	d0f7      	beq.n	80031d8 <UART_WaitOnFlagUntilTimeout.constprop.0+0xc>
      if (((HAL_GetTick() - Tickstart) > Timeout) || (Timeout == 0U))
 80031e8:	f7fe fc70 	bl	8001acc <HAL_GetTick>
 80031ec:	1bc0      	subs	r0, r0, r7
 80031ee:	4286      	cmp	r6, r0
 80031f0:	d31c      	bcc.n	800322c <UART_WaitOnFlagUntilTimeout.constprop.0+0x60>
 80031f2:	b1de      	cbz	r6, 800322c <UART_WaitOnFlagUntilTimeout.constprop.0+0x60>
      if ((READ_BIT(huart->Instance->CR1, USART_CR1_RE) != 0U) && (Flag != UART_FLAG_TXE) && (Flag != UART_FLAG_TC))
 80031f4:	682b      	ldr	r3, [r5, #0]
 80031f6:	68da      	ldr	r2, [r3, #12]
 80031f8:	0751      	lsls	r1, r2, #29
 80031fa:	d5ec      	bpl.n	80031d6 <UART_WaitOnFlagUntilTimeout.constprop.0+0xa>
 80031fc:	2c80      	cmp	r4, #128	; 0x80
 80031fe:	d0ea      	beq.n	80031d6 <UART_WaitOnFlagUntilTimeout.constprop.0+0xa>
 8003200:	2c40      	cmp	r4, #64	; 0x40
 8003202:	d0e8      	beq.n	80031d6 <UART_WaitOnFlagUntilTimeout.constprop.0+0xa>
        if (__HAL_UART_GET_FLAG(huart, UART_FLAG_ORE) == SET)
 8003204:	681a      	ldr	r2, [r3, #0]
 8003206:	0712      	lsls	r2, r2, #28
 8003208:	d5e5      	bpl.n	80031d6 <UART_WaitOnFlagUntilTimeout.constprop.0+0xa>
          __HAL_UART_CLEAR_OREFLAG(huart);
 800320a:	2400      	movs	r4, #0
 800320c:	9401      	str	r4, [sp, #4]
 800320e:	681a      	ldr	r2, [r3, #0]
 8003210:	9201      	str	r2, [sp, #4]
 8003212:	685b      	ldr	r3, [r3, #4]
 8003214:	9301      	str	r3, [sp, #4]
          UART_EndRxTransfer(huart);
 8003216:	4628      	mov	r0, r5
          __HAL_UART_CLEAR_OREFLAG(huart);
 8003218:	9b01      	ldr	r3, [sp, #4]
          UART_EndRxTransfer(huart);
 800321a:	f7ff ff4b 	bl	80030b4 <UART_EndRxTransfer>
          huart->ErrorCode = HAL_UART_ERROR_ORE;
 800321e:	2308      	movs	r3, #8
 8003220:	646b      	str	r3, [r5, #68]	; 0x44
          __HAL_UNLOCK(huart);
 8003222:	f885 4040 	strb.w	r4, [r5, #64]	; 0x40
          return HAL_ERROR;
 8003226:	2001      	movs	r0, #1
}
 8003228:	b003      	add	sp, #12
 800322a:	bdf0      	pop	{r4, r5, r6, r7, pc}
        return HAL_TIMEOUT;
 800322c:	2003      	movs	r0, #3
 800322e:	e7fb      	b.n	8003228 <UART_WaitOnFlagUntilTimeout.constprop.0+0x5c>

08003230 <HAL_UART_Init>:
{
 8003230:	b510      	push	{r4, lr}
  if (huart == NULL)
 8003232:	4604      	mov	r4, r0
 8003234:	b348      	cbz	r0, 800328a <HAL_UART_Init+0x5a>
  if (huart->gState == HAL_UART_STATE_RESET)
 8003236:	f890 3041 	ldrb.w	r3, [r0, #65]	; 0x41
 800323a:	f003 02ff 	and.w	r2, r3, #255	; 0xff
 800323e:	b91b      	cbnz	r3, 8003248 <HAL_UART_Init+0x18>
    huart->Lock = HAL_UNLOCKED;
 8003240:	f880 2040 	strb.w	r2, [r0, #64]	; 0x40
    HAL_UART_MspInit(huart);
 8003244:	f7fe fb0c 	bl	8001860 <HAL_UART_MspInit>
  __HAL_UART_DISABLE(huart);
 8003248:	6822      	ldr	r2, [r4, #0]
  huart->gState = HAL_UART_STATE_BUSY;
 800324a:	2324      	movs	r3, #36	; 0x24
 800324c:	f884 3041 	strb.w	r3, [r4, #65]	; 0x41
  __HAL_UART_DISABLE(huart);
 8003250:	68d3      	ldr	r3, [r2, #12]
 8003252:	f423 5300 	bic.w	r3, r3, #8192	; 0x2000
 8003256:	60d3      	str	r3, [r2, #12]
  UART_SetConfig(huart);
 8003258:	4620      	mov	r0, r4
 800325a:	f7ff ff59 	bl	8003110 <UART_SetConfig>
  CLEAR_BIT(huart->Instance->CR2, (USART_CR2_LINEN | USART_CR2_CLKEN));
 800325e:	6823      	ldr	r3, [r4, #0]
 8003260:	691a      	ldr	r2, [r3, #16]
 8003262:	f422 4290 	bic.w	r2, r2, #18432	; 0x4800
 8003266:	611a      	str	r2, [r3, #16]
  CLEAR_BIT(huart->Instance->CR3, (USART_CR3_SCEN | USART_CR3_HDSEL | USART_CR3_IREN));
 8003268:	695a      	ldr	r2, [r3, #20]
 800326a:	f022 022a 	bic.w	r2, r2, #42	; 0x2a
 800326e:	615a      	str	r2, [r3, #20]
  __HAL_UART_ENABLE(huart);
 8003270:	68da      	ldr	r2, [r3, #12]
 8003272:	f442 5200 	orr.w	r2, r2, #8192	; 0x2000
 8003276:	60da      	str	r2, [r3, #12]
  huart->ErrorCode = HAL_UART_ERROR_NONE;
 8003278:	2000      	movs	r0, #0
  huart->gState = HAL_UART_STATE_READY;
 800327a:	2320      	movs	r3, #32
  huart->ErrorCode = HAL_UART_ERROR_NONE;
 800327c:	6460      	str	r0, [r4, #68]	; 0x44
  huart->gState = HAL_UART_STATE_READY;
 800327e:	f884 3041 	strb.w	r3, [r4, #65]	; 0x41
  huart->RxState = HAL_UART_STATE_READY;
 8003282:	f884 3042 	strb.w	r3, [r4, #66]	; 0x42
  huart->RxEventType = HAL_UART_RXEVENT_TC;
 8003286:	6360      	str	r0, [r4, #52]	; 0x34
}
 8003288:	bd10      	pop	{r4, pc}
    return HAL_ERROR;
 800328a:	2001      	movs	r0, #1
 800328c:	e7fc      	b.n	8003288 <HAL_UART_Init+0x58>

0800328e <HAL_UART_Transmit>:
{
 800328e:	b5f7      	push	{r0, r1, r2, r4, r5, r6, r7, lr}
 8003290:	4617      	mov	r7, r2
  if (huart->gState == HAL_UART_STATE_READY)
 8003292:	f890 2041 	ldrb.w	r2, [r0, #65]	; 0x41
{
 8003296:	9300      	str	r3, [sp, #0]
  if (huart->gState == HAL_UART_STATE_READY)
 8003298:	2a20      	cmp	r2, #32
{
 800329a:	4604      	mov	r4, r0
 800329c:	460e      	mov	r6, r1
  if (huart->gState == HAL_UART_STATE_READY)
 800329e:	d140      	bne.n	8003322 <HAL_UART_Transmit+0x94>
    if ((pData == NULL) || (Size == 0U))
 80032a0:	2900      	cmp	r1, #0
 80032a2:	d040      	beq.n	8003326 <HAL_UART_Transmit+0x98>
 80032a4:	2f00      	cmp	r7, #0
 80032a6:	d03e      	beq.n	8003326 <HAL_UART_Transmit+0x98>
    huart->gState = HAL_UART_STATE_BUSY_TX;
 80032a8:	2221      	movs	r2, #33	; 0x21
    huart->ErrorCode = HAL_UART_ERROR_NONE;
 80032aa:	2500      	movs	r5, #0
 80032ac:	6445      	str	r5, [r0, #68]	; 0x44
    huart->gState = HAL_UART_STATE_BUSY_TX;
 80032ae:	f880 2041 	strb.w	r2, [r0, #65]	; 0x41
    tickstart = HAL_GetTick();
 80032b2:	f7fe fc0b 	bl	8001acc <HAL_GetTick>
    if ((huart->Init.WordLength == UART_WORDLENGTH_9B) && (huart->Init.Parity == UART_PARITY_NONE))
 80032b6:	68a1      	ldr	r1, [r4, #8]
 80032b8:	9b00      	ldr	r3, [sp, #0]
    huart->TxXferSize = Size;
 80032ba:	84a7      	strh	r7, [r4, #36]	; 0x24
    if ((huart->Init.WordLength == UART_WORDLENGTH_9B) && (huart->Init.Parity == UART_PARITY_NONE))
 80032bc:	f5b1 5f80 	cmp.w	r1, #4096	; 0x1000
    tickstart = HAL_GetTick();
 80032c0:	4602      	mov	r2, r0
    huart->TxXferCount = Size;
 80032c2:	84e7      	strh	r7, [r4, #38]	; 0x26
    if ((huart->Init.WordLength == UART_WORDLENGTH_9B) && (huart->Init.Parity == UART_PARITY_NONE))
 80032c4:	d103      	bne.n	80032ce <HAL_UART_Transmit+0x40>
 80032c6:	6921      	ldr	r1, [r4, #16]
 80032c8:	b909      	cbnz	r1, 80032ce <HAL_UART_Transmit+0x40>
 80032ca:	4635      	mov	r5, r6
      pdata8bits  = NULL;
 80032cc:	460e      	mov	r6, r1
    while (huart->TxXferCount > 0U)
 80032ce:	8ce1      	ldrh	r1, [r4, #38]	; 0x26
 80032d0:	b289      	uxth	r1, r1
 80032d2:	b949      	cbnz	r1, 80032e8 <HAL_UART_Transmit+0x5a>
    if (UART_WaitOnFlagUntilTimeout(huart, UART_FLAG_TC, RESET, tickstart, Timeout) != HAL_OK)
 80032d4:	2140      	movs	r1, #64	; 0x40
 80032d6:	4620      	mov	r0, r4
 80032d8:	f7ff ff78 	bl	80031cc <UART_WaitOnFlagUntilTimeout.constprop.0>
 80032dc:	2320      	movs	r3, #32
      huart->gState = HAL_UART_STATE_READY;
 80032de:	f884 3041 	strb.w	r3, [r4, #65]	; 0x41
    if (UART_WaitOnFlagUntilTimeout(huart, UART_FLAG_TC, RESET, tickstart, Timeout) != HAL_OK)
 80032e2:	b968      	cbnz	r0, 8003300 <HAL_UART_Transmit+0x72>
}
 80032e4:	b003      	add	sp, #12
 80032e6:	bdf0      	pop	{r4, r5, r6, r7, pc}
      if (UART_WaitOnFlagUntilTimeout(huart, UART_FLAG_TXE, RESET, tickstart, Timeout) != HAL_OK)
 80032e8:	2180      	movs	r1, #128	; 0x80
 80032ea:	4620      	mov	r0, r4
 80032ec:	e9cd 2300 	strd	r2, r3, [sp]
 80032f0:	f7ff ff6c 	bl	80031cc <UART_WaitOnFlagUntilTimeout.constprop.0>
 80032f4:	e9dd 2300 	ldrd	r2, r3, [sp]
 80032f8:	b120      	cbz	r0, 8003304 <HAL_UART_Transmit+0x76>
        huart->gState = HAL_UART_STATE_READY;
 80032fa:	2320      	movs	r3, #32
 80032fc:	f884 3041 	strb.w	r3, [r4, #65]	; 0x41
      return HAL_TIMEOUT;
 8003300:	2003      	movs	r0, #3
 8003302:	e7ef      	b.n	80032e4 <HAL_UART_Transmit+0x56>
        huart->Instance->DR = (uint16_t)(*pdata16bits & 0x01FFU);
 8003304:	6820      	ldr	r0, [r4, #0]
      if (pdata8bits == NULL)
 8003306:	b94e      	cbnz	r6, 800331c <HAL_UART_Transmit+0x8e>
        huart->Instance->DR = (uint16_t)(*pdata16bits & 0x01FFU);
 8003308:	f835 1b02 	ldrh.w	r1, [r5], #2
 800330c:	f3c1 0108 	ubfx	r1, r1, #0, #9
        huart->Instance->DR = (uint8_t)(*pdata8bits & 0xFFU);
 8003310:	6041      	str	r1, [r0, #4]
      huart->TxXferCount--;
 8003312:	8ce1      	ldrh	r1, [r4, #38]	; 0x26
 8003314:	3901      	subs	r1, #1
 8003316:	b289      	uxth	r1, r1
 8003318:	84e1      	strh	r1, [r4, #38]	; 0x26
 800331a:	e7d8      	b.n	80032ce <HAL_UART_Transmit+0x40>
        huart->Instance->DR = (uint8_t)(*pdata8bits & 0xFFU);
 800331c:	f816 1b01 	ldrb.w	r1, [r6], #1
 8003320:	e7f6      	b.n	8003310 <HAL_UART_Transmit+0x82>
    return HAL_BUSY;
 8003322:	2002      	movs	r0, #2
 8003324:	e7de      	b.n	80032e4 <HAL_UART_Transmit+0x56>
      return  HAL_ERROR;
 8003326:	2001      	movs	r0, #1
 8003328:	e7dc      	b.n	80032e4 <HAL_UART_Transmit+0x56>

0800332a <HAL_UART_Receive>:
{
 800332a:	e92d 43f8 	stmdb	sp!, {r3, r4, r5, r6, r7, r8, r9, lr}
 800332e:	4699      	mov	r9, r3
  if (huart->RxState == HAL_UART_STATE_READY)
 8003330:	f890 3042 	ldrb.w	r3, [r0, #66]	; 0x42
 8003334:	2b20      	cmp	r3, #32
{
 8003336:	4604      	mov	r4, r0
 8003338:	460f      	mov	r7, r1
 800333a:	4615      	mov	r5, r2
  if (huart->RxState == HAL_UART_STATE_READY)
 800333c:	d146      	bne.n	80033cc <HAL_UART_Receive+0xa2>
    if ((pData == NULL) || (Size == 0U))
 800333e:	2900      	cmp	r1, #0
 8003340:	d046      	beq.n	80033d0 <HAL_UART_Receive+0xa6>
 8003342:	2a00      	cmp	r2, #0
 8003344:	d044      	beq.n	80033d0 <HAL_UART_Receive+0xa6>
    huart->RxState = HAL_UART_STATE_BUSY_RX;
 8003346:	2322      	movs	r3, #34	; 0x22
    huart->ErrorCode = HAL_UART_ERROR_NONE;
 8003348:	2600      	movs	r6, #0
 800334a:	6446      	str	r6, [r0, #68]	; 0x44
    huart->RxState = HAL_UART_STATE_BUSY_RX;
 800334c:	f880 3042 	strb.w	r3, [r0, #66]	; 0x42
    huart->ReceptionType = HAL_UART_RECEPTION_STANDARD;
 8003350:	6306      	str	r6, [r0, #48]	; 0x30
    tickstart = HAL_GetTick();
 8003352:	f7fe fbbb 	bl	8001acc <HAL_GetTick>
    if ((huart->Init.WordLength == UART_WORDLENGTH_9B) && (huart->Init.Parity == UART_PARITY_NONE))
 8003356:	68a3      	ldr	r3, [r4, #8]
    huart->RxXferSize = Size;
 8003358:	85a5      	strh	r5, [r4, #44]	; 0x2c
    if ((huart->Init.WordLength == UART_WORDLENGTH_9B) && (huart->Init.Parity == UART_PARITY_NONE))
 800335a:	f5b3 5f80 	cmp.w	r3, #4096	; 0x1000
    tickstart = HAL_GetTick();
 800335e:	4680      	mov	r8, r0
    huart->RxXferCount = Size;
 8003360:	85e5      	strh	r5, [r4, #46]	; 0x2e
    if ((huart->Init.WordLength == UART_WORDLENGTH_9B) && (huart->Init.Parity == UART_PARITY_NONE))
 8003362:	d103      	bne.n	800336c <HAL_UART_Receive+0x42>
 8003364:	6923      	ldr	r3, [r4, #16]
 8003366:	b90b      	cbnz	r3, 800336c <HAL_UART_Receive+0x42>
 8003368:	463e      	mov	r6, r7
      pdata8bits  = NULL;
 800336a:	461f      	mov	r7, r3
    while (huart->RxXferCount > 0U)
 800336c:	8de5      	ldrh	r5, [r4, #46]	; 0x2e
 800336e:	b2a8      	uxth	r0, r5
 8003370:	b918      	cbnz	r0, 800337a <HAL_UART_Receive+0x50>
    huart->RxState = HAL_UART_STATE_READY;
 8003372:	2320      	movs	r3, #32
 8003374:	f884 3042 	strb.w	r3, [r4, #66]	; 0x42
    return HAL_OK;
 8003378:	e00a      	b.n	8003390 <HAL_UART_Receive+0x66>
      if (UART_WaitOnFlagUntilTimeout(huart, UART_FLAG_RXNE, RESET, tickstart, Timeout) != HAL_OK)
 800337a:	464b      	mov	r3, r9
 800337c:	4642      	mov	r2, r8
 800337e:	2120      	movs	r1, #32
 8003380:	4620      	mov	r0, r4
 8003382:	f7ff ff23 	bl	80031cc <UART_WaitOnFlagUntilTimeout.constprop.0>
 8003386:	b128      	cbz	r0, 8003394 <HAL_UART_Receive+0x6a>
        huart->RxState = HAL_UART_STATE_READY;
 8003388:	2320      	movs	r3, #32
 800338a:	f884 3042 	strb.w	r3, [r4, #66]	; 0x42
        return HAL_TIMEOUT;
 800338e:	2003      	movs	r0, #3
}
 8003390:	e8bd 83f8 	ldmia.w	sp!, {r3, r4, r5, r6, r7, r8, r9, pc}
        *pdata16bits = (uint16_t)(huart->Instance->DR & 0x01FF);
 8003394:	6823      	ldr	r3, [r4, #0]
      if (pdata8bits == NULL)
 8003396:	b94f      	cbnz	r7, 80033ac <HAL_UART_Receive+0x82>
        *pdata16bits = (uint16_t)(huart->Instance->DR & 0x01FF);
 8003398:	685b      	ldr	r3, [r3, #4]
 800339a:	f3c3 0308 	ubfx	r3, r3, #0, #9
 800339e:	f826 3b02 	strh.w	r3, [r6], #2
      huart->RxXferCount--;
 80033a2:	8de3      	ldrh	r3, [r4, #46]	; 0x2e
 80033a4:	3b01      	subs	r3, #1
 80033a6:	b29b      	uxth	r3, r3
 80033a8:	85e3      	strh	r3, [r4, #46]	; 0x2e
 80033aa:	e7df      	b.n	800336c <HAL_UART_Receive+0x42>
        if ((huart->Init.WordLength == UART_WORDLENGTH_9B) || ((huart->Init.WordLength == UART_WORDLENGTH_8B) && (huart->Init.Parity == UART_PARITY_NONE)))
 80033ac:	68a2      	ldr	r2, [r4, #8]
 80033ae:	f5b2 5f80 	cmp.w	r2, #4096	; 0x1000
 80033b2:	d002      	beq.n	80033ba <HAL_UART_Receive+0x90>
 80033b4:	b932      	cbnz	r2, 80033c4 <HAL_UART_Receive+0x9a>
 80033b6:	6922      	ldr	r2, [r4, #16]
 80033b8:	b922      	cbnz	r2, 80033c4 <HAL_UART_Receive+0x9a>
          *pdata8bits = (uint8_t)(huart->Instance->DR & (uint8_t)0x00FF);
 80033ba:	6859      	ldr	r1, [r3, #4]
 80033bc:	b2c9      	uxtb	r1, r1
 80033be:	f807 1b01 	strb.w	r1, [r7], #1
        pdata8bits++;
 80033c2:	e7ee      	b.n	80033a2 <HAL_UART_Receive+0x78>
          *pdata8bits = (uint8_t)(huart->Instance->DR & (uint8_t)0x007F);
 80033c4:	6859      	ldr	r1, [r3, #4]
 80033c6:	f001 017f 	and.w	r1, r1, #127	; 0x7f
 80033ca:	e7f8      	b.n	80033be <HAL_UART_Receive+0x94>
    return HAL_BUSY;
 80033cc:	2002      	movs	r0, #2
 80033ce:	e7df      	b.n	8003390 <HAL_UART_Receive+0x66>
      return  HAL_ERROR;
 80033d0:	2001      	movs	r0, #1
 80033d2:	e7dd      	b.n	8003390 <HAL_UART_Receive+0x66>

080033d4 <_put_c_driver>:
#if !defined(USE_PRINTF_FROM_TOOL) || USE_PRINTF_FROM_TOOL != 1

#include "lc_print.h"

static void _put_c_driver(void *user, const char c)
{
 80033d4:	b507      	push	{r0, r1, r2, lr}
#if defined(HAS_DEDICATED_PRINT_PORT) && HAS_DEDICATED_PRINT_PORT == 1
  port_io_dedicated_putc(c);
#else
  if (_ioWriteAllowed)
 80033d6:	4b08      	ldr	r3, [pc, #32]	; (80033f8 <_put_c_driver+0x24>)
{
 80033d8:	f88d 1007 	strb.w	r1, [sp, #7]
  if (_ioWriteAllowed)
 80033dc:	781b      	ldrb	r3, [r3, #0]
 80033de:	b13b      	cbz	r3, 80033f0 <_put_c_driver+0x1c>

__STATIC_INLINE bool port_io_write(uint8_t *buff, int count)
{
  HAL_StatusTypeDef status;

  status = HAL_UART_Transmit(&UartHandle, buff, count, HAL_MAX_DELAY);
 80033e0:	4806      	ldr	r0, [pc, #24]	; (80033fc <_put_c_driver+0x28>)
 80033e2:	f04f 33ff 	mov.w	r3, #4294967295
 80033e6:	2201      	movs	r2, #1
 80033e8:	f10d 0107 	add.w	r1, sp, #7
 80033ec:	f7ff ff4f 	bl	800328e <HAL_UART_Transmit>
  }
#ifdef SWO_OUTPUT
  ITM_SendChar(c);
#endif 
#endif
}
 80033f0:	b003      	add	sp, #12
 80033f2:	f85d fb04 	ldr.w	pc, [sp], #4
 80033f6:	bf00      	nop
 80033f8:	2000000c 	.word	0x2000000c
 80033fc:	200015fc 	.word	0x200015fc

08003400 <_write>:
{
 8003400:	b510      	push	{r4, lr}
  if ((count < 0) && (fd != STDOUT_FILENO) && (fd != STDERR_FILENO)) {
 8003402:	1e14      	subs	r4, r2, #0
 8003404:	da0a      	bge.n	800341c <_write+0x1c>
 8003406:	3801      	subs	r0, #1
 8003408:	2801      	cmp	r0, #1
 800340a:	d907      	bls.n	800341c <_write+0x1c>
    errno = EBADF;
 800340c:	f004 fddc 	bl	8007fc8 <__errno>
 8003410:	2309      	movs	r3, #9
 8003412:	6003      	str	r3, [r0, #0]
    return -1;
 8003414:	f04f 34ff 	mov.w	r4, #4294967295
}
 8003418:	4620      	mov	r0, r4
 800341a:	bd10      	pop	{r4, pc}
  if (_ioWriteAllowed)
 800341c:	4b06      	ldr	r3, [pc, #24]	; (8003438 <_write+0x38>)
 800341e:	781b      	ldrb	r3, [r3, #0]
 8003420:	2b00      	cmp	r3, #0
 8003422:	d0f9      	beq.n	8003418 <_write+0x18>
 8003424:	b2a2      	uxth	r2, r4
 8003426:	4805      	ldr	r0, [pc, #20]	; (800343c <_write+0x3c>)
 8003428:	f04f 33ff 	mov.w	r3, #4294967295
 800342c:	f7ff ff2f 	bl	800328e <HAL_UART_Transmit>
  return (status ? count : 0);
 8003430:	2800      	cmp	r0, #0
 8003432:	bf18      	it	ne
 8003434:	2400      	movne	r4, #0
 8003436:	e7ef      	b.n	8003418 <_write+0x18>
 8003438:	2000000c 	.word	0x2000000c
 800343c:	200015fc 	.word	0x200015fc

08003440 <lc_print>:

void lc_print(const char* fmt, ... )
{
 8003440:	b40f      	push	{r0, r1, r2, r3}
 8003442:	b507      	push	{r0, r1, r2, lr}
 8003444:	ab04      	add	r3, sp, #16
  va_list ap;
  va_start(ap, fmt);
  vlc_print(&_put_c_driver, NULL, fmt, ap);
 8003446:	2100      	movs	r1, #0
{
 8003448:	f853 2b04 	ldr.w	r2, [r3], #4
  vlc_print(&_put_c_driver, NULL, fmt, ap);
 800344c:	4804      	ldr	r0, [pc, #16]	; (8003460 <lc_print+0x20>)
  va_start(ap, fmt);
 800344e:	9301      	str	r3, [sp, #4]
  vlc_print(&_put_c_driver, NULL, fmt, ap);
 8003450:	f000 fa10 	bl	8003874 <vlc_print>
  va_end(ap);
}
 8003454:	b003      	add	sp, #12
 8003456:	f85d eb04 	ldr.w	lr, [sp], #4
 800345a:	b004      	add	sp, #16
 800345c:	4770      	bx	lr
 800345e:	bf00      	nop
 8003460:	080033d5 	.word	0x080033d5

08003464 <__wrap_malloc>:

void* __real_malloc(size_t bytes);
void __real_free(void *ptr);

void* __wrap_malloc(size_t bytes)
{
 8003464:	b538      	push	{r3, r4, r5, lr}
  uint8_t *ptr;

  io_malloc.cfg |= 1 << 1;
 8003466:	4d11      	ldr	r5, [pc, #68]	; (80034ac <__wrap_malloc+0x48>)

  /* ensure alignment for magic number */
  bytes = (bytes + 3) & ~3;
 8003468:	3003      	adds	r0, #3
  io_malloc.cfg |= 1 << 1;
 800346a:	682b      	ldr	r3, [r5, #0]
  bytes = (bytes + 3) & ~3;
 800346c:	f020 0403 	bic.w	r4, r0, #3
  io_malloc.cfg |= 1 << 1;
 8003470:	f043 0302 	orr.w	r3, r3, #2

  /* add 2x32-bit for size and magic  number */
  ptr = (uint8_t*)__real_malloc(bytes + 8);
 8003474:	f104 0008 	add.w	r0, r4, #8
  io_malloc.cfg |= 1 << 1;
 8003478:	602b      	str	r3, [r5, #0]
  ptr = (uint8_t*)__real_malloc(bytes + 8);
 800347a:	f003 fed3 	bl	8007224 <malloc>

  /* remember size */
  if (ptr) {
 800347e:	b1a0      	cbz	r0, 80034aa <__wrap_malloc+0x46>
    *((uint32_t*)ptr) = bytes;
    *((uint32_t*)(ptr + 4 + bytes)) = MAGIC_MALLOC_NUMBER;
 8003480:	1903      	adds	r3, r0, r4
 8003482:	4a0b      	ldr	r2, [pc, #44]	; (80034b0 <__wrap_malloc+0x4c>)
    *((uint32_t*)ptr) = bytes;
 8003484:	6004      	str	r4, [r0, #0]
    *((uint32_t*)(ptr + 4 + bytes)) = MAGIC_MALLOC_NUMBER;
 8003486:	605a      	str	r2, [r3, #4]
  }

  if ((ptr) && (io_malloc.cfg & 1UL)) {
 8003488:	682b      	ldr	r3, [r5, #0]
 800348a:	07db      	lsls	r3, r3, #31
 800348c:	d50c      	bpl.n	80034a8 <__wrap_malloc+0x44>
    io_malloc.alloc_req++;
 800348e:	68eb      	ldr	r3, [r5, #12]
 8003490:	3301      	adds	r3, #1
 8003492:	60eb      	str	r3, [r5, #12]
    io_malloc.alloc += bytes;
 8003494:	686b      	ldr	r3, [r5, #4]
 8003496:	4423      	add	r3, r4
 8003498:	606b      	str	r3, [r5, #4]

    io_malloc.used += bytes;
 800349a:	69ab      	ldr	r3, [r5, #24]
 800349c:	441c      	add	r4, r3

    if (io_malloc.used > io_malloc.max) {
 800349e:	696b      	ldr	r3, [r5, #20]
    io_malloc.used += bytes;
 80034a0:	61ac      	str	r4, [r5, #24]
    if (io_malloc.used > io_malloc.max) {
 80034a2:	429c      	cmp	r4, r3
      io_malloc.max = io_malloc.used;
 80034a4:	bf88      	it	hi
 80034a6:	616c      	strhi	r4, [r5, #20]

    if (io_malloc.a_idx >= _IO_MALLOC_TRACK_MODE)
      io_malloc.a_idx = 0;
#endif
  }
  return ptr?(ptr + 4):NULL;
 80034a8:	3004      	adds	r0, #4
}
 80034aa:	bd38      	pop	{r3, r4, r5, pc}
 80034ac:	200016a8 	.word	0x200016a8
 80034b0:	efdcba98 	.word	0xefdcba98

080034b4 <dwtCyclesToTime>:
 */

struct cyclesCount cyclesCount;

int dwtCyclesToTime(uint64_t clks, struct dwtTime *t)
{
 80034b4:	e92d 4ff7 	stmdb	sp!, {r0, r1, r2, r4, r5, r6, r7, r8, r9, sl, fp, lr}
 80034b8:	4604      	mov	r4, r0
 80034ba:	468a      	mov	sl, r1
  if (!t)
 80034bc:	4617      	mov	r7, r2
 80034be:	b382      	cbz	r2, 8003522 <dwtCyclesToTime+0x6e>
    return -1;
  uint32_t fcpu = port_hal_get_cpu_freq();
 80034c0:	f7ff fbbe 	bl	8002c40 <HAL_RCC_GetHCLKFreq>
  uint64_t s  = clks / fcpu;
 80034c4:	2300      	movs	r3, #0
  uint32_t fcpu = port_hal_get_cpu_freq();
 80034c6:	4602      	mov	r2, r0
  uint64_t s  = clks / fcpu;
 80034c8:	9001      	str	r0, [sp, #4]
 80034ca:	4651      	mov	r1, sl
 80034cc:	4620      	mov	r0, r4
 80034ce:	f7fd fb8b 	bl	8000be8 <__aeabi_uldivmod>
  uint64_t ms = (clks * 1000) / fcpu;
 80034d2:	f44f 767a 	mov.w	r6, #1000	; 0x3e8
  uint64_t s  = clks / fcpu;
 80034d6:	4683      	mov	fp, r0
  uint64_t ms = (clks * 1000) / fcpu;
 80034d8:	fba4 0106 	umull	r0, r1, r4, r6
 80034dc:	9a01      	ldr	r2, [sp, #4]
  uint64_t us = (clks * 1000 * 1000) / fcpu;
 80034de:	f8df 9048 	ldr.w	r9, [pc, #72]	; 8003528 <dwtCyclesToTime+0x74>
  uint64_t ms = (clks * 1000) / fcpu;
 80034e2:	2300      	movs	r3, #0
 80034e4:	fb06 110a 	mla	r1, r6, sl, r1
 80034e8:	f7fd fb7e 	bl	8000be8 <__aeabi_uldivmod>
  ms -= (s * 1000);
 80034ec:	fbab 3106 	umull	r3, r1, fp, r6
 80034f0:	1ac5      	subs	r5, r0, r3
  uint64_t us = (clks * 1000 * 1000) / fcpu;
 80034f2:	fba4 0109 	umull	r0, r1, r4, r9
 80034f6:	9a01      	ldr	r2, [sp, #4]
 80034f8:	fb09 110a 	mla	r1, r9, sl, r1
 80034fc:	2300      	movs	r3, #0
 80034fe:	f7fd fb73 	bl	8000be8 <__aeabi_uldivmod>
  us -= (ms * 1000 + s * 1000000);
  t->fcpu = fcpu;
 8003502:	9a01      	ldr	r2, [sp, #4]
  t->s = s;
  t->ms = ms;
 8003504:	60bd      	str	r5, [r7, #8]
  us -= (ms * 1000 + s * 1000000);
 8003506:	fbab 8909 	umull	r8, r9, fp, r9
 800350a:	eba0 0008 	sub.w	r0, r0, r8
 800350e:	fba5 5606 	umull	r5, r6, r5, r6
  t->s = s;
 8003512:	e9c7 2b00 	strd	r2, fp, [r7]
  us -= (ms * 1000 + s * 1000000);
 8003516:	1b40      	subs	r0, r0, r5
  t->us = us;
 8003518:	60f8      	str	r0, [r7, #12]
  return 0;
 800351a:	2000      	movs	r0, #0
}
 800351c:	b003      	add	sp, #12
 800351e:	e8bd 8ff0 	ldmia.w	sp!, {r4, r5, r6, r7, r8, r9, sl, fp, pc}
    return -1;
 8003522:	f04f 30ff 	mov.w	r0, #4294967295
 8003526:	e7f9      	b.n	800351c <dwtCyclesToTime+0x68>
 8003528:	000f4240 	.word	0x000f4240

0800352c <getFlashCacheConf>:

#if defined(STM32L4) || defined(STM32F4)

  mconf |= MCONF_L4_F4;

  __I uint32_t acr = FLASH->ACR ;
 800352c:	4b0d      	ldr	r3, [pc, #52]	; (8003564 <getFlashCacheConf+0x38>)
{
 800352e:	b082      	sub	sp, #8
  __I uint32_t acr = FLASH->ACR ;
 8003530:	681b      	ldr	r3, [r3, #0]
 8003532:	9301      	str	r3, [sp, #4]

  mconf |= ((acr & FLASH_ACR_LATENCY_Msk) >> FLASH_ACR_LATENCY_Pos);
 8003534:	9801      	ldr	r0, [sp, #4]

  if ((acr & FLASH_ACR_PRFTEN_Msk) >> FLASH_ACR_PRFTEN_Pos)
 8003536:	9b01      	ldr	r3, [sp, #4]
 8003538:	05d9      	lsls	r1, r3, #23
    mconf |= MCONF_ART_DCACHE;
  if ((acr & FLASH_ACR_ICEN_Msk) >> FLASH_ACR_ICEN_Pos)
 800353a:	9b01      	ldr	r3, [sp, #4]
  mconf |= ((acr & FLASH_ACR_LATENCY_Msk) >> FLASH_ACR_LATENCY_Pos);
 800353c:	f000 000f 	and.w	r0, r0, #15
    mconf |= MCONF_ART_DCACHE;
 8003540:	bf4c      	ite	mi
 8003542:	f040 2001 	orrmi.w	r0, r0, #16777472	; 0x1000100
  mconf |= ((acr & FLASH_ACR_LATENCY_Msk) >> FLASH_ACR_LATENCY_Pos);
 8003546:	f040 7080 	orrpl.w	r0, r0, #16777216	; 0x1000000
  if ((acr & FLASH_ACR_ICEN_Msk) >> FLASH_ACR_ICEN_Pos)
 800354a:	059a      	lsls	r2, r3, #22
    mconf |= MCONF_ART_ICACHE;
  if ((acr & FLASH_ACR_DCEN_Msk) >> FLASH_ACR_DCEN_Pos)
 800354c:	9b01      	ldr	r3, [sp, #4]
    mconf |= MCONF_ART_ICACHE;
 800354e:	bf48      	it	mi
 8003550:	f440 7000 	orrmi.w	r0, r0, #512	; 0x200
  if ((acr & FLASH_ACR_DCEN_Msk) >> FLASH_ACR_DCEN_Pos)
 8003554:	055b      	lsls	r3, r3, #21
    mconf |= MCONF_ART_PREFETCH;
 8003556:	bf48      	it	mi
 8003558:	f440 6080 	orrmi.w	r0, r0, #1024	; 0x400
    mconf |= MCONF_CORE_DCACHE;

#endif

  return mconf;
}
 800355c:	f440 3080 	orr.w	r0, r0, #65536	; 0x10000
 8003560:	b002      	add	sp, #8
 8003562:	4770      	bx	lr
 8003564:	40023c00 	.word	0x40023c00

08003568 <getSysConf.part.0>:
void getSysConf(struct mcu_conf *conf)
 8003568:	b510      	push	{r4, lr}
 800356a:	4604      	mov	r4, r0
  conf->sclk = port_hal_get_cpu_freq();
 800356c:	f7ff fb68 	bl	8002c40 <HAL_RCC_GetHCLKFreq>
 8003570:	6020      	str	r0, [r4, #0]
  conf->hclk = port_hal_get_sys_freq();
 8003572:	f7ff fb65 	bl	8002c40 <HAL_RCC_GetHCLKFreq>
 8003576:	6060      	str	r0, [r4, #4]
  conf->conf = getFlashCacheConf();
 8003578:	f7ff ffd8 	bl	800352c <getFlashCacheConf>
 800357c:	60a0      	str	r0, [r4, #8]
  conf->devid = port_hal_get_dev_id();
 800357e:	f7fe fac9 	bl	8001b14 <HAL_GetDEVID>
 8003582:	60e0      	str	r0, [r4, #12]
  conf->revid = port_hal_get_rev_id();
 8003584:	f7fe fac0 	bl	8001b08 <HAL_GetREVID>
 8003588:	6120      	str	r0, [r4, #16]
}
 800358a:	bd10      	pop	{r4, pc}

0800358c <systemSettingLog>:

void systemSettingLog(void)
{
 800358c:	b530      	push	{r4, r5, lr}
  LC_PRINT("Compiled with GHS-ARM Compiler %d\r\n", __GHS_VERSION_NUMBER);
#elif defined(_IS_HTC_COMPILER) && _IS_HTC_COMPILER
  LC_PRINT("Compiled with HIGHTEC Clang %d.%d.%d\r\n", __clang_major__, __clang_minor__,
      __clang_patchlevel__);
#elif defined(_IS_GCC_COMPILER) && _IS_GCC_COMPILER
  LC_PRINT("Compiled with GCC %d.%d.%d\r\n", __GNUC__, __GNUC_MINOR__,
 800358e:	2203      	movs	r2, #3
{
 8003590:	b089      	sub	sp, #36	; 0x24
  LC_PRINT("Compiled with GCC %d.%d.%d\r\n", __GNUC__, __GNUC_MINOR__,
 8003592:	2301      	movs	r3, #1
 8003594:	210b      	movs	r1, #11
 8003596:	4826      	ldr	r0, [pc, #152]	; (8003630 <systemSettingLog+0xa4>)
#else
  LC_PRINT(" Core Arch.   : M%d - %s\r\n", __CORTEX_M, "no FPU");
#endif

  LC_PRINT(" HAL version  : 0x%08x\r\n", (int)port_hal_get_hal_version());
  LC_PRINT(" SYSCLK clock : %u MHz\r\n", (int)sys_conf.sclk/1000000);
 8003598:	4c26      	ldr	r4, [pc, #152]	; (8003634 <systemSettingLog+0xa8>)
  LC_PRINT("Compiled with GCC %d.%d.%d\r\n", __GNUC__, __GNUC_MINOR__,
 800359a:	f7ff ff51 	bl	8003440 <lc_print>
  if (!conf)
 800359e:	a803      	add	r0, sp, #12
 80035a0:	f7ff ffe2 	bl	8003568 <getSysConf.part.0>
  LC_PRINT(DEVICE_FAMILY " device configuration...\r\n");
 80035a4:	4824      	ldr	r0, [pc, #144]	; (8003638 <systemSettingLog+0xac>)
 80035a6:	f7ff ff4b 	bl	8003440 <lc_print>
  LC_PRINT(" Device       : DevID:0x%04x (%s) RevID:0x%04x\r\n",
 80035aa:	9906      	ldr	r1, [sp, #24]
 80035ac:	4823      	ldr	r0, [pc, #140]	; (800363c <systemSettingLog+0xb0>)
 80035ae:	f2a1 4313 	subw	r3, r1, #1043	; 0x413
 80035b2:	b29b      	uxth	r3, r3
 80035b4:	2b50      	cmp	r3, #80	; 0x50
 80035b6:	bf96      	itet	ls
 80035b8:	4a21      	ldrls	r2, [pc, #132]	; (8003640 <systemSettingLog+0xb4>)
 80035ba:	4a22      	ldrhi	r2, [pc, #136]	; (8003644 <systemSettingLog+0xb8>)
 80035bc:	f852 2023 	ldrls.w	r2, [r2, r3, lsl #2]
 80035c0:	9b07      	ldr	r3, [sp, #28]
 80035c2:	f7ff ff3d 	bl	8003440 <lc_print>
  LC_PRINT(" Core Arch.   : M%d - %s %s\r\n", __CORTEX_M, "FPU ", ((__FPU_USED) ? "used" : "not used!"));
 80035c6:	4b20      	ldr	r3, [pc, #128]	; (8003648 <systemSettingLog+0xbc>)
 80035c8:	2104      	movs	r1, #4
 80035ca:	1d5a      	adds	r2, r3, #5
 80035cc:	f103 000a 	add.w	r0, r3, #10
 80035d0:	f7ff ff36 	bl	8003440 <lc_print>
  LC_PRINT(" HAL version  : 0x%08x\r\n", (int)port_hal_get_hal_version());
 80035d4:	f7fe fa94 	bl	8001b00 <HAL_GetHalVersion>
 80035d8:	4601      	mov	r1, r0
 80035da:	481c      	ldr	r0, [pc, #112]	; (800364c <systemSettingLog+0xc0>)
 80035dc:	f7ff ff30 	bl	8003440 <lc_print>
  LC_PRINT(" SYSCLK clock : %u MHz\r\n", (int)sys_conf.sclk/1000000);
 80035e0:	9903      	ldr	r1, [sp, #12]
 80035e2:	481b      	ldr	r0, [pc, #108]	; (8003650 <systemSettingLog+0xc4>)
 80035e4:	fb91 f1f4 	sdiv	r1, r1, r4
 80035e8:	f7ff ff2a 	bl	8003440 <lc_print>
  LC_PRINT(" HCLK clock   : %u MHz\r\n", (int)sys_conf.hclk/1000000);
 80035ec:	9904      	ldr	r1, [sp, #16]
 80035ee:	4819      	ldr	r0, [pc, #100]	; (8003654 <systemSettingLog+0xc8>)
 80035f0:	fb91 f1f4 	sdiv	r1, r1, r4
 80035f4:	f7ff ff24 	bl	8003440 <lc_print>
      bitToStr(ccr & SCB_CCR_DC_Msk));
#endif
#endif

#if defined(STM32F4) || defined(STM32L4)
  uint32_t acr = FLASH->ACR;
 80035f8:	4b17      	ldr	r3, [pc, #92]	; (8003658 <systemSettingLog+0xcc>)
    return "False";
 80035fa:	4818      	ldr	r0, [pc, #96]	; (800365c <systemSettingLog+0xd0>)
  uint32_t acr = FLASH->ACR;
 80035fc:	6819      	ldr	r1, [r3, #0]
    return "False";
 80035fe:	1d44      	adds	r4, r0, #5
 8003600:	f411 7f80 	tst.w	r1, #256	; 0x100
 8003604:	bf14      	ite	ne
 8003606:	4602      	movne	r2, r0
 8003608:	4622      	moveq	r2, r4
 800360a:	f411 7f00 	tst.w	r1, #512	; 0x200
 800360e:	bf14      	ite	ne
 8003610:	4603      	movne	r3, r0
 8003612:	4623      	moveq	r3, r4
 8003614:	f411 6f80 	tst.w	r1, #1024	; 0x400
 8003618:	bf18      	it	ne
 800361a:	4604      	movne	r4, r0
  LC_PRINT(" FLASH conf.  : ACR=0x%08x - Prefetch=%s $I/$D=(%s,%s) latency=%d\r\n",
 800361c:	f001 050f 	and.w	r5, r1, #15
 8003620:	e9cd 4500 	strd	r4, r5, [sp]
 8003624:	30ec      	adds	r0, #236	; 0xec
 8003626:	f7ff ff0b 	bl	8003440 <lc_print>
  LC_PRINT(" CACHE conf.  : $I/$D=(%s,%s)\r\n",
      bitToStr(ccr & SCB_CCR_IC_Msk),
      bitToStr(ccr & SCB_CCR_DC_Msk));
#endif

}
 800362a:	b009      	add	sp, #36	; 0x24
 800362c:	bd30      	pop	{r4, r5, pc}
 800362e:	bf00      	nop
 8003630:	0800a5b9 	.word	0x0800a5b9
 8003634:	000f4240 	.word	0x000f4240
 8003638:	0800a5d6 	.word	0x0800a5d6
 800363c:	0800a5f6 	.word	0x0800a5f6
 8003640:	0800aae8 	.word	0x0800aae8
 8003644:	0800a5a6 	.word	0x0800a5a6
 8003648:	0800a627 	.word	0x0800a627
 800364c:	0800a64f 	.word	0x0800a64f
 8003650:	0800a668 	.word	0x0800a668
 8003654:	0800a681 	.word	0x0800a681
 8003658:	40023c00 	.word	0x40023c00
 800365c:	0800a5ae 	.word	0x0800a5ae

08003660 <aiValidationInit>:
 * Exported/Public functions
 * -----------------------------------------------------------------------------
 */

int aiValidationInit(void)
{
 8003660:	b57f      	push	{r0, r1, r2, r3, r4, r5, r6, lr}
  LC_PRINT("\r\n#\r\n");
 8003662:	4c20      	ldr	r4, [pc, #128]	; (80036e4 <aiValidationInit+0x84>)
#else /* USE_SYSTICK_ONLY */
  struct dwtTime t;
  uint32_t st;

  port_dwt_init();
  port_dwt_reset();
 8003664:	4e20      	ldr	r6, [pc, #128]	; (80036e8 <aiValidationInit+0x88>)
 8003666:	f104 008b 	add.w	r0, r4, #139	; 0x8b
 800366a:	f7ff fee9 	bl	8003440 <lc_print>
  LC_PRINT("# %s %d.%d\r\n", _APP_NAME_ , _APP_VERSION_MAJOR_, _APP_VERSION_MINOR_);
 800366e:	2300      	movs	r3, #0
 8003670:	f104 0191 	add.w	r1, r4, #145	; 0x91
 8003674:	2207      	movs	r2, #7
 8003676:	f104 009f 	add.w	r0, r4, #159	; 0x9f
 800367a:	f7ff fee1 	bl	8003440 <lc_print>
 800367e:	2500      	movs	r5, #0
  LC_PRINT("#\r\n");
 8003680:	f104 00ac 	add.w	r0, r4, #172	; 0xac
 8003684:	f7ff fedc 	bl	8003440 <lc_print>

  systemSettingLog();
 8003688:	f7ff ff80 	bl	800358c <systemSettingLog>

  crcIpInit();
 800368c:	f000 f830 	bl	80036f0 <port_hal_crc_ip_init_imp>
  port_dwt_init();
 8003690:	f000 f840 	bl	8003714 <port_dwt_init_imp>
  port_dwt_reset();
 8003694:	6075      	str	r5, [r6, #4]
  port_hal_delay(100);
 8003696:	2064      	movs	r0, #100	; 0x64
 8003698:	f7fe fa1e 	bl	8001ad8 <HAL_Delay>
  st = port_dwt_get_cycles();
 800369c:	6870      	ldr	r0, [r6, #4]
  dwtCyclesToTime(st/100, &t);
 800369e:	466a      	mov	r2, sp
 80036a0:	2664      	movs	r6, #100	; 0x64
 80036a2:	4629      	mov	r1, r5
 80036a4:	fbb0 f0f6 	udiv	r0, r0, r6
 80036a8:	f7ff ff04 	bl	80034b4 <dwtCyclesToTime>

#if USE_CORE_CLOCK_ONLY == 1
  LC_PRINT(" Timestamp    : DWT only (delay(1)=%d.%03d ms)\r\n",
           t.s * 100 + t.ms, t.us);
#else /* USE_CORE_CLOCK_ONLY == 1 */
  LC_PRINT(" Timestamp    : SysTick + DWT (delay(1)=%d.%03d ms)\r\n",
 80036ac:	e9dd 1301 	ldrd	r1, r3, [sp, #4]
 80036b0:	9a03      	ldr	r2, [sp, #12]
 80036b2:	fb06 3101 	mla	r1, r6, r1, r3
 80036b6:	f104 00b0 	add.w	r0, r4, #176	; 0xb0
 80036ba:	f7ff fec1 	bl	8003440 <lc_print>
           t.s * 100 + t.ms, t.us);
  dwtCyclesToTime(UINT32_MAX, &t);
 80036be:	466a      	mov	r2, sp
 80036c0:	2100      	movs	r1, #0
 80036c2:	f04f 30ff 	mov.w	r0, #4294967295
 80036c6:	f7ff fef5 	bl	80034b4 <dwtCyclesToTime>
  cyclesCount.dwt_max = t.s * 1000 + t.ms;
 80036ca:	9a01      	ldr	r2, [sp, #4]
 80036cc:	9b02      	ldr	r3, [sp, #8]
 80036ce:	f44f 717a 	mov.w	r1, #1000	; 0x3e8
 80036d2:	fb01 3302 	mla	r3, r1, r2, r3
 80036d6:	4a05      	ldr	r2, [pc, #20]	; (80036ec <aiValidationInit+0x8c>)
 80036d8:	6013      	str	r3, [r2, #0]
#endif /* !USE_CORE_CLOCK_ONLY != 1 */
  port_dwt_init();
 80036da:	f000 f81b 	bl	8003714 <port_dwt_init_imp>
  cyclesCounterInit();

  return 0;
}
 80036de:	4628      	mov	r0, r5
 80036e0:	b004      	add	sp, #16
 80036e2:	bd70      	pop	{r4, r5, r6, pc}
 80036e4:	0800a74d 	.word	0x0800a74d
 80036e8:	e0001000 	.word	0xe0001000
 80036ec:	2000169c 	.word	0x2000169c

080036f0 <port_hal_crc_ip_init_imp>:

#if !defined(NO_PORT_CRC_IP_INIT_IMP)
#if defined(HAS_CRC_IP) && HAS_CRC_IP == 1

void port_hal_crc_ip_init_imp(void)
{
 80036f0:	b082      	sub	sp, #8
  __HAL_RCC_CRC_CLK_ENABLE();
#elif defined(STM32MP1)
  __HAL_RCC_CRC2_CLK_ENABLE();
#else
  /* By default the CRC IP clock is enabled */
  __HAL_RCC_CRC_CLK_ENABLE();
 80036f2:	2300      	movs	r3, #0
 80036f4:	9301      	str	r3, [sp, #4]
 80036f6:	4b06      	ldr	r3, [pc, #24]	; (8003710 <port_hal_crc_ip_init_imp+0x20>)
 80036f8:	6b1a      	ldr	r2, [r3, #48]	; 0x30
 80036fa:	f442 5280 	orr.w	r2, r2, #4096	; 0x1000
 80036fe:	631a      	str	r2, [r3, #48]	; 0x30
 8003700:	6b1b      	ldr	r3, [r3, #48]	; 0x30
 8003702:	f403 5380 	and.w	r3, r3, #4096	; 0x1000
 8003706:	9301      	str	r3, [sp, #4]
 8003708:	9b01      	ldr	r3, [sp, #4]
#endif
}
 800370a:	b002      	add	sp, #8
 800370c:	4770      	bx	lr
 800370e:	bf00      	nop
 8003710:	40023800 	.word	0x40023800

08003714 <port_dwt_init_imp>:

#if defined(HAS_DWT_CTRL) && HAS_DWT_CTRL == 1

void port_dwt_init_imp()
{
  CoreDebug->DEMCR |= CoreDebug_DEMCR_TRCENA_Msk;
 8003714:	4a07      	ldr	r2, [pc, #28]	; (8003734 <port_dwt_init_imp+0x20>)
 8003716:	f8d2 30fc 	ldr.w	r3, [r2, #252]	; 0xfc
 800371a:	f043 7380 	orr.w	r3, r3, #16777216	; 0x1000000
 800371e:	f8c2 30fc 	str.w	r3, [r2, #252]	; 0xfc
#ifdef STM32F7
  DWT->LAR = 0xC5ACCE55;
#endif
  DWT->CYCCNT = 0;
 8003722:	4b05      	ldr	r3, [pc, #20]	; (8003738 <port_dwt_init_imp+0x24>)
 8003724:	2200      	movs	r2, #0
 8003726:	605a      	str	r2, [r3, #4]
  DWT->CTRL |= DWT_CTRL_CYCCNTENA_Msk;
 8003728:	681a      	ldr	r2, [r3, #0]
 800372a:	f042 0201 	orr.w	r2, r2, #1
 800372e:	601a      	str	r2, [r3, #0]
}
 8003730:	4770      	bx	lr
 8003732:	bf00      	nop
 8003734:	e000ed00 	.word	0xe000ed00
 8003738:	e0001000 	.word	0xe0001000

0800373c <MX_X_CUBE_AI_Init>:
ai_handle data_activations0[] = {pool0};

/* Entry points --------------------------------------------------------------*/

void MX_X_CUBE_AI_Init(void)
{
 800373c:	b508      	push	{r3, lr}
    MX_UARTx_Init();
 800373e:	f7fd ffad 	bl	800169c <MX_USART2_UART_Init>
    aiValidationInit();
    /* USER CODE BEGIN 5 */
    /* USER CODE END 5 */
}
 8003742:	e8bd 4008 	ldmia.w	sp!, {r3, lr}
    aiValidationInit();
 8003746:	f7ff bf8b 	b.w	8003660 <aiValidationInit>

0800374a <_write_number>:

  return count;
}

static int _write_number(uint64_t number, struct specifier *specifier)
{
 800374a:	e92d 4ff0 	stmdb	sp!, {r4, r5, r6, r7, r8, r9, sl, fp, lr}
  char sign_neg = 0;
  char chr;

  buf[idx--] = 0;

  if (specifier->flags & FLAG_IS_SIGNED) {
 800374e:	6896      	ldr	r6, [r2, #8]
{
 8003750:	b091      	sub	sp, #68	; 0x44
  buf[idx--] = 0;
 8003752:	2500      	movs	r5, #0
  if (specifier->flags & FLAG_IS_SIGNED) {
 8003754:	f016 0304 	ands.w	r3, r6, #4
{
 8003758:	4614      	mov	r4, r2
  buf[idx--] = 0;
 800375a:	f88d 503f 	strb.w	r5, [sp, #63]	; 0x3f
  if (specifier->flags & FLAG_IS_SIGNED) {
 800375e:	d028      	beq.n	80037b2 <_write_number+0x68>
    if ((int64_t)number < 0) {
 8003760:	42a9      	cmp	r1, r5
 8003762:	da07      	bge.n	8003774 <_write_number+0x2a>
      number = -number;
      sign_neg = '-';
      specifier->width -= 1;
 8003764:	6813      	ldr	r3, [r2, #0]
      number = -number;
 8003766:	4240      	negs	r0, r0
      specifier->width -= 1;
 8003768:	f103 33ff 	add.w	r3, r3, #4294967295
      number = -number;
 800376c:	eb61 0141 	sbc.w	r1, r1, r1, lsl #1
      specifier->width -= 1;
 8003770:	6013      	str	r3, [r2, #0]
      sign_neg = '-';
 8003772:	252d      	movs	r5, #45	; 0x2d
 8003774:	f016 0f08 	tst.w	r6, #8
 8003778:	bf14      	ite	ne
 800377a:	f04f 0841 	movne.w	r8, #65	; 0x41
 800377e:	f04f 0861 	moveq.w	r8, #97	; 0x61
 8003782:	f10d 093f 	add.w	r9, sp, #63	; 0x3f
  do {
    uint64_t t;
    if (specifier->flags & FLAG_HEX) {
      chr = number & 0x0F;
      t = number >> 4;
      chr = (chr >= 10) ? (chr + (specifier->flags & FLAG_CAPS ? 'A' : 'a') - 10) : (chr + '0');
 8003786:	273e      	movs	r7, #62	; 0x3e
    if (specifier->flags & FLAG_HEX) {
 8003788:	f006 0a10 	and.w	sl, r6, #16
      chr = (chr >= 10) ? (chr + (specifier->flags & FLAG_CAPS ? 'A' : 'a') - 10) : (chr + '0');
 800378c:	f1a8 080a 	sub.w	r8, r8, #10
      chr = number & 0x0F;
 8003790:	fa5f fb80 	uxtb.w	fp, r0
    if (specifier->flags & FLAG_HEX) {
 8003794:	f1ba 0f00 	cmp.w	sl, #0
 8003798:	d033      	beq.n	8003802 <_write_number+0xb8>
      chr = number & 0x0F;
 800379a:	f00b 030f 	and.w	r3, fp, #15
      t = number >> 4;
 800379e:	0900      	lsrs	r0, r0, #4
      chr = (chr >= 10) ? (chr + (specifier->flags & FLAG_CAPS ? 'A' : 'a') - 10) : (chr + '0');
 80037a0:	2b09      	cmp	r3, #9
      t = number >> 4;
 80037a2:	ea40 7001 	orr.w	r0, r0, r1, lsl #28
 80037a6:	ea4f 1111 	mov.w	r1, r1, lsr #4
      chr = (chr >= 10) ? (chr + (specifier->flags & FLAG_CAPS ? 'A' : 'a') - 10) : (chr + '0');
 80037aa:	d906      	bls.n	80037ba <_write_number+0x70>
 80037ac:	4443      	add	r3, r8
    } else {
      t = number / 10;
      chr = (number - t * 10) + '0';
 80037ae:	b2db      	uxtb	r3, r3
 80037b0:	e004      	b.n	80037bc <_write_number+0x72>
  char sign_neg = 0;
 80037b2:	461d      	mov	r5, r3
 80037b4:	e7de      	b.n	8003774 <_write_number+0x2a>
    }
    number = t;
    buf[idx--] = chr;
 80037b6:	4617      	mov	r7, r2
 80037b8:	e7ea      	b.n	8003790 <_write_number+0x46>
      chr = (chr >= 10) ? (chr + (specifier->flags & FLAG_CAPS ? 'A' : 'a') - 10) : (chr + '0');
 80037ba:	3330      	adds	r3, #48	; 0x30
    buf[idx--] = chr;
 80037bc:	f809 3d01 	strb.w	r3, [r9, #-1]!
    count++;
  } while (number);
 80037c0:	ea50 0301 	orrs.w	r3, r0, r1
    buf[idx--] = chr;
 80037c4:	f107 32ff 	add.w	r2, r7, #4294967295
    count++;
 80037c8:	f1c7 0b3f 	rsb	fp, r7, #63	; 0x3f
  } while (number);
 80037cc:	d1f3      	bne.n	80037b6 <_write_number+0x6c>

  if ((sign_neg) && (!(specifier->flags & FLAG_ZERO_EXTEND))) {
 80037ce:	f006 0101 	and.w	r1, r6, #1
 80037d2:	b155      	cbz	r5, 80037ea <_write_number+0xa0>
 80037d4:	b949      	cbnz	r1, 80037ea <_write_number+0xa0>
    buf[idx--] = sign_neg;
 80037d6:	f102 0340 	add.w	r3, r2, #64	; 0x40
 80037da:	eb0d 0203 	add.w	r2, sp, r3
 80037de:	232d      	movs	r3, #45	; 0x2d
 80037e0:	f802 3c40 	strb.w	r3, [r2, #-64]
    count++;
 80037e4:	f1c7 0b40 	rsb	fp, r7, #64	; 0x40
    buf[idx--] = sign_neg;
 80037e8:	1eba      	subs	r2, r7, #2
 80037ea:	2900      	cmp	r1, #0
  }

  while ((count < specifier->width) && (!(specifier->flags & FLAG_NEG_PAD))) {
 80037ec:	6823      	ldr	r3, [r4, #0]
 80037ee:	bf14      	ite	ne
 80037f0:	2130      	movne	r1, #48	; 0x30
 80037f2:	2120      	moveq	r1, #32
 80037f4:	f006 0602 	and.w	r6, r6, #2
 80037f8:	455b      	cmp	r3, fp
 80037fa:	dd13      	ble.n	8003824 <_write_number+0xda>
 80037fc:	b166      	cbz	r6, 8003818 <_write_number+0xce>
    else
      buf[idx--] = ' ';
    count++;
  }

  if ((sign_neg) && (count < (specifier->width + 1))) {
 80037fe:	b9a5      	cbnz	r5, 800382a <_write_number+0xe0>
 8003800:	e01c      	b.n	800383c <_write_number+0xf2>
      t = number / 10;
 8003802:	220a      	movs	r2, #10
 8003804:	2300      	movs	r3, #0
 8003806:	f7fd f9ef 	bl	8000be8 <__aeabi_uldivmod>
      chr = (number - t * 10) + '0';
 800380a:	f10b 0330 	add.w	r3, fp, #48	; 0x30
 800380e:	eb00 0280 	add.w	r2, r0, r0, lsl #2
 8003812:	eba3 0342 	sub.w	r3, r3, r2, lsl #1
 8003816:	e7ca      	b.n	80037ae <_write_number+0x64>
    if (specifier->flags & FLAG_ZERO_EXTEND)
 8003818:	f80d 1002 	strb.w	r1, [sp, r2]
    count++;
 800381c:	f10b 0b01 	add.w	fp, fp, #1
 8003820:	3a01      	subs	r2, #1
 8003822:	e7e9      	b.n	80037f8 <_write_number+0xae>
  if ((sign_neg) && (count < (specifier->width + 1))) {
 8003824:	b155      	cbz	r5, 800383c <_write_number+0xf2>
 8003826:	455b      	cmp	r3, fp
 8003828:	d108      	bne.n	800383c <_write_number+0xf2>
    buf[idx--] = sign_neg;
 800382a:	f102 0340 	add.w	r3, r2, #64	; 0x40
 800382e:	446b      	add	r3, sp
 8003830:	212d      	movs	r1, #45	; 0x2d
 8003832:	f803 1c40 	strb.w	r1, [r3, #-64]
    count++;
 8003836:	f10b 0b01 	add.w	fp, fp, #1
    buf[idx--] = sign_neg;
 800383a:	3a01      	subs	r2, #1
  }

  idx++;


  for(int i = 0; i < count; i++) {
 800383c:	eb0d 0602 	add.w	r6, sp, r2
 8003840:	2500      	movs	r5, #0
    specifier->putc_fct(specifier->user, (buf + idx)[i]);
 8003842:	68e3      	ldr	r3, [r4, #12]
 8003844:	f816 1f01 	ldrb.w	r1, [r6, #1]!
 8003848:	6920      	ldr	r0, [r4, #16]
  for(int i = 0; i < count; i++) {
 800384a:	3501      	adds	r5, #1
    specifier->putc_fct(specifier->user, (buf + idx)[i]);
 800384c:	4798      	blx	r3
  for(int i = 0; i < count; i++) {
 800384e:	45ab      	cmp	fp, r5
 8003850:	d1f7      	bne.n	8003842 <_write_number+0xf8>
  }

  if (specifier->flags & FLAG_NEG_PAD) {
 8003852:	68a3      	ldr	r3, [r4, #8]
 8003854:	079b      	lsls	r3, r3, #30
 8003856:	d408      	bmi.n	800386a <_write_number+0x120>
      _WRITE_C(' ');
    }
  }

  return count;
}
 8003858:	4628      	mov	r0, r5
 800385a:	b011      	add	sp, #68	; 0x44
 800385c:	e8bd 8ff0 	ldmia.w	sp!, {r4, r5, r6, r7, r8, r9, sl, fp, pc}
      _WRITE_C(' ');
 8003860:	68e3      	ldr	r3, [r4, #12]
 8003862:	6920      	ldr	r0, [r4, #16]
 8003864:	2120      	movs	r1, #32
 8003866:	4798      	blx	r3
 8003868:	3501      	adds	r5, #1
    while (count < specifier->width) {
 800386a:	6823      	ldr	r3, [r4, #0]
 800386c:	42ab      	cmp	r3, r5
 800386e:	dcf7      	bgt.n	8003860 <_write_number+0x116>
 8003870:	e7f2      	b.n	8003858 <_write_number+0x10e>
	...

08003874 <vlc_print>:
{
  return *(*fmtP)++;
}

int vlc_print(void (*putc_fct)(void*, const char), void *user, const char* fmt, va_list vl)
{
 8003874:	e92d 4ff0 	stmdb	sp!, {r4, r5, r6, r7, r8, r9, sl, fp, lr}
 8003878:	4682      	mov	sl, r0
 800387a:	b09d      	sub	sp, #116	; 0x74
 800387c:	4688      	mov	r8, r1
 800387e:	461c      	mov	r4, r3
  char c, t;
  int count = 0;
 8003880:	f04f 0b00 	mov.w	fp, #0
  return *(*fmtP)++;
 8003884:	4613      	mov	r3, r2
 8003886:	f813 1b01 	ldrb.w	r1, [r3], #1
 800388a:	9304      	str	r3, [sp, #16]
  bool error = false;

  while (((c = _getChar(&fmt)) != 0) && (!error))
 800388c:	b919      	cbnz	r1, 8003896 <vlc_print+0x22>
      putc_fct(user, c);
      count++;
    }
  }
  return count;
}
 800388e:	4658      	mov	r0, fp
 8003890:	b01d      	add	sp, #116	; 0x74
 8003892:	e8bd 8ff0 	ldmia.w	sp!, {r4, r5, r6, r7, r8, r9, sl, fp, pc}
    if (c == '\n')
 8003896:	290a      	cmp	r1, #10
 8003898:	d104      	bne.n	80038a4 <vlc_print+0x30>
      putc_fct(user, c);
 800389a:	4640      	mov	r0, r8
 800389c:	47d0      	blx	sl
      count++;
 800389e:	f10b 0b01 	add.w	fp, fp, #1
 80038a2:	e0fb      	b.n	8003a9c <vlc_print+0x228>
    else if (c == '%')
 80038a4:	2925      	cmp	r1, #37	; 0x25
 80038a6:	d1f8      	bne.n	800389a <vlc_print+0x26>
      struct specifier specifier = { 0, 0, 0, putc_fct, user };
 80038a8:	2300      	movs	r3, #0
 80038aa:	e9cd 3307 	strd	r3, r3, [sp, #28]
 80038ae:	e9cd 3a09 	strd	r3, sl, [sp, #36]	; 0x24
 80038b2:	f8cd 802c 	str.w	r8, [sp, #44]	; 0x2c
 80038b6:	461f      	mov	r7, r3
 80038b8:	4618      	mov	r0, r3
 80038ba:	461a      	mov	r2, r3
 80038bc:	9300      	str	r3, [sp, #0]
 80038be:	461e      	mov	r6, r3
      bool long_type = false;
 80038c0:	469c      	mov	ip, r3
      bool has_precision = false;
 80038c2:	469e      	mov	lr, r3
  return *(*fmtP)++;
 80038c4:	9904      	ldr	r1, [sp, #16]
 80038c6:	f811 5b01 	ldrb.w	r5, [r1], #1
 80038ca:	9104      	str	r1, [sp, #16]
        if (!c)
 80038cc:	b32d      	cbz	r5, 800391a <vlc_print+0xa6>
        else if (c == '0')
 80038ce:	2d39      	cmp	r5, #57	; 0x39
 80038d0:	d814      	bhi.n	80038fc <vlc_print+0x88>
 80038d2:	2d2c      	cmp	r5, #44	; 0x2c
 80038d4:	d91e      	bls.n	8003914 <vlc_print+0xa0>
 80038d6:	f1a5 012d 	sub.w	r1, r5, #45	; 0x2d
 80038da:	290c      	cmp	r1, #12
 80038dc:	d811      	bhi.n	8003902 <vlc_print+0x8e>
 80038de:	e8df f011 	tbh	[pc, r1, lsl #1]
 80038e2:	0044      	.short	0x0044
 80038e4:	001001ff 	.word	0x001001ff
 80038e8:	00470030 	.word	0x00470030
 80038ec:	00470047 	.word	0x00470047
 80038f0:	00470047 	.word	0x00470047
 80038f4:	00470047 	.word	0x00470047
 80038f8:	00470047 	.word	0x00470047
 80038fc:	2d6c      	cmp	r5, #108	; 0x6c
 80038fe:	f000 8202 	beq.w	8003d06 <vlc_print+0x492>
          switch(c)
 8003902:	2d78      	cmp	r5, #120	; 0x78
 8003904:	d809      	bhi.n	800391a <vlc_print+0xa6>
 8003906:	2d62      	cmp	r5, #98	; 0x62
 8003908:	d83d      	bhi.n	8003986 <vlc_print+0x112>
 800390a:	2d46      	cmp	r5, #70	; 0x46
 800390c:	f000 810c 	beq.w	8003b28 <vlc_print+0x2b4>
 8003910:	2d58      	cmp	r5, #88	; 0x58
 8003912:	d06b      	beq.n	80039ec <vlc_print+0x178>
 8003914:	2d25      	cmp	r5, #37	; 0x25
 8003916:	f000 8088 	beq.w	8003a2a <vlc_print+0x1b6>
 800391a:	b103      	cbz	r3, 800391e <vlc_print+0xaa>
 800391c:	9709      	str	r7, [sp, #36]	; 0x24
 800391e:	b100      	cbz	r0, 8003922 <vlc_print+0xae>
 8003920:	9208      	str	r2, [sp, #32]
 8003922:	9b00      	ldr	r3, [sp, #0]
 8003924:	b103      	cbz	r3, 8003928 <vlc_print+0xb4>
 8003926:	9607      	str	r6, [sp, #28]
        putc_fct(user, '<');
 8003928:	213c      	movs	r1, #60	; 0x3c
 800392a:	4640      	mov	r0, r8
 800392c:	47d0      	blx	sl
        putc_fct(user, '!');
 800392e:	2121      	movs	r1, #33	; 0x21
 8003930:	4640      	mov	r0, r8
 8003932:	47d0      	blx	sl
        putc_fct(user, '>');
 8003934:	213e      	movs	r1, #62	; 0x3e
 8003936:	4640      	mov	r0, r8
 8003938:	47d0      	blx	sl
        va_arg(vl, signed long);
 800393a:	3404      	adds	r4, #4
        count += 3;
 800393c:	f10b 0b03 	add.w	fp, fp, #3
        error = false;
 8003940:	e0ac      	b.n	8003a9c <vlc_print+0x228>
          if (!specifier.width && !specifier.precision) {
 8003942:	ea56 0502 	orrs.w	r5, r6, r2
 8003946:	d105      	bne.n	8003954 <vlc_print+0xe0>
            specifier.flags |= FLAG_ZERO_EXTEND;
 8003948:	f047 0701 	orr.w	r7, r7, #1
 800394c:	462a      	mov	r2, r5
 800394e:	462e      	mov	r6, r5
 8003950:	2301      	movs	r3, #1
 8003952:	e7b7      	b.n	80038c4 <vlc_print+0x50>
            specifier.precision = specifier.precision * 10 + (c - '0');
 8003954:	210a      	movs	r1, #10
          } else if (has_precision) {
 8003956:	f1be 0f00 	cmp.w	lr, #0
 800395a:	d002      	beq.n	8003962 <vlc_print+0xee>
            specifier.precision = specifier.precision * 10 + (c - '0');
 800395c:	434a      	muls	r2, r1
 800395e:	4670      	mov	r0, lr
 8003960:	e7b0      	b.n	80038c4 <vlc_print+0x50>
            specifier.width = specifier.width * 10 + (c - '0');
 8003962:	434e      	muls	r6, r1
            specifier.width = specifier.width * 10 + (c - '0');
 8003964:	2101      	movs	r1, #1
 8003966:	9100      	str	r1, [sp, #0]
 8003968:	e7ac      	b.n	80038c4 <vlc_print+0x50>
          specifier.flags |= FLAG_NEG_PAD;
 800396a:	f047 0702 	orr.w	r7, r7, #2
 800396e:	e7ef      	b.n	8003950 <vlc_print+0xdc>
            specifier.precision = specifier.precision * 10 + (c - '0');
 8003970:	3d30      	subs	r5, #48	; 0x30
 8003972:	210a      	movs	r1, #10
          if (has_precision) {
 8003974:	f1be 0f00 	cmp.w	lr, #0
 8003978:	d002      	beq.n	8003980 <vlc_print+0x10c>
            specifier.precision = specifier.precision * 10 + (c - '0');
 800397a:	fb01 5202 	mla	r2, r1, r2, r5
 800397e:	e7ee      	b.n	800395e <vlc_print+0xea>
            specifier.width = specifier.width * 10 + (c - '0');
 8003980:	fb01 5606 	mla	r6, r1, r6, r5
 8003984:	e7ee      	b.n	8003964 <vlc_print+0xf0>
          switch(c)
 8003986:	3d63      	subs	r5, #99	; 0x63
 8003988:	2d15      	cmp	r5, #21
 800398a:	d8c6      	bhi.n	800391a <vlc_print+0xa6>
 800398c:	f20f 0e04 	addw	lr, pc, #4
 8003990:	f85e f025 	ldr.w	pc, [lr, r5, lsl #2]
 8003994:	08003a3d 	.word	0x08003a3d
 8003998:	08003af1 	.word	0x08003af1
 800399c:	0800391b 	.word	0x0800391b
 80039a0:	08003b29 	.word	0x08003b29
 80039a4:	0800391b 	.word	0x0800391b
 80039a8:	0800391b 	.word	0x0800391b
 80039ac:	08003af1 	.word	0x08003af1
 80039b0:	0800391b 	.word	0x0800391b
 80039b4:	0800391b 	.word	0x0800391b
 80039b8:	0800391b 	.word	0x0800391b
 80039bc:	0800391b 	.word	0x0800391b
 80039c0:	0800391b 	.word	0x0800391b
 80039c4:	0800391b 	.word	0x0800391b
 80039c8:	08003adb 	.word	0x08003adb
 80039cc:	0800391b 	.word	0x0800391b
 80039d0:	0800391b 	.word	0x0800391b
 80039d4:	08003a51 	.word	0x08003a51
 80039d8:	0800391b 	.word	0x0800391b
 80039dc:	08003ce7 	.word	0x08003ce7
 80039e0:	0800391b 	.word	0x0800391b
 80039e4:	0800391b 	.word	0x0800391b
 80039e8:	08003a05 	.word	0x08003a05
 80039ec:	b103      	cbz	r3, 80039f0 <vlc_print+0x17c>
 80039ee:	9709      	str	r7, [sp, #36]	; 0x24
 80039f0:	b100      	cbz	r0, 80039f4 <vlc_print+0x180>
 80039f2:	9208      	str	r2, [sp, #32]
 80039f4:	9b00      	ldr	r3, [sp, #0]
 80039f6:	b103      	cbz	r3, 80039fa <vlc_print+0x186>
 80039f8:	9607      	str	r6, [sp, #28]
            specifier.flags |= FLAG_CAPS;
 80039fa:	9b09      	ldr	r3, [sp, #36]	; 0x24
 80039fc:	f043 0308 	orr.w	r3, r3, #8
 8003a00:	9309      	str	r3, [sp, #36]	; 0x24
 8003a02:	e006      	b.n	8003a12 <vlc_print+0x19e>
 8003a04:	b103      	cbz	r3, 8003a08 <vlc_print+0x194>
 8003a06:	9709      	str	r7, [sp, #36]	; 0x24
 8003a08:	b100      	cbz	r0, 8003a0c <vlc_print+0x198>
 8003a0a:	9208      	str	r2, [sp, #32]
 8003a0c:	9b00      	ldr	r3, [sp, #0]
 8003a0e:	b103      	cbz	r3, 8003a12 <vlc_print+0x19e>
 8003a10:	9607      	str	r6, [sp, #28]
            specifier.flags |= FLAG_HEX;
 8003a12:	9b09      	ldr	r3, [sp, #36]	; 0x24
            count += _write_number(val, &specifier);
 8003a14:	f854 0b04 	ldr.w	r0, [r4], #4
            specifier.flags |= FLAG_HEX;
 8003a18:	f043 0310 	orr.w	r3, r3, #16
            count += _write_number(val, &specifier);
 8003a1c:	aa07      	add	r2, sp, #28
 8003a1e:	2100      	movs	r1, #0
            specifier.flags |= FLAG_HEX;
 8003a20:	9309      	str	r3, [sp, #36]	; 0x24
            count += _write_number(val, &specifier);
 8003a22:	f7ff fe92 	bl	800374a <_write_number>
 8003a26:	4483      	add	fp, r0
            break;
 8003a28:	e038      	b.n	8003a9c <vlc_print+0x228>
 8003a2a:	b103      	cbz	r3, 8003a2e <vlc_print+0x1ba>
 8003a2c:	9709      	str	r7, [sp, #36]	; 0x24
 8003a2e:	b100      	cbz	r0, 8003a32 <vlc_print+0x1be>
 8003a30:	9208      	str	r2, [sp, #32]
 8003a32:	9b00      	ldr	r3, [sp, #0]
 8003a34:	b103      	cbz	r3, 8003a38 <vlc_print+0x1c4>
 8003a36:	9607      	str	r6, [sp, #28]
            putc_fct(user, c);
 8003a38:	2125      	movs	r1, #37	; 0x25
 8003a3a:	e72e      	b.n	800389a <vlc_print+0x26>
 8003a3c:	b103      	cbz	r3, 8003a40 <vlc_print+0x1cc>
 8003a3e:	9709      	str	r7, [sp, #36]	; 0x24
 8003a40:	b100      	cbz	r0, 8003a44 <vlc_print+0x1d0>
 8003a42:	9208      	str	r2, [sp, #32]
 8003a44:	9b00      	ldr	r3, [sp, #0]
 8003a46:	b103      	cbz	r3, 8003a4a <vlc_print+0x1d6>
 8003a48:	9607      	str	r6, [sp, #28]
            putc_fct(user, t);
 8003a4a:	f814 1b04 	ldrb.w	r1, [r4], #4
 8003a4e:	e724      	b.n	800389a <vlc_print+0x26>
 8003a50:	b103      	cbz	r3, 8003a54 <vlc_print+0x1e0>
 8003a52:	9709      	str	r7, [sp, #36]	; 0x24
 8003a54:	b100      	cbz	r0, 8003a58 <vlc_print+0x1e4>
 8003a56:	9208      	str	r2, [sp, #32]
 8003a58:	9b00      	ldr	r3, [sp, #0]
 8003a5a:	b103      	cbz	r3, 8003a5e <vlc_print+0x1ea>
 8003a5c:	9607      	str	r6, [sp, #28]
            if (!str) str = "(null)";
 8003a5e:	4bab      	ldr	r3, [pc, #684]	; (8003d0c <vlc_print+0x498>)
            str = va_arg(vl, char*);
 8003a60:	f854 9b04 	ldr.w	r9, [r4], #4
            if (!str) str = "(null)";
 8003a64:	f1b9 0f00 	cmp.w	r9, #0
 8003a68:	bf08      	it	eq
 8003a6a:	4699      	moveq	r9, r3
  int len = strlen(str);
 8003a6c:	4648      	mov	r0, r9
 8003a6e:	f7fc fc1f 	bl	80002b0 <strlen>
  if (specifier->precision) {
 8003a72:	9b08      	ldr	r3, [sp, #32]
  int len = strlen(str);
 8003a74:	4606      	mov	r6, r0
  if (specifier->precision) {
 8003a76:	b113      	cbz	r3, 8003a7e <vlc_print+0x20a>
    len = (len > specifier->precision)?specifier->precision:len;
 8003a78:	4298      	cmp	r0, r3
 8003a7a:	bfa8      	it	ge
 8003a7c:	461e      	movge	r6, r3
  if (!(specifier->flags & FLAG_NEG_PAD)) {
 8003a7e:	9f09      	ldr	r7, [sp, #36]	; 0x24
 8003a80:	f017 0702 	ands.w	r7, r7, #2
 8003a84:	d015      	beq.n	8003ab2 <vlc_print+0x23e>
  int count = 0;
 8003a86:	2500      	movs	r5, #0
 8003a88:	464a      	mov	r2, r9
  for (int i = 0; i < len; i++) {
 8003a8a:	eba2 0309 	sub.w	r3, r2, r9
 8003a8e:	429e      	cmp	r6, r3
 8003a90:	dc11      	bgt.n	8003ab6 <vlc_print+0x242>
 8003a92:	2e00      	cmp	r6, #0
 8003a94:	bfa8      	it	ge
 8003a96:	19ad      	addge	r5, r5, r6
  if (specifier->flags & FLAG_NEG_PAD) {
 8003a98:	b9ef      	cbnz	r7, 8003ad6 <vlc_print+0x262>
            count += _write_string(str, &specifier);
 8003a9a:	44ab      	add	fp, r5
            break;
 8003a9c:	9a04      	ldr	r2, [sp, #16]
 8003a9e:	e6f1      	b.n	8003884 <vlc_print+0x10>
      _WRITE_C(' ');
 8003aa0:	2120      	movs	r1, #32
 8003aa2:	4640      	mov	r0, r8
 8003aa4:	47d0      	blx	sl
 8003aa6:	3501      	adds	r5, #1
    for(int i = len; i < specifier->width; i++) {
 8003aa8:	9a07      	ldr	r2, [sp, #28]
 8003aaa:	19ab      	adds	r3, r5, r6
 8003aac:	429a      	cmp	r2, r3
 8003aae:	dcf7      	bgt.n	8003aa0 <vlc_print+0x22c>
 8003ab0:	e7ea      	b.n	8003a88 <vlc_print+0x214>
  int count = 0;
 8003ab2:	463d      	mov	r5, r7
 8003ab4:	e7f8      	b.n	8003aa8 <vlc_print+0x234>
    _WRITE_C(*str++);
 8003ab6:	f812 1b01 	ldrb.w	r1, [r2], #1
 8003aba:	9200      	str	r2, [sp, #0]
 8003abc:	4640      	mov	r0, r8
 8003abe:	47d0      	blx	sl
 8003ac0:	9a00      	ldr	r2, [sp, #0]
  for (int i = 0; i < len; i++) {
 8003ac2:	e7e2      	b.n	8003a8a <vlc_print+0x216>
      _WRITE_C(' ');
 8003ac4:	2120      	movs	r1, #32
 8003ac6:	4640      	mov	r0, r8
 8003ac8:	47d0      	blx	sl
 8003aca:	3501      	adds	r5, #1
    for(int i = len; i < specifier->width; i++) {
 8003acc:	9a07      	ldr	r2, [sp, #28]
 8003ace:	1973      	adds	r3, r6, r5
 8003ad0:	429a      	cmp	r2, r3
 8003ad2:	dcf7      	bgt.n	8003ac4 <vlc_print+0x250>
 8003ad4:	e7e1      	b.n	8003a9a <vlc_print+0x226>
 8003ad6:	1b76      	subs	r6, r6, r5
 8003ad8:	e7f8      	b.n	8003acc <vlc_print+0x258>
 8003ada:	b103      	cbz	r3, 8003ade <vlc_print+0x26a>
 8003adc:	9709      	str	r7, [sp, #36]	; 0x24
 8003ade:	b100      	cbz	r0, 8003ae2 <vlc_print+0x26e>
 8003ae0:	9208      	str	r2, [sp, #32]
            specifier.flags |= FLAG_ZERO_EXTEND;
 8003ae2:	9b09      	ldr	r3, [sp, #36]	; 0x24
 8003ae4:	f043 0301 	orr.w	r3, r3, #1
 8003ae8:	9309      	str	r3, [sp, #36]	; 0x24
            specifier.width = 8;
 8003aea:	2308      	movs	r3, #8
 8003aec:	9307      	str	r3, [sp, #28]
 8003aee:	e784      	b.n	80039fa <vlc_print+0x186>
 8003af0:	b103      	cbz	r3, 8003af4 <vlc_print+0x280>
 8003af2:	9709      	str	r7, [sp, #36]	; 0x24
 8003af4:	b100      	cbz	r0, 8003af8 <vlc_print+0x284>
 8003af6:	9208      	str	r2, [sp, #32]
 8003af8:	9b00      	ldr	r3, [sp, #0]
 8003afa:	b103      	cbz	r3, 8003afe <vlc_print+0x28a>
 8003afc:	9607      	str	r6, [sp, #28]
            specifier.flags |= FLAG_IS_SIGNED;
 8003afe:	9b09      	ldr	r3, [sp, #36]	; 0x24
 8003b00:	f043 0304 	orr.w	r3, r3, #4
 8003b04:	9309      	str	r3, [sp, #36]	; 0x24
                val = va_arg(vl, signed int);
 8003b06:	6820      	ldr	r0, [r4, #0]
            val = va_arg(vl, unsigned int);
 8003b08:	1d25      	adds	r5, r4, #4
                val = va_arg(vl, signed int);
 8003b0a:	17c1      	asrs	r1, r0, #31
            count += _write_number(val, &specifier);
 8003b0c:	aa07      	add	r2, sp, #28
 8003b0e:	f7ff fe1c 	bl	800374a <_write_number>
            break;
 8003b12:	462c      	mov	r4, r5
            count += _write_number(val, &specifier);
 8003b14:	4483      	add	fp, r0
            break;
 8003b16:	e7c1      	b.n	8003a9c <vlc_print+0x228>
                val = va_arg(vl, uint64_t);
 8003b18:	3407      	adds	r4, #7
 8003b1a:	f024 0407 	bic.w	r4, r4, #7
 8003b1e:	4625      	mov	r5, r4
 8003b20:	6861      	ldr	r1, [r4, #4]
 8003b22:	f855 0b08 	ldr.w	r0, [r5], #8
 8003b26:	e7f1      	b.n	8003b0c <vlc_print+0x298>
 8003b28:	b103      	cbz	r3, 8003b2c <vlc_print+0x2b8>
 8003b2a:	9709      	str	r7, [sp, #36]	; 0x24
 8003b2c:	b100      	cbz	r0, 8003b30 <vlc_print+0x2bc>
 8003b2e:	9208      	str	r2, [sp, #32]
 8003b30:	9b00      	ldr	r3, [sp, #0]
 8003b32:	b103      	cbz	r3, 8003b36 <vlc_print+0x2c2>
 8003b34:	9607      	str	r6, [sp, #28]
            dbl = va_arg(vl, double);
 8003b36:	3407      	adds	r4, #7
 8003b38:	f024 0407 	bic.w	r4, r4, #7
 8003b3c:	ecb4 7b02 	vldmia	r4!, {d7}
            if (specifier.precision == 0)
 8003b40:	9b08      	ldr	r3, [sp, #32]
            dbl = va_arg(vl, double);
 8003b42:	ed8d 7b00 	vstr	d7, [sp]
            if (specifier.precision == 0)
 8003b46:	b90b      	cbnz	r3, 8003b4c <vlc_print+0x2d8>
              specifier.precision = 6;
 8003b48:	2306      	movs	r3, #6
 8003b4a:	9308      	str	r3, [sp, #32]
  for (int i=0;i <specifier->precision; i++)
 8003b4c:	9d08      	ldr	r5, [sp, #32]
  double mul = 1.0;
 8003b4e:	4f70      	ldr	r7, [pc, #448]	; (8003d10 <vlc_print+0x49c>)
  for (int i=0;i <specifier->precision; i++)
 8003b50:	f04f 0900 	mov.w	r9, #0
  double mul = 1.0;
 8003b54:	2600      	movs	r6, #0
  for (int i=0;i <specifier->precision; i++)
 8003b56:	45a9      	cmp	r9, r5
    mul *= 10;
 8003b58:	f04f 0200 	mov.w	r2, #0
  for (int i=0;i <specifier->precision; i++)
 8003b5c:	f2c0 80ac 	blt.w	8003cb8 <vlc_print+0x444>
  if (is_signed)
 8003b60:	e9dd 0100 	ldrd	r0, r1, [sp]
 8003b64:	2300      	movs	r3, #0
 8003b66:	f7fc ffd9 	bl	8000b1c <__aeabi_dcmplt>
 8003b6a:	2800      	cmp	r0, #0
 8003b6c:	f000 80ae 	beq.w	8003ccc <vlc_print+0x458>
    number = -number;
 8003b70:	9b00      	ldr	r3, [sp, #0]
 8003b72:	9302      	str	r3, [sp, #8]
 8003b74:	9b01      	ldr	r3, [sp, #4]
 8003b76:	f103 4300 	add.w	r3, r3, #2147483648	; 0x80000000
 8003b7a:	9303      	str	r3, [sp, #12]
  number += (half_ / mul);
 8003b7c:	4632      	mov	r2, r6
 8003b7e:	463b      	mov	r3, r7
 8003b80:	4964      	ldr	r1, [pc, #400]	; (8003d14 <vlc_print+0x4a0>)
 8003b82:	2000      	movs	r0, #0
 8003b84:	f7fc fe82 	bl	800088c <__aeabi_ddiv>
 8003b88:	e9dd 2302 	ldrd	r2, r3, [sp, #8]
 8003b8c:	f7fc fb9e 	bl	80002cc <__adddf3>
  val = (uint64_t)(number * mul);
 8003b90:	4632      	mov	r2, r6
 8003b92:	463b      	mov	r3, r7
 8003b94:	f7fc fd50 	bl	8000638 <__aeabi_dmul>
 8003b98:	f7fd f83e 	bl	8000c18 <__aeabi_d2ulz>
  uint32_t count = 0;
 8003b9c:	2600      	movs	r6, #0
  val = (uint64_t)(number * mul);
 8003b9e:	4602      	mov	r2, r0
  uint32_t idx = sizeof(buf) - 1;
 8003ba0:	273f      	movs	r7, #63	; 0x3f
    uint64_t t = val / 10;
 8003ba2:	4691      	mov	r9, r2
 8003ba4:	2300      	movs	r3, #0
 8003ba6:	220a      	movs	r2, #10
 8003ba8:	4648      	mov	r0, r9
 8003baa:	9105      	str	r1, [sp, #20]
 8003bac:	f7fd f81c 	bl	8000be8 <__aeabi_uldivmod>
    chr = (val - t * 10) + '0';
 8003bb0:	f109 0e30 	add.w	lr, r9, #48	; 0x30
 8003bb4:	eb00 0380 	add.w	r3, r0, r0, lsl #2
    uint64_t t = val / 10;
 8003bb8:	4602      	mov	r2, r0
    chr = (val - t * 10) + '0';
 8003bba:	ebae 0043 	sub.w	r0, lr, r3, lsl #1
    buf[idx--] = chr;
 8003bbe:	f107 0370 	add.w	r3, r7, #112	; 0x70
 8003bc2:	446b      	add	r3, sp
 8003bc4:	f107 3cff 	add.w	ip, r7, #4294967295
 8003bc8:	f803 0c40 	strb.w	r0, [r3, #-64]
    count++;
 8003bcc:	1c73      	adds	r3, r6, #1
    if (count == specifier->precision) {
 8003bce:	429d      	cmp	r5, r3
      buf[idx--] = '.';
 8003bd0:	bf01      	itttt	eq
 8003bd2:	f10c 0370 	addeq.w	r3, ip, #112	; 0x70
 8003bd6:	eb0d 0c03 	addeq.w	ip, sp, r3
 8003bda:	232e      	moveq	r3, #46	; 0x2e
 8003bdc:	f80c 3c40 	strbeq.w	r3, [ip, #-64]
    count++;
 8003be0:	bf18      	it	ne
 8003be2:	461e      	movne	r6, r3
  } while (val);
 8003be4:	9b05      	ldr	r3, [sp, #20]
      buf[idx--] = '.';
 8003be6:	bf06      	itte	eq
 8003be8:	3f02      	subeq	r7, #2
      count++;
 8003bea:	3602      	addeq	r6, #2
    buf[idx--] = chr;
 8003bec:	4667      	movne	r7, ip
  } while (val);
 8003bee:	f1b9 0f0a 	cmp.w	r9, #10
 8003bf2:	f173 0900 	sbcs.w	r9, r3, #0
 8003bf6:	d2d4      	bcs.n	8003ba2 <vlc_print+0x32e>
    buf[idx--] = '0';
 8003bf8:	42ae      	cmp	r6, r5
 8003bfa:	f1c5 0001 	rsb	r0, r5, #1
 8003bfe:	4430      	add	r0, r6
 8003c00:	f04f 0130 	mov.w	r1, #48	; 0x30
 8003c04:	bf88      	it	hi
 8003c06:	2001      	movhi	r0, #1
 8003c08:	eba5 0906 	sub.w	r9, r5, r6
 8003c0c:	eb0d 0301 	add.w	r3, sp, r1
 8003c10:	bf88      	it	hi
 8003c12:	f04f 0900 	movhi.w	r9, #0
 8003c16:	4438      	add	r0, r7
 8003c18:	4418      	add	r0, r3
 8003c1a:	464a      	mov	r2, r9
 8003c1c:	f004 f971 	bl	8007f02 <memset>
 8003c20:	1b73      	subs	r3, r6, r5
 8003c22:	42ae      	cmp	r6, r5
 8003c24:	bf88      	it	hi
 8003c26:	2300      	movhi	r3, #0
 8003c28:	444e      	add	r6, r9
  if (count == specifier->precision) {
 8003c2a:	42b5      	cmp	r5, r6
 8003c2c:	441f      	add	r7, r3
 8003c2e:	f105 0501 	add.w	r5, r5, #1
 8003c32:	d107      	bne.n	8003c44 <vlc_print+0x3d0>
    buf[idx--] = '.';
 8003c34:	f107 0370 	add.w	r3, r7, #112	; 0x70
 8003c38:	446b      	add	r3, sp
 8003c3a:	222e      	movs	r2, #46	; 0x2e
 8003c3c:	f803 2c40 	strb.w	r2, [r3, #-64]
    count++;
 8003c40:	462e      	mov	r6, r5
    buf[idx--] = '.';
 8003c42:	3f01      	subs	r7, #1
  if (count == specifier->precision + 1)
 8003c44:	42b5      	cmp	r5, r6
 8003c46:	d107      	bne.n	8003c58 <vlc_print+0x3e4>
    buf[idx--] = '0';
 8003c48:	f107 0370 	add.w	r3, r7, #112	; 0x70
 8003c4c:	446b      	add	r3, sp
 8003c4e:	2230      	movs	r2, #48	; 0x30
 8003c50:	f803 2c40 	strb.w	r2, [r3, #-64]
    count++;
 8003c54:	3601      	adds	r6, #1
    buf[idx--] = '0';
 8003c56:	3f01      	subs	r7, #1
  if (is_signed) {
 8003c58:	e9dd 0100 	ldrd	r0, r1, [sp]
 8003c5c:	2200      	movs	r2, #0
 8003c5e:	2300      	movs	r3, #0
 8003c60:	f7fc ff5c 	bl	8000b1c <__aeabi_dcmplt>
 8003c64:	b138      	cbz	r0, 8003c76 <vlc_print+0x402>
    buf[idx--] = '-';
 8003c66:	f107 0370 	add.w	r3, r7, #112	; 0x70
 8003c6a:	446b      	add	r3, sp
 8003c6c:	222d      	movs	r2, #45	; 0x2d
 8003c6e:	f803 2c40 	strb.w	r2, [r3, #-64]
    count++;
 8003c72:	3601      	adds	r6, #1
    buf[idx--] = '-';
 8003c74:	3f01      	subs	r7, #1
  while (count < specifier->width) {
 8003c76:	9d07      	ldr	r5, [sp, #28]
    buf[idx--] = ' ';
 8003c78:	42ae      	cmp	r6, r5
 8003c7a:	f1c5 0001 	rsb	r0, r5, #1
 8003c7e:	4430      	add	r0, r6
 8003c80:	bf88      	it	hi
 8003c82:	2001      	movhi	r0, #1
 8003c84:	eba5 0906 	sub.w	r9, r5, r6
 8003c88:	ab0c      	add	r3, sp, #48	; 0x30
 8003c8a:	bf88      	it	hi
 8003c8c:	f04f 0900 	movhi.w	r9, #0
 8003c90:	4438      	add	r0, r7
 8003c92:	464a      	mov	r2, r9
 8003c94:	4418      	add	r0, r3
 8003c96:	2120      	movs	r1, #32
 8003c98:	f004 f933 	bl	8007f02 <memset>
 8003c9c:	1b73      	subs	r3, r6, r5
 8003c9e:	42ae      	cmp	r6, r5
 8003ca0:	bf88      	it	hi
 8003ca2:	2300      	movhi	r3, #0
 8003ca4:	443b      	add	r3, r7
 8003ca6:	aa0c      	add	r2, sp, #48	; 0x30
 8003ca8:	444e      	add	r6, r9
  for(int i = 0; i < count; i++) {
 8003caa:	18d7      	adds	r7, r2, r3
 8003cac:	4433      	add	r3, r6
 8003cae:	189d      	adds	r5, r3, r2
 8003cb0:	42bd      	cmp	r5, r7
 8003cb2:	d110      	bne.n	8003cd6 <vlc_print+0x462>
            count += _write_double(dbl, &specifier);
 8003cb4:	44b3      	add	fp, r6
            break;
 8003cb6:	e6f1      	b.n	8003a9c <vlc_print+0x228>
    mul *= 10;
 8003cb8:	4630      	mov	r0, r6
 8003cba:	4639      	mov	r1, r7
 8003cbc:	4b16      	ldr	r3, [pc, #88]	; (8003d18 <vlc_print+0x4a4>)
 8003cbe:	f7fc fcbb 	bl	8000638 <__aeabi_dmul>
  for (int i=0;i <specifier->precision; i++)
 8003cc2:	f109 0901 	add.w	r9, r9, #1
    mul *= 10;
 8003cc6:	4606      	mov	r6, r0
 8003cc8:	460f      	mov	r7, r1
  for (int i=0;i <specifier->precision; i++)
 8003cca:	e744      	b.n	8003b56 <vlc_print+0x2e2>
 8003ccc:	ed9d 7b00 	vldr	d7, [sp]
 8003cd0:	ed8d 7b02 	vstr	d7, [sp, #8]
 8003cd4:	e752      	b.n	8003b7c <vlc_print+0x308>
    specifier->putc_fct(specifier->user, (buf + idx)[i]);
 8003cd6:	f817 1f01 	ldrb.w	r1, [r7, #1]!
 8003cda:	4640      	mov	r0, r8
 8003cdc:	47d0      	blx	sl
  for(int i = 0; i < count; i++) {
 8003cde:	e7e7      	b.n	8003cb0 <vlc_print+0x43c>
        if (!c)
 8003ce0:	f04f 0e01 	mov.w	lr, #1
 8003ce4:	e5ee      	b.n	80038c4 <vlc_print+0x50>
 8003ce6:	b103      	cbz	r3, 8003cea <vlc_print+0x476>
 8003ce8:	9709      	str	r7, [sp, #36]	; 0x24
 8003cea:	b100      	cbz	r0, 8003cee <vlc_print+0x47a>
 8003cec:	9208      	str	r2, [sp, #32]
 8003cee:	9b00      	ldr	r3, [sp, #0]
 8003cf0:	b103      	cbz	r3, 8003cf4 <vlc_print+0x480>
 8003cf2:	9607      	str	r6, [sp, #28]
              if (long_type)
 8003cf4:	f1bc 0f00 	cmp.w	ip, #0
 8003cf8:	f47f af0e 	bne.w	8003b18 <vlc_print+0x2a4>
                val = va_arg(vl, unsigned int);
 8003cfc:	4625      	mov	r5, r4
 8003cfe:	4661      	mov	r1, ip
 8003d00:	f855 0b04 	ldr.w	r0, [r5], #4
 8003d04:	e702      	b.n	8003b0c <vlc_print+0x298>
        if (!c)
 8003d06:	f04f 0c01 	mov.w	ip, #1
      while (done == false) {
 8003d0a:	e5db      	b.n	80038c4 <vlc_print+0x50>
 8003d0c:	0800ac2c 	.word	0x0800ac2c
 8003d10:	3ff00000 	.word	0x3ff00000
 8003d14:	3fe00000 	.word	0x3fe00000
 8003d18:	40240000 	.word	0x40240000

08003d1c <ai_network_create>:
}

AI_API_ENTRY
ai_error ai_network_create(
  ai_handle* network, const ai_buffer* network_config)
{
 8003d1c:	b507      	push	{r0, r1, r2, lr}
  return ai_platform_network_create(
 8003d1e:	2305      	movs	r3, #5
 8003d20:	2200      	movs	r2, #0
 8003d22:	e9cd 3200 	strd	r3, r2, [sp]
 8003d26:	4a03      	ldr	r2, [pc, #12]	; (8003d34 <ai_network_create+0x18>)
 8003d28:	2301      	movs	r3, #1
 8003d2a:	f000 fcd3 	bl	80046d4 <ai_platform_network_create>
    network, network_config, 
    &AI_NET_OBJ_INSTANCE,
    AI_TOOLS_API_VERSION_MAJOR, AI_TOOLS_API_VERSION_MINOR, AI_TOOLS_API_VERSION_MICRO);
}
 8003d2e:	b003      	add	sp, #12
 8003d30:	f85d fb04 	ldr.w	pc, [sp], #4
 8003d34:	200007a8 	.word	0x200007a8

08003d38 <ai_network_inputs_get>:
}

AI_API_ENTRY
ai_buffer* ai_network_inputs_get(ai_handle network, ai_u16 *n_buffer)
{
  if (network == AI_HANDLE_NULL) {
 8003d38:	b910      	cbnz	r0, 8003d40 <ai_network_inputs_get+0x8>
    network = (ai_handle)&AI_NET_OBJ_INSTANCE;
    ((ai_network *)network)->magic = AI_MAGIC_CONTEXT_TOKEN;
 8003d3a:	4802      	ldr	r0, [pc, #8]	; (8003d44 <ai_network_inputs_get+0xc>)
 8003d3c:	4b02      	ldr	r3, [pc, #8]	; (8003d48 <ai_network_inputs_get+0x10>)
 8003d3e:	6003      	str	r3, [r0, #0]
  }
  return ai_platform_inputs_get(network, n_buffer);
 8003d40:	f000 bb22 	b.w	8004388 <ai_platform_inputs_get>
 8003d44:	200007a8 	.word	0x200007a8
 8003d48:	a1c00100 	.word	0xa1c00100

08003d4c <ai_network_outputs_get>:
}

AI_API_ENTRY
ai_buffer* ai_network_outputs_get(ai_handle network, ai_u16 *n_buffer)
{
  if (network == AI_HANDLE_NULL) {
 8003d4c:	b910      	cbnz	r0, 8003d54 <ai_network_outputs_get+0x8>
    network = (ai_handle)&AI_NET_OBJ_INSTANCE;
    ((ai_network *)network)->magic = AI_MAGIC_CONTEXT_TOKEN;
 8003d4e:	4802      	ldr	r0, [pc, #8]	; (8003d58 <ai_network_outputs_get+0xc>)
 8003d50:	4b02      	ldr	r3, [pc, #8]	; (8003d5c <ai_network_outputs_get+0x10>)
 8003d52:	6003      	str	r3, [r0, #0]
  }
  return ai_platform_outputs_get(network, n_buffer);
 8003d54:	f000 bbee 	b.w	8004534 <ai_platform_outputs_get>
 8003d58:	200007a8 	.word	0x200007a8
 8003d5c:	a1c00100 	.word	0xa1c00100

08003d60 <ai_network_init>:
}

AI_API_ENTRY
ai_bool ai_network_init(
  ai_handle network, const ai_network_params* params)
{
 8003d60:	e92d 41f0 	stmdb	sp!, {r4, r5, r6, r7, r8, lr}
 8003d64:	4606      	mov	r6, r0
 8003d66:	460f      	mov	r7, r1
  ai_network* net_ctx = ai_platform_network_init(network, params);
 8003d68:	f000 fd8a 	bl	8004880 <ai_platform_network_init>
  if (!net_ctx) return false;
 8003d6c:	4604      	mov	r4, r0
 8003d6e:	2800      	cmp	r0, #0
 8003d70:	f000 80cf 	beq.w	8003f12 <ai_network_init+0x1b2>
  if (ai_platform_get_weights_map(g_network_weights_map, 1, params)) {
 8003d74:	f8df 821c 	ldr.w	r8, [pc, #540]	; 8003f94 <ai_network_init+0x234>
 8003d78:	463a      	mov	r2, r7
 8003d7a:	2101      	movs	r1, #1
 8003d7c:	4640      	mov	r0, r8
 8003d7e:	f000 f9c5 	bl	800410c <ai_platform_get_weights_map>
 8003d82:	4605      	mov	r5, r0
 8003d84:	2800      	cmp	r0, #0
 8003d86:	f000 80c6 	beq.w	8003f16 <ai_network_init+0x1b6>
    dense_20_dense_bias_array.format |= AI_FMT_FLAG_CONST;
 8003d8a:	4a69      	ldr	r2, [pc, #420]	; (8003f30 <ai_network_init+0x1d0>)
 8003d8c:	6813      	ldr	r3, [r2, #0]
 8003d8e:	f043 4380 	orr.w	r3, r3, #1073741824	; 0x40000000
 8003d92:	6013      	str	r3, [r2, #0]
    dense_20_dense_bias_array.data = AI_PTR(g_network_weights_map[0] + 0);
 8003d94:	f8d8 3000 	ldr.w	r3, [r8]
    dense_20_dense_bias_array.data_start = AI_PTR(g_network_weights_map[0] + 0);
 8003d98:	e9c2 3302 	strd	r3, r3, [r2, #8]
    dense_21_dense_weights_array.format |= AI_FMT_FLAG_CONST;
 8003d9c:	4a65      	ldr	r2, [pc, #404]	; (8003f34 <ai_network_init+0x1d4>)
 8003d9e:	6811      	ldr	r1, [r2, #0]
 8003da0:	f041 4180 	orr.w	r1, r1, #1073741824	; 0x40000000
 8003da4:	6011      	str	r1, [r2, #0]
    dense_21_dense_weights_array.data = AI_PTR(g_network_weights_map[0] + 32);
 8003da6:	f103 0120 	add.w	r1, r3, #32
    dense_21_dense_weights_array.data_start = AI_PTR(g_network_weights_map[0] + 32);
 8003daa:	e9c2 1102 	strd	r1, r1, [r2, #8]
    dense_21_dense_bias_array.format |= AI_FMT_FLAG_CONST;
 8003dae:	4a62      	ldr	r2, [pc, #392]	; (8003f38 <ai_network_init+0x1d8>)
 8003db0:	6811      	ldr	r1, [r2, #0]
 8003db2:	f041 4180 	orr.w	r1, r1, #1073741824	; 0x40000000
 8003db6:	6011      	str	r1, [r2, #0]
    dense_21_dense_bias_array.data = AI_PTR(g_network_weights_map[0] + 64);
 8003db8:	f103 0140 	add.w	r1, r3, #64	; 0x40
    dense_21_dense_bias_array.data_start = AI_PTR(g_network_weights_map[0] + 64);
 8003dbc:	e9c2 1102 	strd	r1, r1, [r2, #8]
    lstm_20_kernel_array.format |= AI_FMT_FLAG_CONST;
 8003dc0:	4a5e      	ldr	r2, [pc, #376]	; (8003f3c <ai_network_init+0x1dc>)
 8003dc2:	6811      	ldr	r1, [r2, #0]
 8003dc4:	f041 4180 	orr.w	r1, r1, #1073741824	; 0x40000000
 8003dc8:	6011      	str	r1, [r2, #0]
    lstm_20_kernel_array.data = AI_PTR(g_network_weights_map[0] + 68);
 8003dca:	f103 0144 	add.w	r1, r3, #68	; 0x44
    lstm_20_kernel_array.data_start = AI_PTR(g_network_weights_map[0] + 68);
 8003dce:	e9c2 1102 	strd	r1, r1, [r2, #8]
    lstm_20_recurrent_array.format |= AI_FMT_FLAG_CONST;
 8003dd2:	4a5b      	ldr	r2, [pc, #364]	; (8003f40 <ai_network_init+0x1e0>)
 8003dd4:	6811      	ldr	r1, [r2, #0]
 8003dd6:	f041 4180 	orr.w	r1, r1, #1073741824	; 0x40000000
 8003dda:	6011      	str	r1, [r2, #0]
    lstm_20_recurrent_array.data = AI_PTR(g_network_weights_map[0] + 1668);
 8003ddc:	f203 6184 	addw	r1, r3, #1668	; 0x684
    lstm_20_recurrent_array.data_start = AI_PTR(g_network_weights_map[0] + 1668);
 8003de0:	e9c2 1102 	strd	r1, r1, [r2, #8]
    lstm_20_peephole_array.format |= AI_FMT_FLAG_CONST;
 8003de4:	4a57      	ldr	r2, [pc, #348]	; (8003f44 <ai_network_init+0x1e4>)
 8003de6:	6811      	ldr	r1, [r2, #0]
 8003de8:	f041 4180 	orr.w	r1, r1, #1073741824	; 0x40000000
 8003dec:	6011      	str	r1, [r2, #0]
    lstm_20_peephole_array.data = AI_PTR(g_network_weights_map[0] + 41668);
 8003dee:	f503 4122 	add.w	r1, r3, #41472	; 0xa200
 8003df2:	31c4      	adds	r1, #196	; 0xc4
    lstm_20_peephole_array.data_start = AI_PTR(g_network_weights_map[0] + 41668);
 8003df4:	e9c2 1102 	strd	r1, r1, [r2, #8]
    lstm_20_bias_array.format |= AI_FMT_FLAG_CONST;
 8003df8:	4a53      	ldr	r2, [pc, #332]	; (8003f48 <ai_network_init+0x1e8>)
 8003dfa:	6811      	ldr	r1, [r2, #0]
 8003dfc:	f041 4180 	orr.w	r1, r1, #1073741824	; 0x40000000
 8003e00:	6011      	str	r1, [r2, #0]
    lstm_20_bias_array.data = AI_PTR(g_network_weights_map[0] + 42268);
 8003e02:	f503 4125 	add.w	r1, r3, #42240	; 0xa500
 8003e06:	311c      	adds	r1, #28
    lstm_20_bias_array.data_start = AI_PTR(g_network_weights_map[0] + 42268);
 8003e08:	e9c2 1102 	strd	r1, r1, [r2, #8]
    lstm_21_kernel_array.format |= AI_FMT_FLAG_CONST;
 8003e0c:	4a4f      	ldr	r2, [pc, #316]	; (8003f4c <ai_network_init+0x1ec>)
 8003e0e:	6811      	ldr	r1, [r2, #0]
 8003e10:	f041 4180 	orr.w	r1, r1, #1073741824	; 0x40000000
 8003e14:	6011      	str	r1, [r2, #0]
    lstm_21_kernel_array.data = AI_PTR(g_network_weights_map[0] + 43068);
 8003e16:	f503 4128 	add.w	r1, r3, #43008	; 0xa800
 8003e1a:	313c      	adds	r1, #60	; 0x3c
    lstm_21_kernel_array.data_start = AI_PTR(g_network_weights_map[0] + 43068);
 8003e1c:	e9c2 1102 	strd	r1, r1, [r2, #8]
    lstm_21_recurrent_array.format |= AI_FMT_FLAG_CONST;
 8003e20:	4a4b      	ldr	r2, [pc, #300]	; (8003f50 <ai_network_init+0x1f0>)
 8003e22:	6811      	ldr	r1, [r2, #0]
 8003e24:	f041 4180 	orr.w	r1, r1, #1073741824	; 0x40000000
 8003e28:	6011      	str	r1, [r2, #0]
    lstm_21_recurrent_array.data = AI_PTR(g_network_weights_map[0] + 83068);
 8003e2a:	f503 31a2 	add.w	r1, r3, #82944	; 0x14400
 8003e2e:	317c      	adds	r1, #124	; 0x7c
    lstm_21_recurrent_array.data_start = AI_PTR(g_network_weights_map[0] + 83068);
 8003e30:	e9c2 1102 	strd	r1, r1, [r2, #8]
    lstm_21_bias_array.format |= AI_FMT_FLAG_CONST;
 8003e34:	4a47      	ldr	r2, [pc, #284]	; (8003f54 <ai_network_init+0x1f4>)
 8003e36:	6811      	ldr	r1, [r2, #0]
 8003e38:	f041 4180 	orr.w	r1, r1, #1073741824	; 0x40000000
 8003e3c:	6011      	str	r1, [r2, #0]
    lstm_21_bias_array.data = AI_PTR(g_network_weights_map[0] + 123068);
 8003e3e:	f503 31f0 	add.w	r1, r3, #122880	; 0x1e000
 8003e42:	31bc      	adds	r1, #188	; 0xbc
    lstm_21_bias_array.data_start = AI_PTR(g_network_weights_map[0] + 123068);
 8003e44:	e9c2 1102 	strd	r1, r1, [r2, #8]
    lstm_22_kernel_array.format |= AI_FMT_FLAG_CONST;
 8003e48:	4a43      	ldr	r2, [pc, #268]	; (8003f58 <ai_network_init+0x1f8>)
 8003e4a:	6811      	ldr	r1, [r2, #0]
 8003e4c:	f041 4180 	orr.w	r1, r1, #1073741824	; 0x40000000
 8003e50:	6011      	str	r1, [r2, #0]
    lstm_22_kernel_array.data = AI_PTR(g_network_weights_map[0] + 123868);
 8003e52:	f503 31f1 	add.w	r1, r3, #123392	; 0x1e200
 8003e56:	f501 71ee 	add.w	r1, r1, #476	; 0x1dc
    lstm_22_kernel_array.data_start = AI_PTR(g_network_weights_map[0] + 123868);
 8003e5a:	e9c2 1102 	strd	r1, r1, [r2, #8]
    lstm_22_recurrent_array.format |= AI_FMT_FLAG_CONST;
 8003e5e:	4a3f      	ldr	r2, [pc, #252]	; (8003f5c <ai_network_init+0x1fc>)
 8003e60:	6811      	ldr	r1, [r2, #0]
 8003e62:	f041 4180 	orr.w	r1, r1, #1073741824	; 0x40000000
 8003e66:	6011      	str	r1, [r2, #0]
    lstm_22_recurrent_array.data = AI_PTR(g_network_weights_map[0] + 163868);
 8003e68:	f503 3120 	add.w	r1, r3, #163840	; 0x28000
 8003e6c:	311c      	adds	r1, #28
    lstm_22_recurrent_array.data_start = AI_PTR(g_network_weights_map[0] + 163868);
 8003e6e:	e9c2 1102 	strd	r1, r1, [r2, #8]
    lstm_22_bias_array.format |= AI_FMT_FLAG_CONST;
 8003e72:	4a3b      	ldr	r2, [pc, #236]	; (8003f60 <ai_network_init+0x200>)
 8003e74:	6811      	ldr	r1, [r2, #0]
    lstm_22_bias_array.data = AI_PTR(g_network_weights_map[0] + 203868);
 8003e76:	f503 3347 	add.w	r3, r3, #203776	; 0x31c00
    lstm_22_bias_array.format |= AI_FMT_FLAG_CONST;
 8003e7a:	f041 4180 	orr.w	r1, r1, #1073741824	; 0x40000000
 8003e7e:	6011      	str	r1, [r2, #0]
    lstm_22_bias_array.data = AI_PTR(g_network_weights_map[0] + 203868);
 8003e80:	f103 015c 	add.w	r1, r3, #92	; 0x5c
    lstm_22_bias_array.data_start = AI_PTR(g_network_weights_map[0] + 203868);
 8003e84:	e9c2 1102 	strd	r1, r1, [r2, #8]
    dense_20_dense_weights_array.format |= AI_FMT_FLAG_CONST;
 8003e88:	4a36      	ldr	r2, [pc, #216]	; (8003f64 <ai_network_init+0x204>)
    dense_20_dense_weights_array.data = AI_PTR(g_network_weights_map[0] + 204668);
 8003e8a:	f503 735f 	add.w	r3, r3, #892	; 0x37c
    dense_20_dense_weights_array.format |= AI_FMT_FLAG_CONST;
 8003e8e:	6811      	ldr	r1, [r2, #0]
    dense_20_dense_weights_array.data_start = AI_PTR(g_network_weights_map[0] + 204668);
 8003e90:	e9c2 3302 	strd	r3, r3, [r2, #8]
    dense_20_dense_weights_array.format |= AI_FMT_FLAG_CONST;
 8003e94:	f041 4180 	orr.w	r1, r1, #1073741824	; 0x40000000
 8003e98:	6011      	str	r1, [r2, #0]
  if (ai_platform_get_activations_map(g_network_activations_map, 1, params)) {
 8003e9a:	f8df 80fc 	ldr.w	r8, [pc, #252]	; 8003f98 <ai_network_init+0x238>
 8003e9e:	463a      	mov	r2, r7
 8003ea0:	2101      	movs	r1, #1
 8003ea2:	4640      	mov	r0, r8
 8003ea4:	f000 f986 	bl	80041b4 <ai_platform_get_activations_map>
 8003ea8:	4607      	mov	r7, r0
 8003eaa:	2800      	cmp	r0, #0
 8003eac:	d039      	beq.n	8003f22 <ai_network_init+0x1c2>
    input_0_output_array.data = AI_PTR(g_network_activations_map[0] + 192);
 8003eae:	f8d8 3000 	ldr.w	r3, [r8]
 8003eb2:	4a2d      	ldr	r2, [pc, #180]	; (8003f68 <ai_network_init+0x208>)
    lstm_20_output0_array.data = AI_PTR(g_network_activations_map[0] + 1600);
 8003eb4:	482d      	ldr	r0, [pc, #180]	; (8003f6c <ai_network_init+0x20c>)
    input_0_output_array.data = AI_PTR(g_network_activations_map[0] + 192);
 8003eb6:	f103 01c0 	add.w	r1, r3, #192	; 0xc0
    input_0_output_array.data_start = AI_PTR(g_network_activations_map[0] + 192);
 8003eba:	e9c2 1102 	strd	r1, r1, [r2, #8]
    lstm_20_scratch0_array.data = AI_PTR(g_network_activations_map[0] + 200);
 8003ebe:	492c      	ldr	r1, [pc, #176]	; (8003f70 <ai_network_init+0x210>)
 8003ec0:	f103 02c8 	add.w	r2, r3, #200	; 0xc8
    lstm_20_scratch0_array.data_start = AI_PTR(g_network_activations_map[0] + 200);
 8003ec4:	e9c1 2202 	strd	r2, r2, [r1, #8]
    lstm_20_output0_array.data = AI_PTR(g_network_activations_map[0] + 1600);
 8003ec8:	f503 61c8 	add.w	r1, r3, #1600	; 0x640
    lstm_20_output0_array.data_start = AI_PTR(g_network_activations_map[0] + 1600);
 8003ecc:	e9c0 1102 	strd	r1, r1, [r0, #8]
    lstm_21_scratch0_array.data = AI_PTR(g_network_activations_map[0] + 200);
 8003ed0:	4828      	ldr	r0, [pc, #160]	; (8003f74 <ai_network_init+0x214>)
    lstm_21_scratch0_array.data_start = AI_PTR(g_network_activations_map[0] + 200);
 8003ed2:	e9c0 2202 	strd	r2, r2, [r0, #8]
    lstm_21_output0_array.data = AI_PTR(g_network_activations_map[0] + 0);
 8003ed6:	4828      	ldr	r0, [pc, #160]	; (8003f78 <ai_network_init+0x218>)
    lstm_21_output0_array.data_start = AI_PTR(g_network_activations_map[0] + 0);
 8003ed8:	e9c0 3302 	strd	r3, r3, [r0, #8]
    lstm_22_scratch0_array.data = AI_PTR(g_network_activations_map[0] + 200);
 8003edc:	4827      	ldr	r0, [pc, #156]	; (8003f7c <ai_network_init+0x21c>)
    lstm_22_scratch0_array.data_start = AI_PTR(g_network_activations_map[0] + 200);
 8003ede:	e9c0 2202 	strd	r2, r2, [r0, #8]
    lstm_22_output0_array.data = AI_PTR(g_network_activations_map[0] + 1600);
 8003ee2:	4a27      	ldr	r2, [pc, #156]	; (8003f80 <ai_network_init+0x220>)
    lstm_22_output0_array.data_start = AI_PTR(g_network_activations_map[0] + 1600);
 8003ee4:	e9c2 1102 	strd	r1, r1, [r2, #8]
    dense_20_dense_output_array.data = AI_PTR(g_network_activations_map[0] + 0);
 8003ee8:	4a26      	ldr	r2, [pc, #152]	; (8003f84 <ai_network_init+0x224>)
    dense_20_dense_output_array.data_start = AI_PTR(g_network_activations_map[0] + 0);
 8003eea:	e9c2 3302 	strd	r3, r3, [r2, #8]
    dense_20_output_array.data = AI_PTR(g_network_activations_map[0] + 32);
 8003eee:	4a26      	ldr	r2, [pc, #152]	; (8003f88 <ai_network_init+0x228>)
 8003ef0:	f103 0120 	add.w	r1, r3, #32
    dense_20_output_array.data_start = AI_PTR(g_network_activations_map[0] + 32);
 8003ef4:	e9c2 1102 	strd	r1, r1, [r2, #8]
    dense_21_dense_output_array.data = AI_PTR(g_network_activations_map[0] + 0);
 8003ef8:	4a24      	ldr	r2, [pc, #144]	; (8003f8c <ai_network_init+0x22c>)
    dense_21_dense_output_array.data_start = AI_PTR(g_network_activations_map[0] + 0);
 8003efa:	e9c2 3302 	strd	r3, r3, [r2, #8]
    dense_21_output_array.data = AI_PTR(g_network_activations_map[0] + 4);
 8003efe:	4a24      	ldr	r2, [pc, #144]	; (8003f90 <ai_network_init+0x230>)
 8003f00:	3304      	adds	r3, #4
    dense_21_output_array.data_start = AI_PTR(g_network_activations_map[0] + 4);
 8003f02:	e9c2 3302 	strd	r3, r3, [r2, #8]

  ai_bool ok = true;
  ok &= network_configure_weights(net_ctx, params);
  ok &= network_configure_activations(net_ctx, params);

  ok &= ai_platform_network_post_init(network);
 8003f06:	4630      	mov	r0, r6
 8003f08:	f000 fda8 	bl	8004a5c <ai_platform_network_post_init>
 8003f0c:	4038      	ands	r0, r7
 8003f0e:	4005      	ands	r5, r0
 8003f10:	b2e8      	uxtb	r0, r5

  return ok;
}
 8003f12:	e8bd 81f0 	ldmia.w	sp!, {r4, r5, r6, r7, r8, pc}
  AI_ERROR_TRAP(net_ctx, INIT_FAILED, NETWORK_WEIGHTS);
 8003f16:	2212      	movs	r2, #18
 8003f18:	2130      	movs	r1, #48	; 0x30
 8003f1a:	4620      	mov	r0, r4
 8003f1c:	f000 fa2e 	bl	800437c <ai_platform_network_set_error>
  return false;
 8003f20:	e7bb      	b.n	8003e9a <ai_network_init+0x13a>
  AI_ERROR_TRAP(net_ctx, INIT_FAILED, NETWORK_ACTIVATIONS);
 8003f22:	2213      	movs	r2, #19
 8003f24:	2130      	movs	r1, #48	; 0x30
 8003f26:	4620      	mov	r0, r4
 8003f28:	f000 fa28 	bl	800437c <ai_platform_network_set_error>
  return false;
 8003f2c:	e7eb      	b.n	8003f06 <ai_network_init+0x1a6>
 8003f2e:	bf00      	nop
 8003f30:	200005ec 	.word	0x200005ec
 8003f34:	2000074c 	.word	0x2000074c
 8003f38:	200006d8 	.word	0x200006d8
 8003f3c:	20000868 	.word	0x20000868
 8003f40:	20000930 	.word	0x20000930
 8003f44:	20000904 	.word	0x20000904
 8003f48:	2000083c 	.word	0x2000083c
 8003f4c:	200009b4 	.word	0x200009b4
 8003f50:	20000a50 	.word	0x20000a50
 8003f54:	20000988 	.word	0x20000988
 8003f58:	20000ad4 	.word	0x20000ad4
 8003f5c:	20000b70 	.word	0x20000b70
 8003f60:	20000aa8 	.word	0x20000aa8
 8003f64:	20000660 	.word	0x20000660
 8003f68:	20000810 	.word	0x20000810
 8003f6c:	200008d8 	.word	0x200008d8
 8003f70:	2000095c 	.word	0x2000095c
 8003f74:	20000a7c 	.word	0x20000a7c
 8003f78:	20000a24 	.word	0x20000a24
 8003f7c:	20000b9c 	.word	0x20000b9c
 8003f80:	20000b44 	.word	0x20000b44
 8003f84:	20000634 	.word	0x20000634
 8003f88:	200006ac 	.word	0x200006ac
 8003f8c:	20000720 	.word	0x20000720
 8003f90:	20000798 	.word	0x20000798
 8003f94:	20001748 	.word	0x20001748
 8003f98:	20001744 	.word	0x20001744

08003f9c <ai_network_create_and_init>:
{
 8003f9c:	e92d 43f0 	stmdb	sp!, {r4, r5, r6, r7, r8, r9, lr}
 8003fa0:	4688      	mov	r8, r1
 8003fa2:	b08f      	sub	sp, #60	; 0x3c
    err = ai_network_create(network, AI_NETWORK_DATA_CONFIG);
 8003fa4:	2100      	movs	r1, #0
{
 8003fa6:	4606      	mov	r6, r0
 8003fa8:	4617      	mov	r7, r2
    err = ai_network_create(network, AI_NETWORK_DATA_CONFIG);
 8003faa:	f7ff feb7 	bl	8003d1c <ai_network_create>
    if (err.type != AI_ERROR_NONE)
 8003fae:	f010 09ff 	ands.w	r9, r0, #255	; 0xff
    err = ai_network_create(network, AI_NETWORK_DATA_CONFIG);
 8003fb2:	4604      	mov	r4, r0
    if (err.type != AI_ERROR_NONE)
 8003fb4:	d107      	bne.n	8003fc6 <ai_network_create_and_init+0x2a>
    if (ai_network_data_params_get(&params) != true) {
 8003fb6:	4668      	mov	r0, sp
 8003fb8:	f000 f838 	bl	800402c <ai_network_data_params_get>
 8003fbc:	b938      	cbnz	r0, 8003fce <ai_network_create_and_init+0x32>
  return ai_platform_network_get_error(network);
 8003fbe:	6830      	ldr	r0, [r6, #0]
 8003fc0:	f000 f96e 	bl	80042a0 <ai_platform_network_get_error>
 8003fc4:	4604      	mov	r4, r0
}
 8003fc6:	4620      	mov	r0, r4
 8003fc8:	b00f      	add	sp, #60	; 0x3c
 8003fca:	e8bd 83f0 	ldmia.w	sp!, {r4, r5, r6, r7, r8, r9, pc}
    if (activations) {
 8003fce:	f1b8 0f00 	cmp.w	r8, #0
 8003fd2:	d11a      	bne.n	800400a <ai_network_create_and_init+0x6e>
    if (weights) {
 8003fd4:	bb3f      	cbnz	r7, 8004026 <ai_network_create_and_init+0x8a>
    if (ai_network_init(*network, &params) != true) {
 8003fd6:	6830      	ldr	r0, [r6, #0]
 8003fd8:	4669      	mov	r1, sp
 8003fda:	f7ff fec1 	bl	8003d60 <ai_network_init>
 8003fde:	b928      	cbnz	r0, 8003fec <ai_network_create_and_init+0x50>
  return ai_platform_network_get_error(network);
 8003fe0:	6830      	ldr	r0, [r6, #0]
 8003fe2:	f000 f95d 	bl	80042a0 <ai_platform_network_get_error>
 8003fe6:	fa5f f980 	uxtb.w	r9, r0
 8003fea:	4604      	mov	r4, r0
    return err;
 8003fec:	f369 0407 	bfi	r4, r9, #0, #8
 8003ff0:	e7e9      	b.n	8003fc6 <ai_network_create_and_init+0x2a>
            AI_BUFFER_ARRAY_ITEM_SET_ADDRESS(&params.map_activations, idx, activations[idx]);
 8003ff2:	f858 2025 	ldr.w	r2, [r8, r5, lsl #2]
 8003ff6:	4629      	mov	r1, r5
 8003ff8:	a803      	add	r0, sp, #12
 8003ffa:	f000 f873 	bl	80040e4 <ai_buffer_array_item_set_address>
        for (int idx=0;idx<params.map_activations.size;idx++)
 8003ffe:	3501      	adds	r5, #1
 8004000:	f8bd 300e 	ldrh.w	r3, [sp, #14]
 8004004:	42ab      	cmp	r3, r5
 8004006:	dcf4      	bgt.n	8003ff2 <ai_network_create_and_init+0x56>
 8004008:	e7e4      	b.n	8003fd4 <ai_network_create_and_init+0x38>
 800400a:	464d      	mov	r5, r9
 800400c:	e7f8      	b.n	8004000 <ai_network_create_and_init+0x64>
            AI_BUFFER_ARRAY_ITEM_SET_ADDRESS(&params.map_weights, idx, weights[idx]);
 800400e:	f857 2025 	ldr.w	r2, [r7, r5, lsl #2]
 8004012:	4629      	mov	r1, r5
 8004014:	a801      	add	r0, sp, #4
 8004016:	f000 f865 	bl	80040e4 <ai_buffer_array_item_set_address>
        for (int idx=0;idx<params.map_weights.size;idx++)
 800401a:	3501      	adds	r5, #1
 800401c:	f8bd 3006 	ldrh.w	r3, [sp, #6]
 8004020:	42ab      	cmp	r3, r5
 8004022:	dcf4      	bgt.n	800400e <ai_network_create_and_init+0x72>
 8004024:	e7d7      	b.n	8003fd6 <ai_network_create_and_init+0x3a>
 8004026:	2500      	movs	r5, #0
 8004028:	e7f8      	b.n	800401c <ai_network_create_and_init+0x80>
	...

0800402c <ai_network_data_params_get>:
 * @ingroup network_data
 * @return true if a valid configuration is present, false otherwise
 */
AI_API_ENTRY
ai_bool ai_network_data_params_get(ai_network_params* params)
{
 800402c:	b530      	push	{r4, r5, lr}
  if (!params) return false;
 800402e:	4603      	mov	r3, r0
{
 8004030:	b085      	sub	sp, #20
  if (!params) return false;
 8004032:	b170      	cbz	r0, 8004052 <ai_network_data_params_get+0x26>
  
  const ai_buffer_array map_activations = 
 8004034:	4c08      	ldr	r4, [pc, #32]	; (8004058 <ai_network_data_params_get+0x2c>)
 8004036:	e894 0003 	ldmia.w	r4, {r0, r1}
 800403a:	466a      	mov	r2, sp
 800403c:	e882 0003 	stmia.w	r2, {r0, r1}
    AI_BUFFER_ARRAY_OBJ_INIT(AI_FLAG_NONE, AI_NETWORK_DATA_ACTIVATIONS_COUNT, g_network_data_map_activations);
  
  const ai_buffer_array map_weights = 
 8004040:	e9d4 0102 	ldrd	r0, r1, [r4, #8]
 8004044:	ad02      	add	r5, sp, #8
 8004046:	e885 0003 	stmia.w	r5, {r0, r1}
    AI_BUFFER_ARRAY_OBJ_INIT(AI_FLAG_NONE, AI_NETWORK_DATA_WEIGHTS_COUNT, g_network_data_map_weights);

  return ai_platform_bind_network_params(params, &map_weights, &map_activations);
 800404a:	4629      	mov	r1, r5
 800404c:	4618      	mov	r0, r3
 800404e:	f000 f905 	bl	800425c <ai_platform_bind_network_params>
}
 8004052:	b005      	add	sp, #20
 8004054:	bd30      	pop	{r4, r5, pc}
 8004056:	bf00      	nop
 8004058:	0800aa44 	.word	0x0800aa44

0800405c <ai_version_get>:
 800405c:	0212      	lsls	r2, r2, #8
 800405e:	ea42 4201 	orr.w	r2, r2, r1, lsl #16
 8004062:	ea42 6000 	orr.w	r0, r2, r0, lsl #24
 8004066:	4770      	bx	lr

08004068 <ai_buffer_get_size>:
 8004068:	b378      	cbz	r0, 80040ca <ai_buffer_get_size+0x62>
 800406a:	b410      	push	{r4}
 800406c:	6803      	ldr	r3, [r0, #0]
 800406e:	4a17      	ldr	r2, [pc, #92]	; (80040cc <ai_buffer_get_size+0x64>)
 8004070:	f023 437e 	bic.w	r3, r3, #4261412864	; 0xfe000000
 8004074:	f423 0300 	bic.w	r3, r3, #8388608	; 0x800000
 8004078:	4293      	cmp	r3, r2
 800407a:	d01e      	beq.n	80040ba <ai_buffer_get_size+0x52>
 800407c:	6984      	ldr	r4, [r0, #24]
 800407e:	6862      	ldr	r2, [r4, #4]
 8004080:	7d03      	ldrb	r3, [r0, #20]
 8004082:	6941      	ldr	r1, [r0, #20]
 8004084:	f1a3 0301 	sub.w	r3, r3, #1
 8004088:	fab3 f383 	clz	r3, r3
 800408c:	095b      	lsrs	r3, r3, #5
 800408e:	ebb3 2f11 	cmp.w	r3, r1, lsr #8
 8004092:	f3c1 2017 	ubfx	r0, r1, #8, #24
 8004096:	da0b      	bge.n	80040b0 <ai_buffer_get_size+0x48>
 8004098:	2b01      	cmp	r3, #1
 800409a:	d102      	bne.n	80040a2 <ai_buffer_get_size+0x3a>
 800409c:	2802      	cmp	r0, #2
 800409e:	d007      	beq.n	80040b0 <ai_buffer_get_size+0x48>
 80040a0:	2302      	movs	r3, #2
 80040a2:	f854 1023 	ldr.w	r1, [r4, r3, lsl #2]
 80040a6:	3301      	adds	r3, #1
 80040a8:	4298      	cmp	r0, r3
 80040aa:	fb01 f202 	mul.w	r2, r1, r2
 80040ae:	d1f3      	bne.n	8004098 <ai_buffer_get_size+0x30>
 80040b0:	ea22 70e2 	bic.w	r0, r2, r2, asr #31
 80040b4:	f85d 4b04 	ldr.w	r4, [sp], #4
 80040b8:	4770      	bx	lr
 80040ba:	2900      	cmp	r1, #0
 80040bc:	d0de      	beq.n	800407c <ai_buffer_get_size+0x14>
 80040be:	6984      	ldr	r4, [r0, #24]
 80040c0:	6863      	ldr	r3, [r4, #4]
 80040c2:	331f      	adds	r3, #31
 80040c4:	f023 021f 	bic.w	r2, r3, #31
 80040c8:	e7da      	b.n	8004080 <ai_buffer_get_size+0x18>
 80040ca:	4770      	bx	lr
 80040cc:	000400c0 	.word	0x000400c0

080040d0 <ai_buffer_array_sane>:
 80040d0:	b138      	cbz	r0, 80040e2 <ai_buffer_array_sane+0x12>
 80040d2:	6843      	ldr	r3, [r0, #4]
 80040d4:	b123      	cbz	r3, 80040e0 <ai_buffer_array_sane+0x10>
 80040d6:	8840      	ldrh	r0, [r0, #2]
 80040d8:	3800      	subs	r0, #0
 80040da:	bf18      	it	ne
 80040dc:	2001      	movne	r0, #1
 80040de:	4770      	bx	lr
 80040e0:	4618      	mov	r0, r3
 80040e2:	4770      	bx	lr

080040e4 <ai_buffer_array_item_set_address>:
 80040e4:	b150      	cbz	r0, 80040fc <ai_buffer_array_item_set_address+0x18>
 80040e6:	6843      	ldr	r3, [r0, #4]
 80040e8:	b14b      	cbz	r3, 80040fe <ai_buffer_array_item_set_address+0x1a>
 80040ea:	8840      	ldrh	r0, [r0, #2]
 80040ec:	b900      	cbnz	r0, 80040f0 <ai_buffer_array_item_set_address+0xc>
 80040ee:	4770      	bx	lr
 80040f0:	ebc1 01c1 	rsb	r1, r1, r1, lsl #3
 80040f4:	eb03 0181 	add.w	r1, r3, r1, lsl #2
 80040f8:	2001      	movs	r0, #1
 80040fa:	604a      	str	r2, [r1, #4]
 80040fc:	4770      	bx	lr
 80040fe:	4618      	mov	r0, r3
 8004100:	4770      	bx	lr
 8004102:	bf00      	nop

08004104 <_ai_platform_acquire_crc>:
 8004104:	2001      	movs	r0, #1
 8004106:	4770      	bx	lr

08004108 <_ai_platform_release_crc>:
 8004108:	4770      	bx	lr
 800410a:	bf00      	nop

0800410c <ai_platform_get_weights_map>:
 800410c:	2a00      	cmp	r2, #0
 800410e:	d037      	beq.n	8004180 <ai_platform_get_weights_map+0x74>
 8004110:	b5f8      	push	{r3, r4, r5, r6, r7, lr}
 8004112:	4604      	mov	r4, r0
 8004114:	b1a0      	cbz	r0, 8004140 <ai_platform_get_weights_map+0x34>
 8004116:	460f      	mov	r7, r1
 8004118:	b191      	cbz	r1, 8004140 <ai_platform_get_weights_map+0x34>
 800411a:	4b25      	ldr	r3, [pc, #148]	; (80041b0 <ai_platform_get_weights_map+0xa4>)
 800411c:	6810      	ldr	r0, [r2, #0]
 800411e:	4298      	cmp	r0, r3
 8004120:	4615      	mov	r5, r2
 8004122:	d00f      	beq.n	8004144 <ai_platform_get_weights_map+0x38>
 8004124:	6855      	ldr	r5, [r2, #4]
 8004126:	b15d      	cbz	r5, 8004140 <ai_platform_get_weights_map+0x34>
 8004128:	682e      	ldr	r6, [r5, #0]
 800412a:	429e      	cmp	r6, r3
 800412c:	d02a      	beq.n	8004184 <ai_platform_get_weights_map+0x78>
 800412e:	f1a1 0001 	sub.w	r0, r1, #1
 8004132:	6025      	str	r5, [r4, #0]
 8004134:	fab0 f080 	clz	r0, r0
 8004138:	0940      	lsrs	r0, r0, #5
 800413a:	bdf8      	pop	{r3, r4, r5, r6, r7, pc}
 800413c:	42a7      	cmp	r7, r4
 800413e:	d034      	beq.n	80041aa <ai_platform_get_weights_map+0x9e>
 8004140:	2000      	movs	r0, #0
 8004142:	bdf8      	pop	{r3, r4, r5, r6, r7, pc}
 8004144:	1d10      	adds	r0, r2, #4
 8004146:	f7ff ffc3 	bl	80040d0 <ai_buffer_array_sane>
 800414a:	2800      	cmp	r0, #0
 800414c:	d0f8      	beq.n	8004140 <ai_platform_get_weights_map+0x34>
 800414e:	88eb      	ldrh	r3, [r5, #6]
 8004150:	429f      	cmp	r7, r3
 8004152:	d1f5      	bne.n	8004140 <ai_platform_get_weights_map+0x34>
 8004154:	f04f 0e00 	mov.w	lr, #0
 8004158:	1f23      	subs	r3, r4, #4
 800415a:	4670      	mov	r0, lr
 800415c:	68aa      	ldr	r2, [r5, #8]
 800415e:	eb02 0c0e 	add.w	ip, r2, lr
 8004162:	f10e 0e1c 	add.w	lr, lr, #28
 8004166:	f8dc 4004 	ldr.w	r4, [ip, #4]
 800416a:	b124      	cbz	r4, 8004176 <ai_platform_get_weights_map+0x6a>
 800416c:	3001      	adds	r0, #1
 800416e:	4287      	cmp	r7, r0
 8004170:	f843 4f04 	str.w	r4, [r3, #4]!
 8004174:	d1f2      	bne.n	800415c <ai_platform_get_weights_map+0x50>
 8004176:	1a38      	subs	r0, r7, r0
 8004178:	fab0 f080 	clz	r0, r0
 800417c:	0940      	lsrs	r0, r0, #5
 800417e:	bdf8      	pop	{r3, r4, r5, r6, r7, pc}
 8004180:	2000      	movs	r0, #0
 8004182:	4770      	bx	lr
 8004184:	1f23      	subs	r3, r4, #4
 8004186:	4628      	mov	r0, r5
 8004188:	2400      	movs	r4, #0
 800418a:	e000      	b.n	800418e <ai_platform_get_weights_map+0x82>
 800418c:	4614      	mov	r4, r2
 800418e:	f850 2f04 	ldr.w	r2, [r0, #4]!
 8004192:	42b2      	cmp	r2, r6
 8004194:	d0d2      	beq.n	800413c <ai_platform_get_weights_map+0x30>
 8004196:	f843 2f04 	str.w	r2, [r3, #4]!
 800419a:	1c62      	adds	r2, r4, #1
 800419c:	4297      	cmp	r7, r2
 800419e:	d1f5      	bne.n	800418c <ai_platform_get_weights_map+0x80>
 80041a0:	3402      	adds	r4, #2
 80041a2:	f855 3024 	ldr.w	r3, [r5, r4, lsl #2]
 80041a6:	42b3      	cmp	r3, r6
 80041a8:	d1ca      	bne.n	8004140 <ai_platform_get_weights_map+0x34>
 80041aa:	2001      	movs	r0, #1
 80041ac:	bdf8      	pop	{r3, r4, r5, r6, r7, pc}
 80041ae:	bf00      	nop
 80041b0:	a1facade 	.word	0xa1facade

080041b4 <ai_platform_get_activations_map>:
 80041b4:	2a00      	cmp	r2, #0
 80041b6:	d038      	beq.n	800422a <ai_platform_get_activations_map+0x76>
 80041b8:	b5f8      	push	{r3, r4, r5, r6, r7, lr}
 80041ba:	4604      	mov	r4, r0
 80041bc:	b1a0      	cbz	r0, 80041e8 <ai_platform_get_activations_map+0x34>
 80041be:	460f      	mov	r7, r1
 80041c0:	b191      	cbz	r1, 80041e8 <ai_platform_get_activations_map+0x34>
 80041c2:	4b25      	ldr	r3, [pc, #148]	; (8004258 <ai_platform_get_activations_map+0xa4>)
 80041c4:	6810      	ldr	r0, [r2, #0]
 80041c6:	4298      	cmp	r0, r3
 80041c8:	4615      	mov	r5, r2
 80041ca:	d00f      	beq.n	80041ec <ai_platform_get_activations_map+0x38>
 80041cc:	6a15      	ldr	r5, [r2, #32]
 80041ce:	b15d      	cbz	r5, 80041e8 <ai_platform_get_activations_map+0x34>
 80041d0:	682e      	ldr	r6, [r5, #0]
 80041d2:	429e      	cmp	r6, r3
 80041d4:	d02b      	beq.n	800422e <ai_platform_get_activations_map+0x7a>
 80041d6:	f1a1 0001 	sub.w	r0, r1, #1
 80041da:	6025      	str	r5, [r4, #0]
 80041dc:	fab0 f080 	clz	r0, r0
 80041e0:	0940      	lsrs	r0, r0, #5
 80041e2:	bdf8      	pop	{r3, r4, r5, r6, r7, pc}
 80041e4:	42a7      	cmp	r7, r4
 80041e6:	d035      	beq.n	8004254 <ai_platform_get_activations_map+0xa0>
 80041e8:	2000      	movs	r0, #0
 80041ea:	bdf8      	pop	{r3, r4, r5, r6, r7, pc}
 80041ec:	f102 000c 	add.w	r0, r2, #12
 80041f0:	f7ff ff6e 	bl	80040d0 <ai_buffer_array_sane>
 80041f4:	2800      	cmp	r0, #0
 80041f6:	d0f7      	beq.n	80041e8 <ai_platform_get_activations_map+0x34>
 80041f8:	89eb      	ldrh	r3, [r5, #14]
 80041fa:	429f      	cmp	r7, r3
 80041fc:	d1f4      	bne.n	80041e8 <ai_platform_get_activations_map+0x34>
 80041fe:	f04f 0e00 	mov.w	lr, #0
 8004202:	1f23      	subs	r3, r4, #4
 8004204:	4670      	mov	r0, lr
 8004206:	692a      	ldr	r2, [r5, #16]
 8004208:	eb02 0c0e 	add.w	ip, r2, lr
 800420c:	f10e 0e1c 	add.w	lr, lr, #28
 8004210:	f8dc 4004 	ldr.w	r4, [ip, #4]
 8004214:	b124      	cbz	r4, 8004220 <ai_platform_get_activations_map+0x6c>
 8004216:	3001      	adds	r0, #1
 8004218:	4287      	cmp	r7, r0
 800421a:	f843 4f04 	str.w	r4, [r3, #4]!
 800421e:	d1f2      	bne.n	8004206 <ai_platform_get_activations_map+0x52>
 8004220:	1a38      	subs	r0, r7, r0
 8004222:	fab0 f080 	clz	r0, r0
 8004226:	0940      	lsrs	r0, r0, #5
 8004228:	bdf8      	pop	{r3, r4, r5, r6, r7, pc}
 800422a:	2000      	movs	r0, #0
 800422c:	4770      	bx	lr
 800422e:	1f23      	subs	r3, r4, #4
 8004230:	4628      	mov	r0, r5
 8004232:	2400      	movs	r4, #0
 8004234:	e000      	b.n	8004238 <ai_platform_get_activations_map+0x84>
 8004236:	4614      	mov	r4, r2
 8004238:	f850 2f04 	ldr.w	r2, [r0, #4]!
 800423c:	42b2      	cmp	r2, r6
 800423e:	d0d1      	beq.n	80041e4 <ai_platform_get_activations_map+0x30>
 8004240:	f843 2f04 	str.w	r2, [r3, #4]!
 8004244:	1c62      	adds	r2, r4, #1
 8004246:	4297      	cmp	r7, r2
 8004248:	d1f5      	bne.n	8004236 <ai_platform_get_activations_map+0x82>
 800424a:	3402      	adds	r4, #2
 800424c:	f855 3024 	ldr.w	r3, [r5, r4, lsl #2]
 8004250:	42b3      	cmp	r3, r6
 8004252:	d1c9      	bne.n	80041e8 <ai_platform_get_activations_map+0x34>
 8004254:	2001      	movs	r0, #1
 8004256:	bdf8      	pop	{r3, r4, r5, r6, r7, pc}
 8004258:	a1facade 	.word	0xa1facade

0800425c <ai_platform_bind_network_params>:
 800425c:	b1a0      	cbz	r0, 8004288 <ai_platform_bind_network_params+0x2c>
 800425e:	b1b1      	cbz	r1, 800428e <ai_platform_bind_network_params+0x32>
 8004260:	b1c2      	cbz	r2, 8004294 <ai_platform_bind_network_params+0x38>
 8004262:	b410      	push	{r4}
 8004264:	4603      	mov	r3, r0
 8004266:	4c0d      	ldr	r4, [pc, #52]	; (800429c <ai_platform_bind_network_params+0x40>)
 8004268:	f843 4b04 	str.w	r4, [r3], #4
 800426c:	f100 0c0c 	add.w	ip, r0, #12
 8004270:	c903      	ldmia	r1, {r0, r1}
 8004272:	e883 0003 	stmia.w	r3, {r0, r1}
 8004276:	e892 0003 	ldmia.w	r2, {r0, r1}
 800427a:	e88c 0003 	stmia.w	ip, {r0, r1}
 800427e:	2301      	movs	r3, #1
 8004280:	4618      	mov	r0, r3
 8004282:	f85d 4b04 	ldr.w	r4, [sp], #4
 8004286:	4770      	bx	lr
 8004288:	4603      	mov	r3, r0
 800428a:	4618      	mov	r0, r3
 800428c:	4770      	bx	lr
 800428e:	460b      	mov	r3, r1
 8004290:	4618      	mov	r0, r3
 8004292:	4770      	bx	lr
 8004294:	4613      	mov	r3, r2
 8004296:	4618      	mov	r0, r3
 8004298:	4770      	bx	lr
 800429a:	bf00      	nop
 800429c:	a1facade 	.word	0xa1facade

080042a0 <ai_platform_network_get_error>:
 80042a0:	b510      	push	{r4, lr}
 80042a2:	b1f0      	cbz	r0, 80042e2 <ai_platform_network_get_error+0x42>
 80042a4:	4b2f      	ldr	r3, [pc, #188]	; (8004364 <ai_platform_network_get_error+0xc4>)
 80042a6:	6802      	ldr	r2, [r0, #0]
 80042a8:	429a      	cmp	r2, r3
 80042aa:	4604      	mov	r4, r0
 80042ac:	d119      	bne.n	80042e2 <ai_platform_network_get_error+0x42>
 80042ae:	f7ff ff29 	bl	8004104 <_ai_platform_acquire_crc>
 80042b2:	4b2d      	ldr	r3, [pc, #180]	; (8004368 <ai_platform_network_get_error+0xc8>)
 80042b4:	681b      	ldr	r3, [r3, #0]
 80042b6:	f403 63e0 	and.w	r3, r3, #1792	; 0x700
 80042ba:	f5b3 6f80 	cmp.w	r3, #1024	; 0x400
 80042be:	d03c      	beq.n	800433a <ai_platform_network_get_error+0x9a>
 80042c0:	4a2a      	ldr	r2, [pc, #168]	; (800436c <ai_platform_network_get_error+0xcc>)
 80042c2:	2301      	movs	r3, #1
 80042c4:	f8c2 3c08 	str.w	r3, [r2, #3080]	; 0xc08
 80042c8:	f8d2 3c08 	ldr.w	r3, [r2, #3080]	; 0xc08
 80042cc:	2b00      	cmp	r3, #0
 80042ce:	d1fb      	bne.n	80042c8 <ai_platform_network_get_error+0x28>
 80042d0:	4b27      	ldr	r3, [pc, #156]	; (8004370 <ai_platform_network_get_error+0xd0>)
 80042d2:	f8c2 3c00 	str.w	r3, [r2, #3072]	; 0xc00
 80042d6:	f8d2 2c00 	ldr.w	r2, [r2, #3072]	; 0xc00
 80042da:	4b26      	ldr	r3, [pc, #152]	; (8004374 <ai_platform_network_get_error+0xd4>)
 80042dc:	429a      	cmp	r2, r3
 80042de:	d038      	beq.n	8004352 <ai_platform_network_get_error+0xb2>
 80042e0:	e7fe      	b.n	80042e0 <ai_platform_network_get_error+0x40>
 80042e2:	f7ff ff0f 	bl	8004104 <_ai_platform_acquire_crc>
 80042e6:	4b20      	ldr	r3, [pc, #128]	; (8004368 <ai_platform_network_get_error+0xc8>)
 80042e8:	681b      	ldr	r3, [r3, #0]
 80042ea:	f403 63e0 	and.w	r3, r3, #1792	; 0x700
 80042ee:	f5b3 6f80 	cmp.w	r3, #1024	; 0x400
 80042f2:	d010      	beq.n	8004316 <ai_platform_network_get_error+0x76>
 80042f4:	4a1d      	ldr	r2, [pc, #116]	; (800436c <ai_platform_network_get_error+0xcc>)
 80042f6:	2301      	movs	r3, #1
 80042f8:	f8c2 3c08 	str.w	r3, [r2, #3080]	; 0xc08
 80042fc:	f8d2 3c08 	ldr.w	r3, [r2, #3080]	; 0xc08
 8004300:	2b00      	cmp	r3, #0
 8004302:	d1fb      	bne.n	80042fc <ai_platform_network_get_error+0x5c>
 8004304:	4b1a      	ldr	r3, [pc, #104]	; (8004370 <ai_platform_network_get_error+0xd0>)
 8004306:	f8c2 3c00 	str.w	r3, [r2, #3072]	; 0xc00
 800430a:	f8d2 2c00 	ldr.w	r2, [r2, #3072]	; 0xc00
 800430e:	4b19      	ldr	r3, [pc, #100]	; (8004374 <ai_platform_network_get_error+0xd4>)
 8004310:	429a      	cmp	r2, r3
 8004312:	d00d      	beq.n	8004330 <ai_platform_network_get_error+0x90>
 8004314:	e7fe      	b.n	8004314 <ai_platform_network_get_error+0x74>
 8004316:	4a18      	ldr	r2, [pc, #96]	; (8004378 <ai_platform_network_get_error+0xd8>)
 8004318:	2301      	movs	r3, #1
 800431a:	6093      	str	r3, [r2, #8]
 800431c:	6893      	ldr	r3, [r2, #8]
 800431e:	2b00      	cmp	r3, #0
 8004320:	d1fc      	bne.n	800431c <ai_platform_network_get_error+0x7c>
 8004322:	4b13      	ldr	r3, [pc, #76]	; (8004370 <ai_platform_network_get_error+0xd0>)
 8004324:	6013      	str	r3, [r2, #0]
 8004326:	6812      	ldr	r2, [r2, #0]
 8004328:	4b12      	ldr	r3, [pc, #72]	; (8004374 <ai_platform_network_get_error+0xd4>)
 800432a:	429a      	cmp	r2, r3
 800432c:	d000      	beq.n	8004330 <ai_platform_network_get_error+0x90>
 800432e:	e7fe      	b.n	800432e <ai_platform_network_get_error+0x8e>
 8004330:	f7ff feea 	bl	8004108 <_ai_platform_release_crc>
 8004334:	f241 0010 	movw	r0, #4112	; 0x1010
 8004338:	bd10      	pop	{r4, pc}
 800433a:	4a0f      	ldr	r2, [pc, #60]	; (8004378 <ai_platform_network_get_error+0xd8>)
 800433c:	2301      	movs	r3, #1
 800433e:	6093      	str	r3, [r2, #8]
 8004340:	6893      	ldr	r3, [r2, #8]
 8004342:	2b00      	cmp	r3, #0
 8004344:	d1fc      	bne.n	8004340 <ai_platform_network_get_error+0xa0>
 8004346:	4b0a      	ldr	r3, [pc, #40]	; (8004370 <ai_platform_network_get_error+0xd0>)
 8004348:	6013      	str	r3, [r2, #0]
 800434a:	6812      	ldr	r2, [r2, #0]
 800434c:	4b09      	ldr	r3, [pc, #36]	; (8004374 <ai_platform_network_get_error+0xd4>)
 800434e:	429a      	cmp	r2, r3
 8004350:	d107      	bne.n	8004362 <ai_platform_network_get_error+0xc2>
 8004352:	f7ff fed9 	bl	8004108 <_ai_platform_release_crc>
 8004356:	f104 0010 	add.w	r0, r4, #16
 800435a:	e8bd 4010 	ldmia.w	sp!, {r4, lr}
 800435e:	f000 bc07 	b.w	8004b70 <core_get_error>
 8004362:	e7fe      	b.n	8004362 <ai_platform_network_get_error+0xc2>
 8004364:	a1c00100 	.word	0xa1c00100
 8004368:	e0042000 	.word	0xe0042000
 800436c:	58024000 	.word	0x58024000
 8004370:	f407a5c2 	.word	0xf407a5c2
 8004374:	b5e8b5cd 	.word	0xb5e8b5cd
 8004378:	40023000 	.word	0x40023000

0800437c <ai_platform_network_set_error>:
 800437c:	b110      	cbz	r0, 8004384 <ai_platform_network_set_error+0x8>
 800437e:	3010      	adds	r0, #16
 8004380:	f000 bbfc 	b.w	8004b7c <core_set_error>
 8004384:	4770      	bx	lr
 8004386:	bf00      	nop

08004388 <ai_platform_inputs_get>:
 8004388:	e92d 4ff0 	stmdb	sp!, {r4, r5, r6, r7, r8, r9, sl, fp, lr}
 800438c:	b085      	sub	sp, #20
 800438e:	9102      	str	r1, [sp, #8]
 8004390:	b1f0      	cbz	r0, 80043d0 <ai_platform_inputs_get+0x48>
 8004392:	4b62      	ldr	r3, [pc, #392]	; (800451c <ai_platform_inputs_get+0x194>)
 8004394:	6802      	ldr	r2, [r0, #0]
 8004396:	429a      	cmp	r2, r3
 8004398:	4607      	mov	r7, r0
 800439a:	d119      	bne.n	80043d0 <ai_platform_inputs_get+0x48>
 800439c:	f7ff feb2 	bl	8004104 <_ai_platform_acquire_crc>
 80043a0:	4b5f      	ldr	r3, [pc, #380]	; (8004520 <ai_platform_inputs_get+0x198>)
 80043a2:	681b      	ldr	r3, [r3, #0]
 80043a4:	f403 63e0 	and.w	r3, r3, #1792	; 0x700
 80043a8:	f5b3 6f80 	cmp.w	r3, #1024	; 0x400
 80043ac:	d03d      	beq.n	800442a <ai_platform_inputs_get+0xa2>
 80043ae:	4a5d      	ldr	r2, [pc, #372]	; (8004524 <ai_platform_inputs_get+0x19c>)
 80043b0:	2301      	movs	r3, #1
 80043b2:	f8c2 3c08 	str.w	r3, [r2, #3080]	; 0xc08
 80043b6:	f8d2 3c08 	ldr.w	r3, [r2, #3080]	; 0xc08
 80043ba:	2b00      	cmp	r3, #0
 80043bc:	d1fb      	bne.n	80043b6 <ai_platform_inputs_get+0x2e>
 80043be:	4b5a      	ldr	r3, [pc, #360]	; (8004528 <ai_platform_inputs_get+0x1a0>)
 80043c0:	f8c2 3c00 	str.w	r3, [r2, #3072]	; 0xc00
 80043c4:	f8d2 2c00 	ldr.w	r2, [r2, #3072]	; 0xc00
 80043c8:	4b58      	ldr	r3, [pc, #352]	; (800452c <ai_platform_inputs_get+0x1a4>)
 80043ca:	429a      	cmp	r2, r3
 80043cc:	d039      	beq.n	8004442 <ai_platform_inputs_get+0xba>
 80043ce:	e7fe      	b.n	80043ce <ai_platform_inputs_get+0x46>
 80043d0:	f7ff fe98 	bl	8004104 <_ai_platform_acquire_crc>
 80043d4:	4b52      	ldr	r3, [pc, #328]	; (8004520 <ai_platform_inputs_get+0x198>)
 80043d6:	681b      	ldr	r3, [r3, #0]
 80043d8:	f403 63e0 	and.w	r3, r3, #1792	; 0x700
 80043dc:	f5b3 6f80 	cmp.w	r3, #1024	; 0x400
 80043e0:	d010      	beq.n	8004404 <ai_platform_inputs_get+0x7c>
 80043e2:	4a50      	ldr	r2, [pc, #320]	; (8004524 <ai_platform_inputs_get+0x19c>)
 80043e4:	2301      	movs	r3, #1
 80043e6:	f8c2 3c08 	str.w	r3, [r2, #3080]	; 0xc08
 80043ea:	f8d2 3c08 	ldr.w	r3, [r2, #3080]	; 0xc08
 80043ee:	2b00      	cmp	r3, #0
 80043f0:	d1fb      	bne.n	80043ea <ai_platform_inputs_get+0x62>
 80043f2:	4b4d      	ldr	r3, [pc, #308]	; (8004528 <ai_platform_inputs_get+0x1a0>)
 80043f4:	f8c2 3c00 	str.w	r3, [r2, #3072]	; 0xc00
 80043f8:	f8d2 2c00 	ldr.w	r2, [r2, #3072]	; 0xc00
 80043fc:	4b4b      	ldr	r3, [pc, #300]	; (800452c <ai_platform_inputs_get+0x1a4>)
 80043fe:	429a      	cmp	r2, r3
 8004400:	d00d      	beq.n	800441e <ai_platform_inputs_get+0x96>
 8004402:	e7fe      	b.n	8004402 <ai_platform_inputs_get+0x7a>
 8004404:	4a4a      	ldr	r2, [pc, #296]	; (8004530 <ai_platform_inputs_get+0x1a8>)
 8004406:	2301      	movs	r3, #1
 8004408:	6093      	str	r3, [r2, #8]
 800440a:	6893      	ldr	r3, [r2, #8]
 800440c:	2b00      	cmp	r3, #0
 800440e:	d1fc      	bne.n	800440a <ai_platform_inputs_get+0x82>
 8004410:	4b45      	ldr	r3, [pc, #276]	; (8004528 <ai_platform_inputs_get+0x1a0>)
 8004412:	6013      	str	r3, [r2, #0]
 8004414:	6812      	ldr	r2, [r2, #0]
 8004416:	4b45      	ldr	r3, [pc, #276]	; (800452c <ai_platform_inputs_get+0x1a4>)
 8004418:	429a      	cmp	r2, r3
 800441a:	d000      	beq.n	800441e <ai_platform_inputs_get+0x96>
 800441c:	e7fe      	b.n	800441c <ai_platform_inputs_get+0x94>
 800441e:	f7ff fe73 	bl	8004108 <_ai_platform_release_crc>
 8004422:	2000      	movs	r0, #0
 8004424:	b005      	add	sp, #20
 8004426:	e8bd 8ff0 	ldmia.w	sp!, {r4, r5, r6, r7, r8, r9, sl, fp, pc}
 800442a:	4a41      	ldr	r2, [pc, #260]	; (8004530 <ai_platform_inputs_get+0x1a8>)
 800442c:	2301      	movs	r3, #1
 800442e:	6093      	str	r3, [r2, #8]
 8004430:	6893      	ldr	r3, [r2, #8]
 8004432:	2b00      	cmp	r3, #0
 8004434:	d1fc      	bne.n	8004430 <ai_platform_inputs_get+0xa8>
 8004436:	4b3c      	ldr	r3, [pc, #240]	; (8004528 <ai_platform_inputs_get+0x1a0>)
 8004438:	6013      	str	r3, [r2, #0]
 800443a:	6812      	ldr	r2, [r2, #0]
 800443c:	4b3b      	ldr	r3, [pc, #236]	; (800452c <ai_platform_inputs_get+0x1a4>)
 800443e:	429a      	cmp	r2, r3
 8004440:	d155      	bne.n	80044ee <ai_platform_inputs_get+0x166>
 8004442:	f7ff fe61 	bl	8004108 <_ai_platform_release_crc>
 8004446:	8dbb      	ldrh	r3, [r7, #44]	; 0x2c
 8004448:	2b00      	cmp	r3, #0
 800444a:	d051      	beq.n	80044f0 <ai_platform_inputs_get+0x168>
 800444c:	f8d7 a030 	ldr.w	sl, [r7, #48]	; 0x30
 8004450:	f1ba 0f00 	cmp.w	sl, #0
 8004454:	d04c      	beq.n	80044f0 <ai_platform_inputs_get+0x168>
 8004456:	f04f 0b00 	mov.w	fp, #0
 800445a:	465d      	mov	r5, fp
 800445c:	9703      	str	r7, [sp, #12]
 800445e:	e016      	b.n	800448e <ai_platform_inputs_get+0x106>
 8004460:	9901      	ldr	r1, [sp, #4]
 8004462:	2301      	movs	r3, #1
 8004464:	507b      	str	r3, [r7, r1]
 8004466:	69b1      	ldr	r1, [r6, #24]
 8004468:	6849      	ldr	r1, [r1, #4]
 800446a:	6121      	str	r1, [r4, #16]
 800446c:	f04f 0301 	mov.w	r3, #1
 8004470:	7523      	strb	r3, [r4, #20]
 8004472:	e9c4 c200 	strd	ip, r2, [r4]
 8004476:	6962      	ldr	r2, [r4, #20]
 8004478:	60a0      	str	r0, [r4, #8]
 800447a:	2300      	movs	r3, #0
 800447c:	f369 221f 	bfi	r2, r9, #8, #24
 8004480:	f8c4 8018 	str.w	r8, [r4, #24]
 8004484:	60e3      	str	r3, [r4, #12]
 8004486:	3501      	adds	r5, #1
 8004488:	f10b 0b1c 	add.w	fp, fp, #28
 800448c:	6162      	str	r2, [r4, #20]
 800448e:	f8ba 3000 	ldrh.w	r3, [sl]
 8004492:	42ab      	cmp	r3, r5
 8004494:	b2aa      	uxth	r2, r5
 8004496:	d93a      	bls.n	800450e <ai_platform_inputs_get+0x186>
 8004498:	f8da 3004 	ldr.w	r3, [sl, #4]
 800449c:	00e9      	lsls	r1, r5, #3
 800449e:	9101      	str	r1, [sp, #4]
 80044a0:	2b00      	cmp	r3, #0
 80044a2:	d034      	beq.n	800450e <ai_platform_inputs_get+0x186>
 80044a4:	f853 6025 	ldr.w	r6, [r3, r5, lsl #2]
 80044a8:	2e00      	cmp	r6, #0
 80044aa:	d030      	beq.n	800450e <ai_platform_inputs_get+0x186>
 80044ac:	f8da 3008 	ldr.w	r3, [sl, #8]
 80044b0:	69b2      	ldr	r2, [r6, #24]
 80044b2:	f8d6 800c 	ldr.w	r8, [r6, #12]
 80044b6:	6810      	ldr	r0, [r2, #0]
 80044b8:	e9d3 4701 	ldrd	r4, r7, [r3, #4]
 80044bc:	68b3      	ldr	r3, [r6, #8]
 80044be:	f3c3 2917 	ubfx	r9, r3, #8, #24
 80044c2:	f002 fe1b 	bl	80070fc <ai_array_to_buffer_fmt>
 80044c6:	69b1      	ldr	r1, [r6, #24]
 80044c8:	4684      	mov	ip, r0
 80044ca:	eb07 00c5 	add.w	r0, r7, r5, lsl #3
 80044ce:	688a      	ldr	r2, [r1, #8]
 80044d0:	445c      	add	r4, fp
 80044d2:	2800      	cmp	r0, #0
 80044d4:	d0c8      	beq.n	8004468 <ai_platform_inputs_get+0xe0>
 80044d6:	2100      	movs	r1, #0
 80044d8:	f847 1035 	str.w	r1, [r7, r5, lsl #3]
 80044dc:	6831      	ldr	r1, [r6, #0]
 80044de:	6041      	str	r1, [r0, #4]
 80044e0:	b111      	cbz	r1, 80044e8 <ai_platform_inputs_get+0x160>
 80044e2:	8849      	ldrh	r1, [r1, #2]
 80044e4:	2900      	cmp	r1, #0
 80044e6:	d1bb      	bne.n	8004460 <ai_platform_inputs_get+0xd8>
 80044e8:	69b1      	ldr	r1, [r6, #24]
 80044ea:	2000      	movs	r0, #0
 80044ec:	e7bc      	b.n	8004468 <ai_platform_inputs_get+0xe0>
 80044ee:	e7fe      	b.n	80044ee <ai_platform_inputs_get+0x166>
 80044f0:	2218      	movs	r2, #24
 80044f2:	2111      	movs	r1, #17
 80044f4:	f107 0010 	add.w	r0, r7, #16
 80044f8:	f000 fb40 	bl	8004b7c <core_set_error>
 80044fc:	2200      	movs	r2, #0
 80044fe:	4610      	mov	r0, r2
 8004500:	9b02      	ldr	r3, [sp, #8]
 8004502:	2b00      	cmp	r3, #0
 8004504:	d08e      	beq.n	8004424 <ai_platform_inputs_get+0x9c>
 8004506:	801a      	strh	r2, [r3, #0]
 8004508:	b005      	add	sp, #20
 800450a:	e8bd 8ff0 	ldmia.w	sp!, {r4, r5, r6, r7, r8, r9, sl, fp, pc}
 800450e:	9f03      	ldr	r7, [sp, #12]
 8004510:	2a00      	cmp	r2, #0
 8004512:	d0ed      	beq.n	80044f0 <ai_platform_inputs_get+0x168>
 8004514:	f8da 3008 	ldr.w	r3, [sl, #8]
 8004518:	6858      	ldr	r0, [r3, #4]
 800451a:	e7f1      	b.n	8004500 <ai_platform_inputs_get+0x178>
 800451c:	a1c00100 	.word	0xa1c00100
 8004520:	e0042000 	.word	0xe0042000
 8004524:	58024000 	.word	0x58024000
 8004528:	f407a5c2 	.word	0xf407a5c2
 800452c:	b5e8b5cd 	.word	0xb5e8b5cd
 8004530:	40023000 	.word	0x40023000

08004534 <ai_platform_outputs_get>:
 8004534:	e92d 4ff0 	stmdb	sp!, {r4, r5, r6, r7, r8, r9, sl, fp, lr}
 8004538:	b085      	sub	sp, #20
 800453a:	9102      	str	r1, [sp, #8]
 800453c:	b1f0      	cbz	r0, 800457c <ai_platform_outputs_get+0x48>
 800453e:	4b5f      	ldr	r3, [pc, #380]	; (80046bc <ai_platform_outputs_get+0x188>)
 8004540:	6802      	ldr	r2, [r0, #0]
 8004542:	429a      	cmp	r2, r3
 8004544:	4607      	mov	r7, r0
 8004546:	d119      	bne.n	800457c <ai_platform_outputs_get+0x48>
 8004548:	f7ff fddc 	bl	8004104 <_ai_platform_acquire_crc>
 800454c:	4b5c      	ldr	r3, [pc, #368]	; (80046c0 <ai_platform_outputs_get+0x18c>)
 800454e:	681b      	ldr	r3, [r3, #0]
 8004550:	f403 63e0 	and.w	r3, r3, #1792	; 0x700
 8004554:	f5b3 6f80 	cmp.w	r3, #1024	; 0x400
 8004558:	d03d      	beq.n	80045d6 <ai_platform_outputs_get+0xa2>
 800455a:	4a5a      	ldr	r2, [pc, #360]	; (80046c4 <ai_platform_outputs_get+0x190>)
 800455c:	2301      	movs	r3, #1
 800455e:	f8c2 3c08 	str.w	r3, [r2, #3080]	; 0xc08
 8004562:	f8d2 3c08 	ldr.w	r3, [r2, #3080]	; 0xc08
 8004566:	2b00      	cmp	r3, #0
 8004568:	d1fb      	bne.n	8004562 <ai_platform_outputs_get+0x2e>
 800456a:	4b57      	ldr	r3, [pc, #348]	; (80046c8 <ai_platform_outputs_get+0x194>)
 800456c:	f8c2 3c00 	str.w	r3, [r2, #3072]	; 0xc00
 8004570:	f8d2 2c00 	ldr.w	r2, [r2, #3072]	; 0xc00
 8004574:	4b55      	ldr	r3, [pc, #340]	; (80046cc <ai_platform_outputs_get+0x198>)
 8004576:	429a      	cmp	r2, r3
 8004578:	d039      	beq.n	80045ee <ai_platform_outputs_get+0xba>
 800457a:	e7fe      	b.n	800457a <ai_platform_outputs_get+0x46>
 800457c:	f7ff fdc2 	bl	8004104 <_ai_platform_acquire_crc>
 8004580:	4b4f      	ldr	r3, [pc, #316]	; (80046c0 <ai_platform_outputs_get+0x18c>)
 8004582:	681b      	ldr	r3, [r3, #0]
 8004584:	f403 63e0 	and.w	r3, r3, #1792	; 0x700
 8004588:	f5b3 6f80 	cmp.w	r3, #1024	; 0x400
 800458c:	d010      	beq.n	80045b0 <ai_platform_outputs_get+0x7c>
 800458e:	4a4d      	ldr	r2, [pc, #308]	; (80046c4 <ai_platform_outputs_get+0x190>)
 8004590:	2301      	movs	r3, #1
 8004592:	f8c2 3c08 	str.w	r3, [r2, #3080]	; 0xc08
 8004596:	f8d2 3c08 	ldr.w	r3, [r2, #3080]	; 0xc08
 800459a:	2b00      	cmp	r3, #0
 800459c:	d1fb      	bne.n	8004596 <ai_platform_outputs_get+0x62>
 800459e:	4b4a      	ldr	r3, [pc, #296]	; (80046c8 <ai_platform_outputs_get+0x194>)
 80045a0:	f8c2 3c00 	str.w	r3, [r2, #3072]	; 0xc00
 80045a4:	f8d2 2c00 	ldr.w	r2, [r2, #3072]	; 0xc00
 80045a8:	4b48      	ldr	r3, [pc, #288]	; (80046cc <ai_platform_outputs_get+0x198>)
 80045aa:	429a      	cmp	r2, r3
 80045ac:	d00d      	beq.n	80045ca <ai_platform_outputs_get+0x96>
 80045ae:	e7fe      	b.n	80045ae <ai_platform_outputs_get+0x7a>
 80045b0:	4a47      	ldr	r2, [pc, #284]	; (80046d0 <ai_platform_outputs_get+0x19c>)
 80045b2:	2301      	movs	r3, #1
 80045b4:	6093      	str	r3, [r2, #8]
 80045b6:	6893      	ldr	r3, [r2, #8]
 80045b8:	2b00      	cmp	r3, #0
 80045ba:	d1fc      	bne.n	80045b6 <ai_platform_outputs_get+0x82>
 80045bc:	4b42      	ldr	r3, [pc, #264]	; (80046c8 <ai_platform_outputs_get+0x194>)
 80045be:	6013      	str	r3, [r2, #0]
 80045c0:	6812      	ldr	r2, [r2, #0]
 80045c2:	4b42      	ldr	r3, [pc, #264]	; (80046cc <ai_platform_outputs_get+0x198>)
 80045c4:	429a      	cmp	r2, r3
 80045c6:	d000      	beq.n	80045ca <ai_platform_outputs_get+0x96>
 80045c8:	e7fe      	b.n	80045c8 <ai_platform_outputs_get+0x94>
 80045ca:	f7ff fd9d 	bl	8004108 <_ai_platform_release_crc>
 80045ce:	2000      	movs	r0, #0
 80045d0:	b005      	add	sp, #20
 80045d2:	e8bd 8ff0 	ldmia.w	sp!, {r4, r5, r6, r7, r8, r9, sl, fp, pc}
 80045d6:	4a3e      	ldr	r2, [pc, #248]	; (80046d0 <ai_platform_outputs_get+0x19c>)
 80045d8:	2301      	movs	r3, #1
 80045da:	6093      	str	r3, [r2, #8]
 80045dc:	6893      	ldr	r3, [r2, #8]
 80045de:	2b00      	cmp	r3, #0
 80045e0:	d1fc      	bne.n	80045dc <ai_platform_outputs_get+0xa8>
 80045e2:	4b39      	ldr	r3, [pc, #228]	; (80046c8 <ai_platform_outputs_get+0x194>)
 80045e4:	6013      	str	r3, [r2, #0]
 80045e6:	6812      	ldr	r2, [r2, #0]
 80045e8:	4b38      	ldr	r3, [pc, #224]	; (80046cc <ai_platform_outputs_get+0x198>)
 80045ea:	429a      	cmp	r2, r3
 80045ec:	d150      	bne.n	8004690 <ai_platform_outputs_get+0x15c>
 80045ee:	f7ff fd8b 	bl	8004108 <_ai_platform_release_crc>
 80045f2:	8dbb      	ldrh	r3, [r7, #44]	; 0x2c
 80045f4:	2b01      	cmp	r3, #1
 80045f6:	d958      	bls.n	80046aa <ai_platform_outputs_get+0x176>
 80045f8:	f04f 0b00 	mov.w	fp, #0
 80045fc:	f8d7 a030 	ldr.w	sl, [r7, #48]	; 0x30
 8004600:	9703      	str	r7, [sp, #12]
 8004602:	465d      	mov	r5, fp
 8004604:	e016      	b.n	8004634 <ai_platform_outputs_get+0x100>
 8004606:	9901      	ldr	r1, [sp, #4]
 8004608:	2301      	movs	r3, #1
 800460a:	507b      	str	r3, [r7, r1]
 800460c:	69b1      	ldr	r1, [r6, #24]
 800460e:	6849      	ldr	r1, [r1, #4]
 8004610:	6121      	str	r1, [r4, #16]
 8004612:	f04f 0301 	mov.w	r3, #1
 8004616:	7523      	strb	r3, [r4, #20]
 8004618:	e9c4 c200 	strd	ip, r2, [r4]
 800461c:	6962      	ldr	r2, [r4, #20]
 800461e:	60a0      	str	r0, [r4, #8]
 8004620:	2300      	movs	r3, #0
 8004622:	f369 221f 	bfi	r2, r9, #8, #24
 8004626:	f8c4 8018 	str.w	r8, [r4, #24]
 800462a:	60e3      	str	r3, [r4, #12]
 800462c:	3501      	adds	r5, #1
 800462e:	f10b 0b1c 	add.w	fp, fp, #28
 8004632:	6162      	str	r2, [r4, #20]
 8004634:	f8ba 300c 	ldrh.w	r3, [sl, #12]
 8004638:	42ab      	cmp	r3, r5
 800463a:	b2aa      	uxth	r2, r5
 800463c:	d929      	bls.n	8004692 <ai_platform_outputs_get+0x15e>
 800463e:	f8da 3010 	ldr.w	r3, [sl, #16]
 8004642:	00e9      	lsls	r1, r5, #3
 8004644:	9101      	str	r1, [sp, #4]
 8004646:	b323      	cbz	r3, 8004692 <ai_platform_outputs_get+0x15e>
 8004648:	f853 6025 	ldr.w	r6, [r3, r5, lsl #2]
 800464c:	b30e      	cbz	r6, 8004692 <ai_platform_outputs_get+0x15e>
 800464e:	f8da 3014 	ldr.w	r3, [sl, #20]
 8004652:	69b2      	ldr	r2, [r6, #24]
 8004654:	f8d6 800c 	ldr.w	r8, [r6, #12]
 8004658:	6810      	ldr	r0, [r2, #0]
 800465a:	e9d3 4701 	ldrd	r4, r7, [r3, #4]
 800465e:	68b3      	ldr	r3, [r6, #8]
 8004660:	f3c3 2917 	ubfx	r9, r3, #8, #24
 8004664:	f002 fd4a 	bl	80070fc <ai_array_to_buffer_fmt>
 8004668:	69b1      	ldr	r1, [r6, #24]
 800466a:	4684      	mov	ip, r0
 800466c:	eb07 00c5 	add.w	r0, r7, r5, lsl #3
 8004670:	688a      	ldr	r2, [r1, #8]
 8004672:	445c      	add	r4, fp
 8004674:	2800      	cmp	r0, #0
 8004676:	d0ca      	beq.n	800460e <ai_platform_outputs_get+0xda>
 8004678:	2100      	movs	r1, #0
 800467a:	f847 1035 	str.w	r1, [r7, r5, lsl #3]
 800467e:	6831      	ldr	r1, [r6, #0]
 8004680:	6041      	str	r1, [r0, #4]
 8004682:	b111      	cbz	r1, 800468a <ai_platform_outputs_get+0x156>
 8004684:	8849      	ldrh	r1, [r1, #2]
 8004686:	2900      	cmp	r1, #0
 8004688:	d1bd      	bne.n	8004606 <ai_platform_outputs_get+0xd2>
 800468a:	69b1      	ldr	r1, [r6, #24]
 800468c:	2000      	movs	r0, #0
 800468e:	e7be      	b.n	800460e <ai_platform_outputs_get+0xda>
 8004690:	e7fe      	b.n	8004690 <ai_platform_outputs_get+0x15c>
 8004692:	9f03      	ldr	r7, [sp, #12]
 8004694:	b14a      	cbz	r2, 80046aa <ai_platform_outputs_get+0x176>
 8004696:	f8da 3014 	ldr.w	r3, [sl, #20]
 800469a:	6858      	ldr	r0, [r3, #4]
 800469c:	9b02      	ldr	r3, [sp, #8]
 800469e:	2b00      	cmp	r3, #0
 80046a0:	d096      	beq.n	80045d0 <ai_platform_outputs_get+0x9c>
 80046a2:	801a      	strh	r2, [r3, #0]
 80046a4:	b005      	add	sp, #20
 80046a6:	e8bd 8ff0 	ldmia.w	sp!, {r4, r5, r6, r7, r8, r9, sl, fp, pc}
 80046aa:	2218      	movs	r2, #24
 80046ac:	2111      	movs	r1, #17
 80046ae:	f107 0010 	add.w	r0, r7, #16
 80046b2:	f000 fa63 	bl	8004b7c <core_set_error>
 80046b6:	2200      	movs	r2, #0
 80046b8:	4610      	mov	r0, r2
 80046ba:	e7ef      	b.n	800469c <ai_platform_outputs_get+0x168>
 80046bc:	a1c00100 	.word	0xa1c00100
 80046c0:	e0042000 	.word	0xe0042000
 80046c4:	58024000 	.word	0x58024000
 80046c8:	f407a5c2 	.word	0xf407a5c2
 80046cc:	b5e8b5cd 	.word	0xb5e8b5cd
 80046d0:	40023000 	.word	0x40023000

080046d4 <ai_platform_network_create>:
 80046d4:	e92d 43f0 	stmdb	sp!, {r4, r5, r6, r7, r8, r9, lr}
 80046d8:	b083      	sub	sp, #12
 80046da:	4606      	mov	r6, r0
 80046dc:	f89d 8028 	ldrb.w	r8, [sp, #40]	; 0x28
 80046e0:	f89d 902c 	ldrb.w	r9, [sp, #44]	; 0x2c
 80046e4:	4615      	mov	r5, r2
 80046e6:	461f      	mov	r7, r3
 80046e8:	f7ff fd0c 	bl	8004104 <_ai_platform_acquire_crc>
 80046ec:	b188      	cbz	r0, 8004712 <ai_platform_network_create+0x3e>
 80046ee:	4a5d      	ldr	r2, [pc, #372]	; (8004864 <ai_platform_network_create+0x190>)
 80046f0:	6812      	ldr	r2, [r2, #0]
 80046f2:	f402 62e0 	and.w	r2, r2, #1792	; 0x700
 80046f6:	f5b2 6f80 	cmp.w	r2, #1024	; 0x400
 80046fa:	4603      	mov	r3, r0
 80046fc:	d00e      	beq.n	800471c <ai_platform_network_create+0x48>
 80046fe:	4a5a      	ldr	r2, [pc, #360]	; (8004868 <ai_platform_network_create+0x194>)
 8004700:	2118      	movs	r1, #24
 8004702:	f8c2 1c08 	str.w	r1, [r2, #3080]	; 0xc08
 8004706:	f8d2 1c08 	ldr.w	r1, [r2, #3080]	; 0xc08
 800470a:	2918      	cmp	r1, #24
 800470c:	d018      	beq.n	8004740 <ai_platform_network_create+0x6c>
 800470e:	f7ff fcfb 	bl	8004108 <_ai_platform_release_crc>
 8004712:	f244 1033 	movw	r0, #16691	; 0x4133
 8004716:	b003      	add	sp, #12
 8004718:	e8bd 83f0 	ldmia.w	sp!, {r4, r5, r6, r7, r8, r9, pc}
 800471c:	4a53      	ldr	r2, [pc, #332]	; (800486c <ai_platform_network_create+0x198>)
 800471e:	2101      	movs	r1, #1
 8004720:	6091      	str	r1, [r2, #8]
 8004722:	2114      	movs	r1, #20
 8004724:	e001      	b.n	800472a <ai_platform_network_create+0x56>
 8004726:	3901      	subs	r1, #1
 8004728:	d002      	beq.n	8004730 <ai_platform_network_create+0x5c>
 800472a:	6894      	ldr	r4, [r2, #8]
 800472c:	2c00      	cmp	r4, #0
 800472e:	d1fa      	bne.n	8004726 <ai_platform_network_create+0x52>
 8004730:	4a4e      	ldr	r2, [pc, #312]	; (800486c <ai_platform_network_create+0x198>)
 8004732:	6891      	ldr	r1, [r2, #8]
 8004734:	b911      	cbnz	r1, 800473c <ai_platform_network_create+0x68>
 8004736:	6812      	ldr	r2, [r2, #0]
 8004738:	3201      	adds	r2, #1
 800473a:	d008      	beq.n	800474e <ai_platform_network_create+0x7a>
 800473c:	4618      	mov	r0, r3
 800473e:	e7e6      	b.n	800470e <ai_platform_network_create+0x3a>
 8004740:	2101      	movs	r1, #1
 8004742:	f8c2 1c08 	str.w	r1, [r2, #3080]	; 0xc08
 8004746:	f8d2 1c08 	ldr.w	r1, [r2, #3080]	; 0xc08
 800474a:	2900      	cmp	r1, #0
 800474c:	d1fb      	bne.n	8004746 <ai_platform_network_create+0x72>
 800474e:	4618      	mov	r0, r3
 8004750:	f7ff fcda 	bl	8004108 <_ai_platform_release_crc>
 8004754:	f7ff fcd6 	bl	8004104 <_ai_platform_acquire_crc>
 8004758:	4b42      	ldr	r3, [pc, #264]	; (8004864 <ai_platform_network_create+0x190>)
 800475a:	681b      	ldr	r3, [r3, #0]
 800475c:	f403 63e0 	and.w	r3, r3, #1792	; 0x700
 8004760:	f5b3 6f80 	cmp.w	r3, #1024	; 0x400
 8004764:	d010      	beq.n	8004788 <ai_platform_network_create+0xb4>
 8004766:	4b40      	ldr	r3, [pc, #256]	; (8004868 <ai_platform_network_create+0x194>)
 8004768:	2201      	movs	r2, #1
 800476a:	f8c3 2c08 	str.w	r2, [r3, #3080]	; 0xc08
 800476e:	f8d3 1c08 	ldr.w	r1, [r3, #3080]	; 0xc08
 8004772:	2900      	cmp	r1, #0
 8004774:	d1fb      	bne.n	800476e <ai_platform_network_create+0x9a>
 8004776:	4a3e      	ldr	r2, [pc, #248]	; (8004870 <ai_platform_network_create+0x19c>)
 8004778:	f8c3 2c00 	str.w	r2, [r3, #3072]	; 0xc00
 800477c:	f8d3 2c00 	ldr.w	r2, [r3, #3072]	; 0xc00
 8004780:	4b3c      	ldr	r3, [pc, #240]	; (8004874 <ai_platform_network_create+0x1a0>)
 8004782:	429a      	cmp	r2, r3
 8004784:	d00c      	beq.n	80047a0 <ai_platform_network_create+0xcc>
 8004786:	e7fe      	b.n	8004786 <ai_platform_network_create+0xb2>
 8004788:	4a38      	ldr	r2, [pc, #224]	; (800486c <ai_platform_network_create+0x198>)
 800478a:	2301      	movs	r3, #1
 800478c:	6093      	str	r3, [r2, #8]
 800478e:	6893      	ldr	r3, [r2, #8]
 8004790:	2b00      	cmp	r3, #0
 8004792:	d1fc      	bne.n	800478e <ai_platform_network_create+0xba>
 8004794:	4b36      	ldr	r3, [pc, #216]	; (8004870 <ai_platform_network_create+0x19c>)
 8004796:	6013      	str	r3, [r2, #0]
 8004798:	6812      	ldr	r2, [r2, #0]
 800479a:	4b36      	ldr	r3, [pc, #216]	; (8004874 <ai_platform_network_create+0x1a0>)
 800479c:	429a      	cmp	r2, r3
 800479e:	d122      	bne.n	80047e6 <ai_platform_network_create+0x112>
 80047a0:	f7ff fcb2 	bl	8004108 <_ai_platform_release_crc>
 80047a4:	b38e      	cbz	r6, 800480a <ai_platform_network_create+0x136>
 80047a6:	4b34      	ldr	r3, [pc, #208]	; (8004878 <ai_platform_network_create+0x1a4>)
 80047a8:	602b      	str	r3, [r5, #0]
 80047aa:	6035      	str	r5, [r6, #0]
 80047ac:	f000 f9de 	bl	8004b6c <core_init>
 80047b0:	b1d0      	cbz	r0, 80047e8 <ai_platform_network_create+0x114>
 80047b2:	f7ff fca7 	bl	8004104 <_ai_platform_acquire_crc>
 80047b6:	4b2b      	ldr	r3, [pc, #172]	; (8004864 <ai_platform_network_create+0x190>)
 80047b8:	681b      	ldr	r3, [r3, #0]
 80047ba:	f403 63e0 	and.w	r3, r3, #1792	; 0x700
 80047be:	f5b3 6f80 	cmp.w	r3, #1024	; 0x400
 80047c2:	d025      	beq.n	8004810 <ai_platform_network_create+0x13c>
 80047c4:	4a28      	ldr	r2, [pc, #160]	; (8004868 <ai_platform_network_create+0x194>)
 80047c6:	2301      	movs	r3, #1
 80047c8:	f8c2 3c08 	str.w	r3, [r2, #3080]	; 0xc08
 80047cc:	f8d2 3c08 	ldr.w	r3, [r2, #3080]	; 0xc08
 80047d0:	2b00      	cmp	r3, #0
 80047d2:	d1fb      	bne.n	80047cc <ai_platform_network_create+0xf8>
 80047d4:	4b26      	ldr	r3, [pc, #152]	; (8004870 <ai_platform_network_create+0x19c>)
 80047d6:	f8c2 3c00 	str.w	r3, [r2, #3072]	; 0xc00
 80047da:	f8d2 2c00 	ldr.w	r2, [r2, #3072]	; 0xc00
 80047de:	4b25      	ldr	r3, [pc, #148]	; (8004874 <ai_platform_network_create+0x1a0>)
 80047e0:	429a      	cmp	r2, r3
 80047e2:	d022      	beq.n	800482a <ai_platform_network_create+0x156>
 80047e4:	e7fe      	b.n	80047e4 <ai_platform_network_create+0x110>
 80047e6:	e7fe      	b.n	80047e6 <ai_platform_network_create+0x112>
 80047e8:	2430      	movs	r4, #48	; 0x30
 80047ea:	2300      	movs	r3, #0
 80047ec:	6033      	str	r3, [r6, #0]
 80047ee:	2610      	movs	r6, #16
 80047f0:	464a      	mov	r2, r9
 80047f2:	4641      	mov	r1, r8
 80047f4:	4638      	mov	r0, r7
 80047f6:	f7ff fc31 	bl	800405c <ai_version_get>
 80047fa:	4603      	mov	r3, r0
 80047fc:	2000      	movs	r0, #0
 80047fe:	f364 0007 	bfi	r0, r4, #0, #8
 8004802:	64ab      	str	r3, [r5, #72]	; 0x48
 8004804:	f366 201f 	bfi	r0, r6, #8, #24
 8004808:	e785      	b.n	8004716 <ai_platform_network_create+0x42>
 800480a:	f241 0010 	movw	r0, #4112	; 0x1010
 800480e:	e782      	b.n	8004716 <ai_platform_network_create+0x42>
 8004810:	4a16      	ldr	r2, [pc, #88]	; (800486c <ai_platform_network_create+0x198>)
 8004812:	2301      	movs	r3, #1
 8004814:	6093      	str	r3, [r2, #8]
 8004816:	6893      	ldr	r3, [r2, #8]
 8004818:	2b00      	cmp	r3, #0
 800481a:	d1fc      	bne.n	8004816 <ai_platform_network_create+0x142>
 800481c:	4b14      	ldr	r3, [pc, #80]	; (8004870 <ai_platform_network_create+0x19c>)
 800481e:	6013      	str	r3, [r2, #0]
 8004820:	6812      	ldr	r2, [r2, #0]
 8004822:	4b14      	ldr	r3, [pc, #80]	; (8004874 <ai_platform_network_create+0x1a0>)
 8004824:	429a      	cmp	r2, r3
 8004826:	d000      	beq.n	800482a <ai_platform_network_create+0x156>
 8004828:	e7fe      	b.n	8004828 <ai_platform_network_create+0x154>
 800482a:	f7ff fc6d 	bl	8004108 <_ai_platform_release_crc>
 800482e:	2200      	movs	r2, #0
 8004830:	4641      	mov	r1, r8
 8004832:	4638      	mov	r0, r7
 8004834:	f7ff fc12 	bl	800405c <ai_version_get>
 8004838:	2200      	movs	r2, #0
 800483a:	4604      	mov	r4, r0
 800483c:	2105      	movs	r1, #5
 800483e:	2001      	movs	r0, #1
 8004840:	f7ff fc0c 	bl	800405c <ai_version_get>
 8004844:	4284      	cmp	r4, r0
 8004846:	d001      	beq.n	800484c <ai_platform_network_create+0x178>
 8004848:	2401      	movs	r4, #1
 800484a:	e7ce      	b.n	80047ea <ai_platform_network_create+0x116>
 800484c:	4b0b      	ldr	r3, [pc, #44]	; (800487c <ai_platform_network_create+0x1a8>)
 800484e:	9301      	str	r3, [sp, #4]
 8004850:	a801      	add	r0, sp, #4
 8004852:	f000 f99f 	bl	8004b94 <ai_check_custom_types>
 8004856:	b110      	cbz	r0, 800485e <ai_platform_network_create+0x18a>
 8004858:	2600      	movs	r6, #0
 800485a:	4634      	mov	r4, r6
 800485c:	e7c8      	b.n	80047f0 <ai_platform_network_create+0x11c>
 800485e:	2402      	movs	r4, #2
 8004860:	e7c3      	b.n	80047ea <ai_platform_network_create+0x116>
 8004862:	bf00      	nop
 8004864:	e0042000 	.word	0xe0042000
 8004868:	58024000 	.word	0x58024000
 800486c:	40023000 	.word	0x40023000
 8004870:	f407a5c2 	.word	0xf407a5c2
 8004874:	b5e8b5cd 	.word	0xb5e8b5cd
 8004878:	a1c00100 	.word	0xa1c00100
 800487c:	84048403 	.word	0x84048403

08004880 <ai_platform_network_init>:
 8004880:	e92d 43f8 	stmdb	sp!, {r3, r4, r5, r6, r7, r8, r9, lr}
 8004884:	b1f8      	cbz	r0, 80048c6 <ai_platform_network_init+0x46>
 8004886:	4b6e      	ldr	r3, [pc, #440]	; (8004a40 <ai_platform_network_init+0x1c0>)
 8004888:	6802      	ldr	r2, [r0, #0]
 800488a:	429a      	cmp	r2, r3
 800488c:	4604      	mov	r4, r0
 800488e:	d11a      	bne.n	80048c6 <ai_platform_network_init+0x46>
 8004890:	460e      	mov	r6, r1
 8004892:	f7ff fc37 	bl	8004104 <_ai_platform_acquire_crc>
 8004896:	4b6b      	ldr	r3, [pc, #428]	; (8004a44 <ai_platform_network_init+0x1c4>)
 8004898:	681b      	ldr	r3, [r3, #0]
 800489a:	f403 63e0 	and.w	r3, r3, #1792	; 0x700
 800489e:	f5b3 6f80 	cmp.w	r3, #1024	; 0x400
 80048a2:	d03d      	beq.n	8004920 <ai_platform_network_init+0xa0>
 80048a4:	4a68      	ldr	r2, [pc, #416]	; (8004a48 <ai_platform_network_init+0x1c8>)
 80048a6:	2301      	movs	r3, #1
 80048a8:	f8c2 3c08 	str.w	r3, [r2, #3080]	; 0xc08
 80048ac:	f8d2 3c08 	ldr.w	r3, [r2, #3080]	; 0xc08
 80048b0:	2b00      	cmp	r3, #0
 80048b2:	d1fb      	bne.n	80048ac <ai_platform_network_init+0x2c>
 80048b4:	4b65      	ldr	r3, [pc, #404]	; (8004a4c <ai_platform_network_init+0x1cc>)
 80048b6:	f8c2 3c00 	str.w	r3, [r2, #3072]	; 0xc00
 80048ba:	f8d2 2c00 	ldr.w	r2, [r2, #3072]	; 0xc00
 80048be:	4b64      	ldr	r3, [pc, #400]	; (8004a50 <ai_platform_network_init+0x1d0>)
 80048c0:	429a      	cmp	r2, r3
 80048c2:	d039      	beq.n	8004938 <ai_platform_network_init+0xb8>
 80048c4:	e7fe      	b.n	80048c4 <ai_platform_network_init+0x44>
 80048c6:	f7ff fc1d 	bl	8004104 <_ai_platform_acquire_crc>
 80048ca:	4b5e      	ldr	r3, [pc, #376]	; (8004a44 <ai_platform_network_init+0x1c4>)
 80048cc:	681b      	ldr	r3, [r3, #0]
 80048ce:	f403 63e0 	and.w	r3, r3, #1792	; 0x700
 80048d2:	f5b3 6f80 	cmp.w	r3, #1024	; 0x400
 80048d6:	d010      	beq.n	80048fa <ai_platform_network_init+0x7a>
 80048d8:	4a5b      	ldr	r2, [pc, #364]	; (8004a48 <ai_platform_network_init+0x1c8>)
 80048da:	2301      	movs	r3, #1
 80048dc:	f8c2 3c08 	str.w	r3, [r2, #3080]	; 0xc08
 80048e0:	f8d2 3c08 	ldr.w	r3, [r2, #3080]	; 0xc08
 80048e4:	2b00      	cmp	r3, #0
 80048e6:	d1fb      	bne.n	80048e0 <ai_platform_network_init+0x60>
 80048e8:	4b58      	ldr	r3, [pc, #352]	; (8004a4c <ai_platform_network_init+0x1cc>)
 80048ea:	f8c2 3c00 	str.w	r3, [r2, #3072]	; 0xc00
 80048ee:	f8d2 2c00 	ldr.w	r2, [r2, #3072]	; 0xc00
 80048f2:	4b57      	ldr	r3, [pc, #348]	; (8004a50 <ai_platform_network_init+0x1d0>)
 80048f4:	429a      	cmp	r2, r3
 80048f6:	d00d      	beq.n	8004914 <ai_platform_network_init+0x94>
 80048f8:	e7fe      	b.n	80048f8 <ai_platform_network_init+0x78>
 80048fa:	4a56      	ldr	r2, [pc, #344]	; (8004a54 <ai_platform_network_init+0x1d4>)
 80048fc:	2301      	movs	r3, #1
 80048fe:	6093      	str	r3, [r2, #8]
 8004900:	6893      	ldr	r3, [r2, #8]
 8004902:	2b00      	cmp	r3, #0
 8004904:	d1fc      	bne.n	8004900 <ai_platform_network_init+0x80>
 8004906:	4b51      	ldr	r3, [pc, #324]	; (8004a4c <ai_platform_network_init+0x1cc>)
 8004908:	6013      	str	r3, [r2, #0]
 800490a:	6812      	ldr	r2, [r2, #0]
 800490c:	4b50      	ldr	r3, [pc, #320]	; (8004a50 <ai_platform_network_init+0x1d0>)
 800490e:	429a      	cmp	r2, r3
 8004910:	d000      	beq.n	8004914 <ai_platform_network_init+0x94>
 8004912:	e7fe      	b.n	8004912 <ai_platform_network_init+0x92>
 8004914:	f7ff fbf8 	bl	8004108 <_ai_platform_release_crc>
 8004918:	2600      	movs	r6, #0
 800491a:	4630      	mov	r0, r6
 800491c:	e8bd 83f8 	ldmia.w	sp!, {r3, r4, r5, r6, r7, r8, r9, pc}
 8004920:	4a4c      	ldr	r2, [pc, #304]	; (8004a54 <ai_platform_network_init+0x1d4>)
 8004922:	2301      	movs	r3, #1
 8004924:	6093      	str	r3, [r2, #8]
 8004926:	6893      	ldr	r3, [r2, #8]
 8004928:	2b00      	cmp	r3, #0
 800492a:	d1fc      	bne.n	8004926 <ai_platform_network_init+0xa6>
 800492c:	4b47      	ldr	r3, [pc, #284]	; (8004a4c <ai_platform_network_init+0x1cc>)
 800492e:	6013      	str	r3, [r2, #0]
 8004930:	6812      	ldr	r2, [r2, #0]
 8004932:	4b47      	ldr	r3, [pc, #284]	; (8004a50 <ai_platform_network_init+0x1d0>)
 8004934:	429a      	cmp	r2, r3
 8004936:	d11c      	bne.n	8004972 <ai_platform_network_init+0xf2>
 8004938:	f7ff fbe6 	bl	8004108 <_ai_platform_release_crc>
 800493c:	2e00      	cmp	r6, #0
 800493e:	d06f      	beq.n	8004a20 <ai_platform_network_init+0x1a0>
 8004940:	4b45      	ldr	r3, [pc, #276]	; (8004a58 <ai_platform_network_init+0x1d8>)
 8004942:	6832      	ldr	r2, [r6, #0]
 8004944:	429a      	cmp	r2, r3
 8004946:	d115      	bne.n	8004974 <ai_platform_network_init+0xf4>
 8004948:	e9d6 2101 	ldrd	r2, r1, [r6, #4]
 800494c:	6933      	ldr	r3, [r6, #16]
 800494e:	f8b6 e00c 	ldrh.w	lr, [r6, #12]
 8004952:	89f7      	ldrh	r7, [r6, #14]
 8004954:	62a3      	str	r3, [r4, #40]	; 0x28
 8004956:	e9c4 2107 	strd	r2, r1, [r4, #28]
 800495a:	2303      	movs	r3, #3
 800495c:	84e7      	strh	r7, [r4, #38]	; 0x26
 800495e:	f8a4 e024 	strh.w	lr, [r4, #36]	; 0x24
 8004962:	60e3      	str	r3, [r4, #12]
 8004964:	4620      	mov	r0, r4
 8004966:	4626      	mov	r6, r4
 8004968:	f000 f93e 	bl	8004be8 <ai_layers_init_all>
 800496c:	4630      	mov	r0, r6
 800496e:	e8bd 83f8 	ldmia.w	sp!, {r3, r4, r5, r6, r7, r8, r9, pc}
 8004972:	e7fe      	b.n	8004972 <ai_platform_network_init+0xf2>
 8004974:	2101      	movs	r1, #1
 8004976:	4630      	mov	r0, r6
 8004978:	4635      	mov	r5, r6
 800497a:	6876      	ldr	r6, [r6, #4]
 800497c:	f7ff fb74 	bl	8004068 <ai_buffer_get_size>
 8004980:	f105 081c 	add.w	r8, r5, #28
 8004984:	4681      	mov	r9, r0
 8004986:	2101      	movs	r1, #1
 8004988:	4640      	mov	r0, r8
 800498a:	6a2f      	ldr	r7, [r5, #32]
 800498c:	f7ff fb6c 	bl	8004068 <ai_buffer_get_size>
 8004990:	f1b9 0f00 	cmp.w	r9, #0
 8004994:	d025      	beq.n	80049e2 <ai_platform_network_init+0x162>
 8004996:	2201      	movs	r2, #1
 8004998:	4696      	mov	lr, r2
 800499a:	bb30      	cbnz	r0, 80049ea <ai_platform_network_init+0x16a>
 800499c:	4680      	mov	r8, r0
 800499e:	4607      	mov	r7, r0
 80049a0:	b376      	cbz	r6, 8004a00 <ai_platform_network_init+0x180>
 80049a2:	8be3      	ldrh	r3, [r4, #30]
 80049a4:	4573      	cmp	r3, lr
 80049a6:	d323      	bcc.n	80049f0 <ai_platform_network_init+0x170>
 80049a8:	b142      	cbz	r2, 80049bc <ai_platform_network_init+0x13c>
 80049aa:	46ac      	mov	ip, r5
 80049ac:	e8bc 000f 	ldmia.w	ip!, {r0, r1, r2, r3}
 80049b0:	6a25      	ldr	r5, [r4, #32]
 80049b2:	c50f      	stmia	r5!, {r0, r1, r2, r3}
 80049b4:	e89c 0007 	ldmia.w	ip, {r0, r1, r2}
 80049b8:	e885 0007 	stmia.w	r5, {r0, r1, r2}
 80049bc:	8ce3      	ldrh	r3, [r4, #38]	; 0x26
 80049be:	f8a4 e01e 	strh.w	lr, [r4, #30]
 80049c2:	2600      	movs	r6, #0
 80049c4:	42bb      	cmp	r3, r7
 80049c6:	83a6      	strh	r6, [r4, #28]
 80049c8:	d323      	bcc.n	8004a12 <ai_platform_network_init+0x192>
 80049ca:	b37f      	cbz	r7, 8004a2c <ai_platform_network_init+0x1ac>
 80049cc:	46c4      	mov	ip, r8
 80049ce:	e8bc 000f 	ldmia.w	ip!, {r0, r1, r2, r3}
 80049d2:	6aa5      	ldr	r5, [r4, #40]	; 0x28
 80049d4:	c50f      	stmia	r5!, {r0, r1, r2, r3}
 80049d6:	e89c 0007 	ldmia.w	ip, {r0, r1, r2}
 80049da:	46b6      	mov	lr, r6
 80049dc:	e885 0007 	stmia.w	r5, {r0, r1, r2}
 80049e0:	e7bb      	b.n	800495a <ai_platform_network_init+0xda>
 80049e2:	464a      	mov	r2, r9
 80049e4:	46ce      	mov	lr, r9
 80049e6:	464d      	mov	r5, r9
 80049e8:	e7d7      	b.n	800499a <ai_platform_network_init+0x11a>
 80049ea:	b30f      	cbz	r7, 8004a30 <ai_platform_network_init+0x1b0>
 80049ec:	2701      	movs	r7, #1
 80049ee:	e7d7      	b.n	80049a0 <ai_platform_network_init+0x120>
 80049f0:	2212      	movs	r2, #18
 80049f2:	2116      	movs	r1, #22
 80049f4:	f104 0010 	add.w	r0, r4, #16
 80049f8:	f000 f8c0 	bl	8004b7c <core_set_error>
 80049fc:	2600      	movs	r6, #0
 80049fe:	e78c      	b.n	800491a <ai_platform_network_init+0x9a>
 8004a00:	f1b9 0f00 	cmp.w	r9, #0
 8004a04:	d0cd      	beq.n	80049a2 <ai_platform_network_init+0x122>
 8004a06:	2110      	movs	r1, #16
 8004a08:	2212      	movs	r2, #18
 8004a0a:	1860      	adds	r0, r4, r1
 8004a0c:	f000 f8b6 	bl	8004b7c <core_set_error>
 8004a10:	e783      	b.n	800491a <ai_platform_network_init+0x9a>
 8004a12:	2213      	movs	r2, #19
 8004a14:	2116      	movs	r1, #22
 8004a16:	f104 0010 	add.w	r0, r4, #16
 8004a1a:	f000 f8af 	bl	8004b7c <core_set_error>
 8004a1e:	e77c      	b.n	800491a <ai_platform_network_init+0x9a>
 8004a20:	2110      	movs	r1, #16
 8004a22:	2211      	movs	r2, #17
 8004a24:	1860      	adds	r0, r4, r1
 8004a26:	f000 f8a9 	bl	8004b7c <core_set_error>
 8004a2a:	e776      	b.n	800491a <ai_platform_network_init+0x9a>
 8004a2c:	46be      	mov	lr, r7
 8004a2e:	e794      	b.n	800495a <ai_platform_network_init+0xda>
 8004a30:	2110      	movs	r1, #16
 8004a32:	2213      	movs	r2, #19
 8004a34:	1860      	adds	r0, r4, r1
 8004a36:	f000 f8a1 	bl	8004b7c <core_set_error>
 8004a3a:	463e      	mov	r6, r7
 8004a3c:	e76d      	b.n	800491a <ai_platform_network_init+0x9a>
 8004a3e:	bf00      	nop
 8004a40:	a1c00100 	.word	0xa1c00100
 8004a44:	e0042000 	.word	0xe0042000
 8004a48:	58024000 	.word	0x58024000
 8004a4c:	f407a5c2 	.word	0xf407a5c2
 8004a50:	b5e8b5cd 	.word	0xb5e8b5cd
 8004a54:	40023000 	.word	0x40023000
 8004a58:	a1facade 	.word	0xa1facade

08004a5c <ai_platform_network_post_init>:
 8004a5c:	b538      	push	{r3, r4, r5, lr}
 8004a5e:	b1f0      	cbz	r0, 8004a9e <ai_platform_network_post_init+0x42>
 8004a60:	4b3c      	ldr	r3, [pc, #240]	; (8004b54 <ai_platform_network_post_init+0xf8>)
 8004a62:	6802      	ldr	r2, [r0, #0]
 8004a64:	429a      	cmp	r2, r3
 8004a66:	4604      	mov	r4, r0
 8004a68:	d119      	bne.n	8004a9e <ai_platform_network_post_init+0x42>
 8004a6a:	f7ff fb4b 	bl	8004104 <_ai_platform_acquire_crc>
 8004a6e:	4b3a      	ldr	r3, [pc, #232]	; (8004b58 <ai_platform_network_post_init+0xfc>)
 8004a70:	681b      	ldr	r3, [r3, #0]
 8004a72:	f403 63e0 	and.w	r3, r3, #1792	; 0x700
 8004a76:	f5b3 6f80 	cmp.w	r3, #1024	; 0x400
 8004a7a:	d03b      	beq.n	8004af4 <ai_platform_network_post_init+0x98>
 8004a7c:	4a37      	ldr	r2, [pc, #220]	; (8004b5c <ai_platform_network_post_init+0x100>)
 8004a7e:	2301      	movs	r3, #1
 8004a80:	f8c2 3c08 	str.w	r3, [r2, #3080]	; 0xc08
 8004a84:	f8d2 3c08 	ldr.w	r3, [r2, #3080]	; 0xc08
 8004a88:	2b00      	cmp	r3, #0
 8004a8a:	d1fb      	bne.n	8004a84 <ai_platform_network_post_init+0x28>
 8004a8c:	4b34      	ldr	r3, [pc, #208]	; (8004b60 <ai_platform_network_post_init+0x104>)
 8004a8e:	f8c2 3c00 	str.w	r3, [r2, #3072]	; 0xc00
 8004a92:	f8d2 2c00 	ldr.w	r2, [r2, #3072]	; 0xc00
 8004a96:	4b33      	ldr	r3, [pc, #204]	; (8004b64 <ai_platform_network_post_init+0x108>)
 8004a98:	429a      	cmp	r2, r3
 8004a9a:	d037      	beq.n	8004b0c <ai_platform_network_post_init+0xb0>
 8004a9c:	e7fe      	b.n	8004a9c <ai_platform_network_post_init+0x40>
 8004a9e:	f7ff fb31 	bl	8004104 <_ai_platform_acquire_crc>
 8004aa2:	4b2d      	ldr	r3, [pc, #180]	; (8004b58 <ai_platform_network_post_init+0xfc>)
 8004aa4:	681b      	ldr	r3, [r3, #0]
 8004aa6:	f403 63e0 	and.w	r3, r3, #1792	; 0x700
 8004aaa:	f5b3 6f80 	cmp.w	r3, #1024	; 0x400
 8004aae:	d010      	beq.n	8004ad2 <ai_platform_network_post_init+0x76>
 8004ab0:	4a2a      	ldr	r2, [pc, #168]	; (8004b5c <ai_platform_network_post_init+0x100>)
 8004ab2:	2301      	movs	r3, #1
 8004ab4:	f8c2 3c08 	str.w	r3, [r2, #3080]	; 0xc08
 8004ab8:	f8d2 3c08 	ldr.w	r3, [r2, #3080]	; 0xc08
 8004abc:	2b00      	cmp	r3, #0
 8004abe:	d1fb      	bne.n	8004ab8 <ai_platform_network_post_init+0x5c>
 8004ac0:	4b27      	ldr	r3, [pc, #156]	; (8004b60 <ai_platform_network_post_init+0x104>)
 8004ac2:	f8c2 3c00 	str.w	r3, [r2, #3072]	; 0xc00
 8004ac6:	f8d2 2c00 	ldr.w	r2, [r2, #3072]	; 0xc00
 8004aca:	4b26      	ldr	r3, [pc, #152]	; (8004b64 <ai_platform_network_post_init+0x108>)
 8004acc:	429a      	cmp	r2, r3
 8004ace:	d00d      	beq.n	8004aec <ai_platform_network_post_init+0x90>
 8004ad0:	e7fe      	b.n	8004ad0 <ai_platform_network_post_init+0x74>
 8004ad2:	4a25      	ldr	r2, [pc, #148]	; (8004b68 <ai_platform_network_post_init+0x10c>)
 8004ad4:	2301      	movs	r3, #1
 8004ad6:	6093      	str	r3, [r2, #8]
 8004ad8:	6893      	ldr	r3, [r2, #8]
 8004ada:	2b00      	cmp	r3, #0
 8004adc:	d1fc      	bne.n	8004ad8 <ai_platform_network_post_init+0x7c>
 8004ade:	4b20      	ldr	r3, [pc, #128]	; (8004b60 <ai_platform_network_post_init+0x104>)
 8004ae0:	6013      	str	r3, [r2, #0]
 8004ae2:	6812      	ldr	r2, [r2, #0]
 8004ae4:	4b1f      	ldr	r3, [pc, #124]	; (8004b64 <ai_platform_network_post_init+0x108>)
 8004ae6:	429a      	cmp	r2, r3
 8004ae8:	d000      	beq.n	8004aec <ai_platform_network_post_init+0x90>
 8004aea:	e7fe      	b.n	8004aea <ai_platform_network_post_init+0x8e>
 8004aec:	f7ff fb0c 	bl	8004108 <_ai_platform_release_crc>
 8004af0:	2000      	movs	r0, #0
 8004af2:	bd38      	pop	{r3, r4, r5, pc}
 8004af4:	4a1c      	ldr	r2, [pc, #112]	; (8004b68 <ai_platform_network_post_init+0x10c>)
 8004af6:	2301      	movs	r3, #1
 8004af8:	6093      	str	r3, [r2, #8]
 8004afa:	6893      	ldr	r3, [r2, #8]
 8004afc:	2b00      	cmp	r3, #0
 8004afe:	d1fc      	bne.n	8004afa <ai_platform_network_post_init+0x9e>
 8004b00:	4b17      	ldr	r3, [pc, #92]	; (8004b60 <ai_platform_network_post_init+0x104>)
 8004b02:	6013      	str	r3, [r2, #0]
 8004b04:	6812      	ldr	r2, [r2, #0]
 8004b06:	4b17      	ldr	r3, [pc, #92]	; (8004b64 <ai_platform_network_post_init+0x108>)
 8004b08:	429a      	cmp	r2, r3
 8004b0a:	d11a      	bne.n	8004b42 <ai_platform_network_post_init+0xe6>
 8004b0c:	f7ff fafc 	bl	8004108 <_ai_platform_release_crc>
 8004b10:	68e3      	ldr	r3, [r4, #12]
 8004b12:	f013 0502 	ands.w	r5, r3, #2
 8004b16:	d015      	beq.n	8004b44 <ai_platform_network_post_init+0xe8>
 8004b18:	4620      	mov	r0, r4
 8004b1a:	f000 f873 	bl	8004c04 <ai_layers_post_init_all>
 8004b1e:	6be3      	ldr	r3, [r4, #60]	; 0x3c
 8004b20:	b16b      	cbz	r3, 8004b3e <ai_platform_network_post_init+0xe2>
 8004b22:	6b65      	ldr	r5, [r4, #52]	; 0x34
 8004b24:	e007      	b.n	8004b36 <ai_platform_network_post_init+0xda>
 8004b26:	e9d4 320f 	ldrd	r3, r2, [r4, #60]	; 0x3c
 8004b2a:	4798      	blx	r3
 8004b2c:	692b      	ldr	r3, [r5, #16]
 8004b2e:	42ab      	cmp	r3, r5
 8004b30:	d005      	beq.n	8004b3e <ai_platform_network_post_init+0xe2>
 8004b32:	b123      	cbz	r3, 8004b3e <ai_platform_network_post_init+0xe2>
 8004b34:	461d      	mov	r5, r3
 8004b36:	4629      	mov	r1, r5
 8004b38:	2000      	movs	r0, #0
 8004b3a:	2d00      	cmp	r5, #0
 8004b3c:	d1f3      	bne.n	8004b26 <ai_platform_network_post_init+0xca>
 8004b3e:	2001      	movs	r0, #1
 8004b40:	bd38      	pop	{r3, r4, r5, pc}
 8004b42:	e7fe      	b.n	8004b42 <ai_platform_network_post_init+0xe6>
 8004b44:	2210      	movs	r2, #16
 8004b46:	2111      	movs	r1, #17
 8004b48:	18a0      	adds	r0, r4, r2
 8004b4a:	f000 f817 	bl	8004b7c <core_set_error>
 8004b4e:	4628      	mov	r0, r5
 8004b50:	bd38      	pop	{r3, r4, r5, pc}
 8004b52:	bf00      	nop
 8004b54:	a1c00100 	.word	0xa1c00100
 8004b58:	e0042000 	.word	0xe0042000
 8004b5c:	58024000 	.word	0x58024000
 8004b60:	f407a5c2 	.word	0xf407a5c2
 8004b64:	b5e8b5cd 	.word	0xb5e8b5cd
 8004b68:	40023000 	.word	0x40023000

08004b6c <core_init>:
 8004b6c:	2001      	movs	r0, #1
 8004b6e:	4770      	bx	lr

08004b70 <core_get_error>:
 8004b70:	4603      	mov	r3, r0
 8004b72:	2200      	movs	r2, #0
 8004b74:	6800      	ldr	r0, [r0, #0]
 8004b76:	601a      	str	r2, [r3, #0]
 8004b78:	4770      	bx	lr
 8004b7a:	bf00      	nop

08004b7c <core_set_error>:
 8004b7c:	4603      	mov	r3, r0
 8004b7e:	7800      	ldrb	r0, [r0, #0]
 8004b80:	b108      	cbz	r0, 8004b86 <core_set_error+0xa>
 8004b82:	2000      	movs	r0, #0
 8004b84:	4770      	bx	lr
 8004b86:	7019      	strb	r1, [r3, #0]
 8004b88:	6819      	ldr	r1, [r3, #0]
 8004b8a:	f362 211f 	bfi	r1, r2, #8, #24
 8004b8e:	2001      	movs	r0, #1
 8004b90:	6019      	str	r1, [r3, #0]
 8004b92:	4770      	bx	lr

08004b94 <ai_check_custom_types>:
 8004b94:	b082      	sub	sp, #8
 8004b96:	4b13      	ldr	r3, [pc, #76]	; (8004be4 <ai_check_custom_types+0x50>)
 8004b98:	9301      	str	r3, [sp, #4]
 8004b9a:	b118      	cbz	r0, 8004ba4 <ai_check_custom_types+0x10>
 8004b9c:	7803      	ldrb	r3, [r0, #0]
 8004b9e:	2b03      	cmp	r3, #3
 8004ba0:	d002      	beq.n	8004ba8 <ai_check_custom_types+0x14>
 8004ba2:	2000      	movs	r0, #0
 8004ba4:	b002      	add	sp, #8
 8004ba6:	4770      	bx	lr
 8004ba8:	f89d 2004 	ldrb.w	r2, [sp, #4]
 8004bac:	4293      	cmp	r3, r2
 8004bae:	d004      	beq.n	8004bba <ai_check_custom_types+0x26>
 8004bb0:	2001      	movs	r0, #1
 8004bb2:	f080 0001 	eor.w	r0, r0, #1
 8004bb6:	b002      	add	sp, #8
 8004bb8:	4770      	bx	lr
 8004bba:	7842      	ldrb	r2, [r0, #1]
 8004bbc:	f89d 3005 	ldrb.w	r3, [sp, #5]
 8004bc0:	429a      	cmp	r2, r3
 8004bc2:	f100 0001 	add.w	r0, r0, #1
 8004bc6:	d1f3      	bne.n	8004bb0 <ai_check_custom_types+0x1c>
 8004bc8:	f810 2f01 	ldrb.w	r2, [r0, #1]!
 8004bcc:	f89d 3006 	ldrb.w	r3, [sp, #6]
 8004bd0:	429a      	cmp	r2, r3
 8004bd2:	d1ed      	bne.n	8004bb0 <ai_check_custom_types+0x1c>
 8004bd4:	7842      	ldrb	r2, [r0, #1]
 8004bd6:	f89d 3007 	ldrb.w	r3, [sp, #7]
 8004bda:	429a      	cmp	r2, r3
 8004bdc:	d1e8      	bne.n	8004bb0 <ai_check_custom_types+0x1c>
 8004bde:	2000      	movs	r0, #0
 8004be0:	e7e7      	b.n	8004bb2 <ai_check_custom_types+0x1e>
 8004be2:	bf00      	nop
 8004be4:	84048403 	.word	0x84048403

08004be8 <ai_layers_init_all>:
 8004be8:	4601      	mov	r1, r0
 8004bea:	2000      	movs	r0, #0
 8004bec:	6b4b      	ldr	r3, [r1, #52]	; 0x34
 8004bee:	b143      	cbz	r3, 8004c02 <ai_layers_init_all+0x1a>
 8004bf0:	691a      	ldr	r2, [r3, #16]
 8004bf2:	60d9      	str	r1, [r3, #12]
 8004bf4:	429a      	cmp	r2, r3
 8004bf6:	f100 0001 	add.w	r0, r0, #1
 8004bfa:	d002      	beq.n	8004c02 <ai_layers_init_all+0x1a>
 8004bfc:	b10a      	cbz	r2, 8004c02 <ai_layers_init_all+0x1a>
 8004bfe:	4613      	mov	r3, r2
 8004c00:	e7f5      	b.n	8004bee <ai_layers_init_all+0x6>
 8004c02:	4770      	bx	lr

08004c04 <ai_layers_post_init_all>:
 8004c04:	b538      	push	{r3, r4, r5, lr}
 8004c06:	6b44      	ldr	r4, [r0, #52]	; 0x34
 8004c08:	2500      	movs	r5, #0
 8004c0a:	b16c      	cbz	r4, 8004c28 <ai_layers_post_init_all+0x24>
 8004c0c:	6863      	ldr	r3, [r4, #4]
 8004c0e:	07db      	lsls	r3, r3, #31
 8004c10:	d504      	bpl.n	8004c1c <ai_layers_post_init_all+0x18>
 8004c12:	6a23      	ldr	r3, [r4, #32]
 8004c14:	4620      	mov	r0, r4
 8004c16:	b10b      	cbz	r3, 8004c1c <ai_layers_post_init_all+0x18>
 8004c18:	4798      	blx	r3
 8004c1a:	3501      	adds	r5, #1
 8004c1c:	6923      	ldr	r3, [r4, #16]
 8004c1e:	42a3      	cmp	r3, r4
 8004c20:	d002      	beq.n	8004c28 <ai_layers_post_init_all+0x24>
 8004c22:	b10b      	cbz	r3, 8004c28 <ai_layers_post_init_all+0x24>
 8004c24:	461c      	mov	r4, r3
 8004c26:	e7f0      	b.n	8004c0a <ai_layers_post_init_all+0x6>
 8004c28:	4628      	mov	r0, r5
 8004c2a:	bd38      	pop	{r3, r4, r5, pc}

08004c2c <forward_dense>:
 8004c2c:	6983      	ldr	r3, [r0, #24]
 8004c2e:	881a      	ldrh	r2, [r3, #0]
 8004c30:	2a00      	cmp	r2, #0
 8004c32:	f000 8181 	beq.w	8004f38 <forward_dense+0x30c>
 8004c36:	e92d 4ff0 	stmdb	sp!, {r4, r5, r6, r7, r8, r9, sl, fp, lr}
 8004c3a:	ed2d 8b02 	vpush	{d8}
 8004c3e:	f8d3 c004 	ldr.w	ip, [r3, #4]
 8004c42:	f8dc 5004 	ldr.w	r5, [ip, #4]
 8004c46:	b095      	sub	sp, #84	; 0x54
 8004c48:	b105      	cbz	r5, 8004c4c <forward_dense+0x20>
 8004c4a:	682d      	ldr	r5, [r5, #0]
 8004c4c:	2a01      	cmp	r2, #1
 8004c4e:	f000 828f 	beq.w	8005170 <forward_dense+0x544>
 8004c52:	f8dc 6010 	ldr.w	r6, [ip, #16]
 8004c56:	b106      	cbz	r6, 8004c5a <forward_dense+0x2e>
 8004c58:	6836      	ldr	r6, [r6, #0]
 8004c5a:	2a02      	cmp	r2, #2
 8004c5c:	f000 816e 	beq.w	8004f3c <forward_dense+0x310>
 8004c60:	f8dc 301c 	ldr.w	r3, [ip, #28]
 8004c64:	930b      	str	r3, [sp, #44]	; 0x2c
 8004c66:	2b00      	cmp	r3, #0
 8004c68:	f000 8274 	beq.w	8005154 <forward_dense+0x528>
 8004c6c:	4619      	mov	r1, r3
 8004c6e:	f8bc 3018 	ldrh.w	r3, [ip, #24]
 8004c72:	6809      	ldr	r1, [r1, #0]
 8004c74:	910d      	str	r1, [sp, #52]	; 0x34
 8004c76:	2b01      	cmp	r3, #1
 8004c78:	f240 826e 	bls.w	8005158 <forward_dense+0x52c>
 8004c7c:	9b0b      	ldr	r3, [sp, #44]	; 0x2c
 8004c7e:	685b      	ldr	r3, [r3, #4]
 8004c80:	930b      	str	r3, [sp, #44]	; 0x2c
 8004c82:	460b      	mov	r3, r1
 8004c84:	68e8      	ldr	r0, [r5, #12]
 8004c86:	68f7      	ldr	r7, [r6, #12]
 8004c88:	6840      	ldr	r0, [r0, #4]
 8004c8a:	6999      	ldr	r1, [r3, #24]
 8004c8c:	9013      	str	r0, [sp, #76]	; 0x4c
 8004c8e:	6878      	ldr	r0, [r7, #4]
 8004c90:	680b      	ldr	r3, [r1, #0]
 8004c92:	9012      	str	r0, [sp, #72]	; 0x48
 8004c94:	e9d7 4702 	ldrd	r4, r7, [r7, #8]
 8004c98:	f3c3 1ec6 	ubfx	lr, r3, #7, #7
 8004c9c:	fb00 f404 	mul.w	r4, r0, r4
 8004ca0:	f3c3 5041 	ubfx	r0, r3, #21, #2
 8004ca4:	fa4e f000 	asr.w	r0, lr, r0
 8004ca8:	2a03      	cmp	r2, #3
 8004caa:	9010      	str	r0, [sp, #64]	; 0x40
 8004cac:	f000 825d 	beq.w	800516a <forward_dense+0x53e>
 8004cb0:	f8dc 2028 	ldr.w	r2, [ip, #40]	; 0x28
 8004cb4:	f3c3 4343 	ubfx	r3, r3, #17, #4
 8004cb8:	2a00      	cmp	r2, #0
 8004cba:	f000 8246 	beq.w	800514a <forward_dense+0x51e>
 8004cbe:	6812      	ldr	r2, [r2, #0]
 8004cc0:	2a00      	cmp	r2, #0
 8004cc2:	f000 8242 	beq.w	800514a <forward_dense+0x51e>
 8004cc6:	2b04      	cmp	r3, #4
 8004cc8:	f8d2 9018 	ldr.w	r9, [r2, #24]
 8004ccc:	f000 822c 	beq.w	8005128 <forward_dense+0x4fc>
 8004cd0:	2b08      	cmp	r3, #8
 8004cd2:	f000 8229 	beq.w	8005128 <forward_dense+0x4fc>
 8004cd6:	f04f 0b00 	mov.w	fp, #0
 8004cda:	69b2      	ldr	r2, [r6, #24]
 8004cdc:	69ab      	ldr	r3, [r5, #24]
 8004cde:	6891      	ldr	r1, [r2, #8]
 8004ce0:	9a0d      	ldr	r2, [sp, #52]	; 0x34
 8004ce2:	689b      	ldr	r3, [r3, #8]
 8004ce4:	6952      	ldr	r2, [r2, #20]
 8004ce6:	9106      	str	r1, [sp, #24]
 8004ce8:	fb07 f404 	mul.w	r4, r7, r4
 8004cec:	f8d2 9004 	ldr.w	r9, [r2, #4]
 8004cf0:	9a12      	ldr	r2, [sp, #72]	; 0x48
 8004cf2:	eb01 0084 	add.w	r0, r1, r4, lsl #2
 8004cf6:	4281      	cmp	r1, r0
 8004cf8:	ea4f 0482 	mov.w	r4, r2, lsl #2
 8004cfc:	900e      	str	r0, [sp, #56]	; 0x38
 8004cfe:	940c      	str	r4, [sp, #48]	; 0x30
 8004d00:	eb01 0882 	add.w	r8, r1, r2, lsl #2
 8004d04:	f080 8113 	bcs.w	8004f2e <forward_dense+0x302>
 8004d08:	9913      	ldr	r1, [sp, #76]	; 0x4c
 8004d0a:	ed9f 8a93 	vldr	s16, [pc, #588]	; 8004f58 <forward_dense+0x32c>
 8004d0e:	f021 0201 	bic.w	r2, r1, #1
 8004d12:	eb03 0282 	add.w	r2, r3, r2, lsl #2
 8004d16:	9204      	str	r2, [sp, #16]
 8004d18:	f001 0201 	and.w	r2, r1, #1
 8004d1c:	08c8      	lsrs	r0, r1, #3
 8004d1e:	9208      	str	r2, [sp, #32]
 8004d20:	008a      	lsls	r2, r1, #2
 8004d22:	f001 0a07 	and.w	sl, r1, #7
 8004d26:	920f      	str	r2, [sp, #60]	; 0x3c
 8004d28:	eb03 1240 	add.w	r2, r3, r0, lsl #5
 8004d2c:	3320      	adds	r3, #32
 8004d2e:	465c      	mov	r4, fp
 8004d30:	9007      	str	r0, [sp, #28]
 8004d32:	46cb      	mov	fp, r9
 8004d34:	9205      	str	r2, [sp, #20]
 8004d36:	9302      	str	r3, [sp, #8]
 8004d38:	46c1      	mov	r9, r8
 8004d3a:	f8cd a044 	str.w	sl, [sp, #68]	; 0x44
 8004d3e:	9b0d      	ldr	r3, [sp, #52]	; 0x34
 8004d40:	699b      	ldr	r3, [r3, #24]
 8004d42:	689a      	ldr	r2, [r3, #8]
 8004d44:	9b02      	ldr	r3, [sp, #8]
 8004d46:	3b20      	subs	r3, #32
 8004d48:	930a      	str	r3, [sp, #40]	; 0x28
 8004d4a:	9b0b      	ldr	r3, [sp, #44]	; 0x2c
 8004d4c:	b10b      	cbz	r3, 8004d52 <forward_dense+0x126>
 8004d4e:	699b      	ldr	r3, [r3, #24]
 8004d50:	689b      	ldr	r3, [r3, #8]
 8004d52:	2c00      	cmp	r4, #0
 8004d54:	f000 81da 	beq.w	800510c <forward_dense+0x4e0>
 8004d58:	9910      	ldr	r1, [sp, #64]	; 0x40
 8004d5a:	2904      	cmp	r1, #4
 8004d5c:	9906      	ldr	r1, [sp, #24]
 8004d5e:	f000 80fd 	beq.w	8004f5c <forward_dense+0x330>
 8004d62:	4549      	cmp	r1, r9
 8004d64:	f080 80d2 	bcs.w	8004f0c <forward_dense+0x2e0>
 8004d68:	460f      	mov	r7, r1
 8004d6a:	9907      	ldr	r1, [sp, #28]
 8004d6c:	f8dd 8008 	ldr.w	r8, [sp, #8]
 8004d70:	f8dd a014 	ldr.w	sl, [sp, #20]
 8004d74:	1c4e      	adds	r6, r1, #1
 8004d76:	eb02 06c6 	add.w	r6, r2, r6, lsl #3
 8004d7a:	4694      	mov	ip, r2
 8004d7c:	9a11      	ldr	r2, [sp, #68]	; 0x44
 8004d7e:	468e      	mov	lr, r1
 8004d80:	2b00      	cmp	r3, #0
 8004d82:	f000 80de 	beq.w	8004f42 <forward_dense+0x316>
 8004d86:	ecf3 2a01 	vldmia	r3!, {s5}
 8004d8a:	ed9f 7a73 	vldr	s14, [pc, #460]	; 8004f58 <forward_dense+0x32c>
 8004d8e:	f1be 0f00 	cmp.w	lr, #0
 8004d92:	f000 80de 	beq.w	8004f52 <forward_dense+0x326>
 8004d96:	f10c 0108 	add.w	r1, ip, #8
 8004d9a:	4640      	mov	r0, r8
 8004d9c:	f811 5c07 	ldrb.w	r5, [r1, #-7]
 8004da0:	ed10 3a07 	vldr	s6, [r0, #-28]	; 0xffffffe4
 8004da4:	ed50 3a08 	vldr	s7, [r0, #-32]	; 0xffffffe0
 8004da8:	ed10 4a06 	vldr	s8, [r0, #-24]	; 0xffffffe8
 8004dac:	ed50 4a05 	vldr	s9, [r0, #-20]	; 0xffffffec
 8004db0:	ed10 5a04 	vldr	s10, [r0, #-16]
 8004db4:	ed50 5a03 	vldr	s11, [r0, #-12]
 8004db8:	ed10 6a02 	vldr	s12, [r0, #-8]
 8004dbc:	ed50 6a01 	vldr	s13, [r0, #-4]
 8004dc0:	eb04 0585 	add.w	r5, r4, r5, lsl #2
 8004dc4:	edd5 7a00 	vldr	s15, [r5]
 8004dc8:	f811 5c08 	ldrb.w	r5, [r1, #-8]
 8004dcc:	eb04 0585 	add.w	r5, r4, r5, lsl #2
 8004dd0:	ee67 7a83 	vmul.f32	s15, s15, s6
 8004dd4:	ed95 3a00 	vldr	s6, [r5]
 8004dd8:	f811 5c06 	ldrb.w	r5, [r1, #-6]
 8004ddc:	eee3 7a23 	vfma.f32	s15, s6, s7
 8004de0:	eb04 0585 	add.w	r5, r4, r5, lsl #2
 8004de4:	3108      	adds	r1, #8
 8004de6:	edd5 3a00 	vldr	s7, [r5]
 8004dea:	f811 5c0d 	ldrb.w	r5, [r1, #-13]
 8004dee:	eee3 7a84 	vfma.f32	s15, s7, s8
 8004df2:	eb04 0585 	add.w	r5, r4, r5, lsl #2
 8004df6:	3020      	adds	r0, #32
 8004df8:	ed95 4a00 	vldr	s8, [r5]
 8004dfc:	f811 5c0c 	ldrb.w	r5, [r1, #-12]
 8004e00:	eee4 7a24 	vfma.f32	s15, s8, s9
 8004e04:	eb04 0585 	add.w	r5, r4, r5, lsl #2
 8004e08:	edd5 4a00 	vldr	s9, [r5]
 8004e0c:	f811 5c0b 	ldrb.w	r5, [r1, #-11]
 8004e10:	eee4 7a85 	vfma.f32	s15, s9, s10
 8004e14:	eb04 0585 	add.w	r5, r4, r5, lsl #2
 8004e18:	ed95 5a00 	vldr	s10, [r5]
 8004e1c:	f811 5c0a 	ldrb.w	r5, [r1, #-10]
 8004e20:	eee5 7a25 	vfma.f32	s15, s10, s11
 8004e24:	eb04 0585 	add.w	r5, r4, r5, lsl #2
 8004e28:	edd5 5a00 	vldr	s11, [r5]
 8004e2c:	f811 5c09 	ldrb.w	r5, [r1, #-9]
 8004e30:	eee5 7a86 	vfma.f32	s15, s11, s12
 8004e34:	eb04 0585 	add.w	r5, r4, r5, lsl #2
 8004e38:	428e      	cmp	r6, r1
 8004e3a:	ed95 6a00 	vldr	s12, [r5]
 8004e3e:	eee6 7a26 	vfma.f32	s15, s12, s13
 8004e42:	ee37 7a27 	vadd.f32	s14, s14, s15
 8004e46:	d1a9      	bne.n	8004d9c <forward_dense+0x170>
 8004e48:	f1a6 0108 	sub.w	r1, r6, #8
 8004e4c:	4650      	mov	r0, sl
 8004e4e:	2a00      	cmp	r2, #0
 8004e50:	d04a      	beq.n	8004ee8 <forward_dense+0x2bc>
 8004e52:	780d      	ldrb	r5, [r1, #0]
 8004e54:	edd0 6a00 	vldr	s13, [r0]
 8004e58:	eb04 0585 	add.w	r5, r4, r5, lsl #2
 8004e5c:	edd5 7a00 	vldr	s15, [r5]
 8004e60:	2a01      	cmp	r2, #1
 8004e62:	eea6 7aa7 	vfma.f32	s14, s13, s15
 8004e66:	d03f      	beq.n	8004ee8 <forward_dense+0x2bc>
 8004e68:	784d      	ldrb	r5, [r1, #1]
 8004e6a:	edd0 6a01 	vldr	s13, [r0, #4]
 8004e6e:	eb04 0585 	add.w	r5, r4, r5, lsl #2
 8004e72:	edd5 7a00 	vldr	s15, [r5]
 8004e76:	2a02      	cmp	r2, #2
 8004e78:	eea6 7aa7 	vfma.f32	s14, s13, s15
 8004e7c:	d034      	beq.n	8004ee8 <forward_dense+0x2bc>
 8004e7e:	788d      	ldrb	r5, [r1, #2]
 8004e80:	edd0 6a02 	vldr	s13, [r0, #8]
 8004e84:	eb04 0585 	add.w	r5, r4, r5, lsl #2
 8004e88:	edd5 7a00 	vldr	s15, [r5]
 8004e8c:	2a03      	cmp	r2, #3
 8004e8e:	eea6 7aa7 	vfma.f32	s14, s13, s15
 8004e92:	d029      	beq.n	8004ee8 <forward_dense+0x2bc>
 8004e94:	78cd      	ldrb	r5, [r1, #3]
 8004e96:	edd0 6a03 	vldr	s13, [r0, #12]
 8004e9a:	eb04 0585 	add.w	r5, r4, r5, lsl #2
 8004e9e:	edd5 7a00 	vldr	s15, [r5]
 8004ea2:	2a04      	cmp	r2, #4
 8004ea4:	eea6 7aa7 	vfma.f32	s14, s13, s15
 8004ea8:	d01e      	beq.n	8004ee8 <forward_dense+0x2bc>
 8004eaa:	790d      	ldrb	r5, [r1, #4]
 8004eac:	edd0 6a04 	vldr	s13, [r0, #16]
 8004eb0:	eb04 0585 	add.w	r5, r4, r5, lsl #2
 8004eb4:	edd5 7a00 	vldr	s15, [r5]
 8004eb8:	2a05      	cmp	r2, #5
 8004eba:	eea6 7aa7 	vfma.f32	s14, s13, s15
 8004ebe:	d013      	beq.n	8004ee8 <forward_dense+0x2bc>
 8004ec0:	794d      	ldrb	r5, [r1, #5]
 8004ec2:	edd0 6a05 	vldr	s13, [r0, #20]
 8004ec6:	eb04 0585 	add.w	r5, r4, r5, lsl #2
 8004eca:	edd5 7a00 	vldr	s15, [r5]
 8004ece:	2a06      	cmp	r2, #6
 8004ed0:	eea6 7aa7 	vfma.f32	s14, s13, s15
 8004ed4:	d008      	beq.n	8004ee8 <forward_dense+0x2bc>
 8004ed6:	7989      	ldrb	r1, [r1, #6]
 8004ed8:	edd0 7a06 	vldr	s15, [r0, #24]
 8004edc:	eb04 0181 	add.w	r1, r4, r1, lsl #2
 8004ee0:	edd1 6a00 	vldr	s13, [r1]
 8004ee4:	eea6 7aa7 	vfma.f32	s14, s13, s15
 8004ee8:	44dc      	add	ip, fp
 8004eea:	445e      	add	r6, fp
 8004eec:	ee32 7a87 	vadd.f32	s14, s5, s14
 8004ef0:	eca7 7a01 	vstmia	r7!, {s14}
 8004ef4:	454f      	cmp	r7, r9
 8004ef6:	f4ff af43 	bcc.w	8004d80 <forward_dense+0x154>
 8004efa:	9a06      	ldr	r2, [sp, #24]
 8004efc:	eba9 0302 	sub.w	r3, r9, r2
 8004f00:	3b01      	subs	r3, #1
 8004f02:	f023 0303 	bic.w	r3, r3, #3
 8004f06:	3304      	adds	r3, #4
 8004f08:	18d3      	adds	r3, r2, r3
 8004f0a:	9306      	str	r3, [sp, #24]
 8004f0c:	9b0c      	ldr	r3, [sp, #48]	; 0x30
 8004f0e:	9a05      	ldr	r2, [sp, #20]
 8004f10:	4499      	add	r9, r3
 8004f12:	9b0f      	ldr	r3, [sp, #60]	; 0x3c
 8004f14:	441a      	add	r2, r3
 8004f16:	9205      	str	r2, [sp, #20]
 8004f18:	9a02      	ldr	r2, [sp, #8]
 8004f1a:	441a      	add	r2, r3
 8004f1c:	9202      	str	r2, [sp, #8]
 8004f1e:	9a04      	ldr	r2, [sp, #16]
 8004f20:	441a      	add	r2, r3
 8004f22:	9204      	str	r2, [sp, #16]
 8004f24:	9b06      	ldr	r3, [sp, #24]
 8004f26:	9a0e      	ldr	r2, [sp, #56]	; 0x38
 8004f28:	4293      	cmp	r3, r2
 8004f2a:	f4ff af08 	bcc.w	8004d3e <forward_dense+0x112>
 8004f2e:	b015      	add	sp, #84	; 0x54
 8004f30:	ecbd 8b02 	vpop	{d8}
 8004f34:	e8bd 8ff0 	ldmia.w	sp!, {r4, r5, r6, r7, r8, r9, sl, fp, pc}
 8004f38:	6853      	ldr	r3, [r2, #4]
 8004f3a:	deff      	udf	#255	; 0xff
 8004f3c:	2300      	movs	r3, #0
 8004f3e:	685b      	ldr	r3, [r3, #4]
 8004f40:	deff      	udf	#255	; 0xff
 8004f42:	ed9f 7a05 	vldr	s14, [pc, #20]	; 8004f58 <forward_dense+0x32c>
 8004f46:	eef0 2a48 	vmov.f32	s5, s16
 8004f4a:	f1be 0f00 	cmp.w	lr, #0
 8004f4e:	f47f af22 	bne.w	8004d96 <forward_dense+0x16a>
 8004f52:	980a      	ldr	r0, [sp, #40]	; 0x28
 8004f54:	4661      	mov	r1, ip
 8004f56:	e77a      	b.n	8004e4e <forward_dense+0x222>
 8004f58:	00000000 	.word	0x00000000
 8004f5c:	4549      	cmp	r1, r9
 8004f5e:	d2d5      	bcs.n	8004f0c <forward_dense+0x2e0>
 8004f60:	9807      	ldr	r0, [sp, #28]
 8004f62:	9103      	str	r1, [sp, #12]
 8004f64:	9904      	ldr	r1, [sp, #16]
 8004f66:	f100 0c01 	add.w	ip, r0, #1
 8004f6a:	3901      	subs	r1, #1
 8004f6c:	eb02 0c8c 	add.w	ip, r2, ip, lsl #2
 8004f70:	9109      	str	r1, [sp, #36]	; 0x24
 8004f72:	2b00      	cmp	r3, #0
 8004f74:	f000 80b2 	beq.w	80050dc <forward_dense+0x4b0>
 8004f78:	9907      	ldr	r1, [sp, #28]
 8004f7a:	ecf3 2a01 	vldmia	r3!, {s5}
 8004f7e:	ed1f 7a0a 	vldr	s14, [pc, #-40]	; 8004f58 <forward_dense+0x32c>
 8004f82:	2900      	cmp	r1, #0
 8004f84:	f000 80b2 	beq.w	80050ec <forward_dense+0x4c0>
 8004f88:	9902      	ldr	r1, [sp, #8]
 8004f8a:	1d10      	adds	r0, r2, #4
 8004f8c:	f810 6c04 	ldrb.w	r6, [r0, #-4]
 8004f90:	ed11 2a07 	vldr	s4, [r1, #-28]	; 0xffffffe4
 8004f94:	f810 5c03 	ldrb.w	r5, [r0, #-3]
 8004f98:	ed51 3a08 	vldr	s7, [r1, #-32]	; 0xffffffe0
 8004f9c:	ed11 4a06 	vldr	s8, [r1, #-24]	; 0xffffffe8
 8004fa0:	ed51 4a05 	vldr	s9, [r1, #-20]	; 0xffffffec
 8004fa4:	ed11 5a04 	vldr	s10, [r1, #-16]
 8004fa8:	ed51 5a03 	vldr	s11, [r1, #-12]
 8004fac:	ed11 6a02 	vldr	s12, [r1, #-8]
 8004fb0:	ed51 6a01 	vldr	s13, [r1, #-4]
 8004fb4:	f006 070f 	and.w	r7, r6, #15
 8004fb8:	eb04 0787 	add.w	r7, r4, r7, lsl #2
 8004fbc:	edd7 7a00 	vldr	s15, [r7]
 8004fc0:	0936      	lsrs	r6, r6, #4
 8004fc2:	eb04 0686 	add.w	r6, r4, r6, lsl #2
 8004fc6:	ed96 3a00 	vldr	s6, [r6]
 8004fca:	ee67 7a82 	vmul.f32	s15, s15, s4
 8004fce:	092e      	lsrs	r6, r5, #4
 8004fd0:	eee3 7a23 	vfma.f32	s15, s6, s7
 8004fd4:	eb04 0686 	add.w	r6, r4, r6, lsl #2
 8004fd8:	f005 050f 	and.w	r5, r5, #15
 8004fdc:	edd6 3a00 	vldr	s7, [r6]
 8004fe0:	f810 6c02 	ldrb.w	r6, [r0, #-2]
 8004fe4:	eee3 7a84 	vfma.f32	s15, s7, s8
 8004fe8:	eb04 0585 	add.w	r5, r4, r5, lsl #2
 8004fec:	0937      	lsrs	r7, r6, #4
 8004fee:	ed95 4a00 	vldr	s8, [r5]
 8004ff2:	f810 5c01 	ldrb.w	r5, [r0, #-1]
 8004ff6:	eee4 7a24 	vfma.f32	s15, s8, s9
 8004ffa:	eb04 0787 	add.w	r7, r4, r7, lsl #2
 8004ffe:	f006 060f 	and.w	r6, r6, #15
 8005002:	edd7 4a00 	vldr	s9, [r7]
 8005006:	eee4 7a85 	vfma.f32	s15, s9, s10
 800500a:	eb04 0686 	add.w	r6, r4, r6, lsl #2
 800500e:	3004      	adds	r0, #4
 8005010:	ed96 5a00 	vldr	s10, [r6]
 8005014:	092e      	lsrs	r6, r5, #4
 8005016:	eee5 7a25 	vfma.f32	s15, s10, s11
 800501a:	eb04 0686 	add.w	r6, r4, r6, lsl #2
 800501e:	f005 050f 	and.w	r5, r5, #15
 8005022:	edd6 5a00 	vldr	s11, [r6]
 8005026:	eee5 7a86 	vfma.f32	s15, s11, s12
 800502a:	eb04 0585 	add.w	r5, r4, r5, lsl #2
 800502e:	4584      	cmp	ip, r0
 8005030:	ed95 6a00 	vldr	s12, [r5]
 8005034:	eee6 7a26 	vfma.f32	s15, s12, s13
 8005038:	f101 0120 	add.w	r1, r1, #32
 800503c:	ee37 7a27 	vadd.f32	s14, s14, s15
 8005040:	d1a4      	bne.n	8004f8c <forward_dense+0x360>
 8005042:	f8dd e014 	ldr.w	lr, [sp, #20]
 8005046:	f1ac 0804 	sub.w	r8, ip, #4
 800504a:	9904      	ldr	r1, [sp, #16]
 800504c:	458e      	cmp	lr, r1
 800504e:	d22a      	bcs.n	80050a6 <forward_dense+0x47a>
 8005050:	9909      	ldr	r1, [sp, #36]	; 0x24
 8005052:	eba1 070e 	sub.w	r7, r1, lr
 8005056:	ea4f 0ad7 	mov.w	sl, r7, lsr #3
 800505a:	f10e 0008 	add.w	r0, lr, #8
 800505e:	f108 36ff 	add.w	r6, r8, #4294967295
 8005062:	eb08 07d7 	add.w	r7, r8, r7, lsr #3
 8005066:	f816 1f01 	ldrb.w	r1, [r6, #1]!
 800506a:	ed50 5a01 	vldr	s11, [r0, #-4]
 800506e:	ed50 6a02 	vldr	s13, [r0, #-8]
 8005072:	f001 050f 	and.w	r5, r1, #15
 8005076:	eb04 0585 	add.w	r5, r4, r5, lsl #2
 800507a:	edd5 7a00 	vldr	s15, [r5]
 800507e:	0909      	lsrs	r1, r1, #4
 8005080:	eb04 0181 	add.w	r1, r4, r1, lsl #2
 8005084:	ed91 6a00 	vldr	s12, [r1]
 8005088:	ee67 7aa5 	vmul.f32	s15, s15, s11
 800508c:	42b7      	cmp	r7, r6
 800508e:	eee6 7a26 	vfma.f32	s15, s12, s13
 8005092:	f100 0008 	add.w	r0, r0, #8
 8005096:	ee37 7a27 	vadd.f32	s14, s14, s15
 800509a:	d1e4      	bne.n	8005066 <forward_dense+0x43a>
 800509c:	f10a 0a01 	add.w	sl, sl, #1
 80050a0:	44d0      	add	r8, sl
 80050a2:	eb0e 0eca 	add.w	lr, lr, sl, lsl #3
 80050a6:	9908      	ldr	r1, [sp, #32]
 80050a8:	b321      	cbz	r1, 80050f4 <forward_dense+0x4c8>
 80050aa:	f898 1000 	ldrb.w	r1, [r8]
 80050ae:	edde 7a00 	vldr	s15, [lr]
 80050b2:	0909      	lsrs	r1, r1, #4
 80050b4:	eb04 0181 	add.w	r1, r4, r1, lsl #2
 80050b8:	edd1 6a00 	vldr	s13, [r1]
 80050bc:	9903      	ldr	r1, [sp, #12]
 80050be:	eea6 7aa7 	vfma.f32	s14, s13, s15
 80050c2:	445a      	add	r2, fp
 80050c4:	44dc      	add	ip, fp
 80050c6:	ee72 2a87 	vadd.f32	s5, s5, s14
 80050ca:	ece1 2a01 	vstmia	r1!, {s5}
 80050ce:	4589      	cmp	r9, r1
 80050d0:	9103      	str	r1, [sp, #12]
 80050d2:	f67f af12 	bls.w	8004efa <forward_dense+0x2ce>
 80050d6:	2b00      	cmp	r3, #0
 80050d8:	f47f af4e 	bne.w	8004f78 <forward_dense+0x34c>
 80050dc:	9907      	ldr	r1, [sp, #28]
 80050de:	ed1f 7a62 	vldr	s14, [pc, #-392]	; 8004f58 <forward_dense+0x32c>
 80050e2:	eef0 2a48 	vmov.f32	s5, s16
 80050e6:	2900      	cmp	r1, #0
 80050e8:	f47f af4e 	bne.w	8004f88 <forward_dense+0x35c>
 80050ec:	f8dd e028 	ldr.w	lr, [sp, #40]	; 0x28
 80050f0:	4690      	mov	r8, r2
 80050f2:	e7aa      	b.n	800504a <forward_dense+0x41e>
 80050f4:	9903      	ldr	r1, [sp, #12]
 80050f6:	ee32 7a87 	vadd.f32	s14, s5, s14
 80050fa:	445a      	add	r2, fp
 80050fc:	eca1 7a01 	vstmia	r1!, {s14}
 8005100:	4549      	cmp	r1, r9
 8005102:	9103      	str	r1, [sp, #12]
 8005104:	44dc      	add	ip, fp
 8005106:	f4ff af34 	bcc.w	8004f72 <forward_dense+0x346>
 800510a:	e6f6      	b.n	8004efa <forward_dense+0x2ce>
 800510c:	9912      	ldr	r1, [sp, #72]	; 0x48
 800510e:	9d06      	ldr	r5, [sp, #24]
 8005110:	9101      	str	r1, [sp, #4]
 8005112:	9913      	ldr	r1, [sp, #76]	; 0x4c
 8005114:	9100      	str	r1, [sp, #0]
 8005116:	4628      	mov	r0, r5
 8005118:	990a      	ldr	r1, [sp, #40]	; 0x28
 800511a:	f001 fde9 	bl	8006cf0 <forward_lite_dense_if32of32wf32>
 800511e:	9a0c      	ldr	r2, [sp, #48]	; 0x30
 8005120:	462b      	mov	r3, r5
 8005122:	4413      	add	r3, r2
 8005124:	9306      	str	r3, [sp, #24]
 8005126:	e6f1      	b.n	8004f0c <forward_dense+0x2e0>
 8005128:	f8d1 800c 	ldr.w	r8, [r1, #12]
 800512c:	f1b9 0f00 	cmp.w	r9, #0
 8005130:	d016      	beq.n	8005160 <forward_dense+0x534>
 8005132:	e9d9 0100 	ldrd	r0, r1, [r9]
 8005136:	f002 f84d 	bl	80071d4 <ai_array_get_byte_size>
 800513a:	f8d9 b00c 	ldr.w	fp, [r9, #12]
 800513e:	4602      	mov	r2, r0
 8005140:	4659      	mov	r1, fp
 8005142:	4640      	mov	r0, r8
 8005144:	f001 ff54 	bl	8006ff0 <st_int8_copy>
 8005148:	e5c7      	b.n	8004cda <forward_dense+0xae>
 800514a:	2b04      	cmp	r3, #4
 800514c:	d00a      	beq.n	8005164 <forward_dense+0x538>
 800514e:	f04f 0900 	mov.w	r9, #0
 8005152:	e5bd      	b.n	8004cd0 <forward_dense+0xa4>
 8005154:	930d      	str	r3, [sp, #52]	; 0x34
 8005156:	e595      	b.n	8004c84 <forward_dense+0x58>
 8005158:	2300      	movs	r3, #0
 800515a:	930b      	str	r3, [sp, #44]	; 0x2c
 800515c:	460b      	mov	r3, r1
 800515e:	e591      	b.n	8004c84 <forward_dense+0x58>
 8005160:	46c3      	mov	fp, r8
 8005162:	e5ba      	b.n	8004cda <forward_dense+0xae>
 8005164:	f8d1 b00c 	ldr.w	fp, [r1, #12]
 8005168:	e5b7      	b.n	8004cda <forward_dense+0xae>
 800516a:	2300      	movs	r3, #0
 800516c:	685b      	ldr	r3, [r3, #4]
 800516e:	deff      	udf	#255	; 0xff
 8005170:	2300      	movs	r3, #0
 8005172:	685b      	ldr	r3, [r3, #4]
 8005174:	deff      	udf	#255	; 0xff
 8005176:	bf00      	nop

08005178 <nl_func_sigmoid_array_f32>:
 8005178:	b5f8      	push	{r3, r4, r5, r6, r7, lr}
 800517a:	ed2d 8b02 	vpush	{d8}
 800517e:	698f      	ldr	r7, [r1, #24]
 8005180:	6980      	ldr	r0, [r0, #24]
 8005182:	68b9      	ldr	r1, [r7, #8]
 8005184:	6886      	ldr	r6, [r0, #8]
 8005186:	f102 4280 	add.w	r2, r2, #1073741824	; 0x40000000
 800518a:	3a01      	subs	r2, #1
 800518c:	0093      	lsls	r3, r2, #2
 800518e:	eb01 0282 	add.w	r2, r1, r2, lsl #2
 8005192:	4291      	cmp	r1, r2
 8005194:	d815      	bhi.n	80051c2 <nl_func_sigmoid_array_f32+0x4a>
 8005196:	3304      	adds	r3, #4
 8005198:	1d14      	adds	r4, r2, #4
 800519a:	441e      	add	r6, r3
 800519c:	eeb7 8a00 	vmov.f32	s16, #112	; 0x3f800000  1.0
 80051a0:	4625      	mov	r5, r4
 80051a2:	ed34 0a01 	vldmdb	r4!, {s0}
 80051a6:	eeb1 0a40 	vneg.f32	s0, s0
 80051aa:	f004 fec1 	bl	8009f30 <expf>
 80051ae:	ee30 0a08 	vadd.f32	s0, s0, s16
 80051b2:	3d08      	subs	r5, #8
 80051b4:	eec8 7a00 	vdiv.f32	s15, s16, s0
 80051b8:	ed66 7a01 	vstmdb	r6!, {s15}
 80051bc:	68bb      	ldr	r3, [r7, #8]
 80051be:	42ab      	cmp	r3, r5
 80051c0:	d9ee      	bls.n	80051a0 <nl_func_sigmoid_array_f32+0x28>
 80051c2:	ecbd 8b02 	vpop	{d8}
 80051c6:	bdf8      	pop	{r3, r4, r5, r6, r7, pc}

080051c8 <nl_func_tanh_array_f32>:
 80051c8:	b5f8      	push	{r3, r4, r5, r6, r7, lr}
 80051ca:	698f      	ldr	r7, [r1, #24]
 80051cc:	6980      	ldr	r0, [r0, #24]
 80051ce:	68b9      	ldr	r1, [r7, #8]
 80051d0:	6886      	ldr	r6, [r0, #8]
 80051d2:	f102 4280 	add.w	r2, r2, #1073741824	; 0x40000000
 80051d6:	3a01      	subs	r2, #1
 80051d8:	0093      	lsls	r3, r2, #2
 80051da:	eb01 0282 	add.w	r2, r1, r2, lsl #2
 80051de:	4291      	cmp	r1, r2
 80051e0:	d80d      	bhi.n	80051fe <nl_func_tanh_array_f32+0x36>
 80051e2:	3304      	adds	r3, #4
 80051e4:	1d14      	adds	r4, r2, #4
 80051e6:	441e      	add	r6, r3
 80051e8:	4625      	mov	r5, r4
 80051ea:	ed34 0a01 	vldmdb	r4!, {s0}
 80051ee:	f004 fedd 	bl	8009fac <tanhf>
 80051f2:	ed26 0a01 	vstmdb	r6!, {s0}
 80051f6:	68bb      	ldr	r3, [r7, #8]
 80051f8:	3d08      	subs	r5, #8
 80051fa:	42ab      	cmp	r3, r5
 80051fc:	d9f4      	bls.n	80051e8 <nl_func_tanh_array_f32+0x20>
 80051fe:	bdf8      	pop	{r3, r4, r5, r6, r7, pc}

08005200 <forward_relu>:
 8005200:	6982      	ldr	r2, [r0, #24]
 8005202:	8813      	ldrh	r3, [r2, #0]
 8005204:	2b00      	cmp	r3, #0
 8005206:	d05b      	beq.n	80052c0 <forward_relu+0xc0>
 8005208:	6851      	ldr	r1, [r2, #4]
 800520a:	684a      	ldr	r2, [r1, #4]
 800520c:	b102      	cbz	r2, 8005210 <forward_relu+0x10>
 800520e:	6812      	ldr	r2, [r2, #0]
 8005210:	2b01      	cmp	r3, #1
 8005212:	f000 8123 	beq.w	800545c <forward_relu+0x25c>
 8005216:	b470      	push	{r4, r5, r6}
 8005218:	6909      	ldr	r1, [r1, #16]
 800521a:	b101      	cbz	r1, 800521e <forward_relu+0x1e>
 800521c:	6809      	ldr	r1, [r1, #0]
 800521e:	69c6      	ldr	r6, [r0, #28]
 8005220:	2e00      	cmp	r6, #0
 8005222:	f000 8097 	beq.w	8005354 <forward_relu+0x154>
 8005226:	6873      	ldr	r3, [r6, #4]
 8005228:	6988      	ldr	r0, [r1, #24]
 800522a:	6991      	ldr	r1, [r2, #24]
 800522c:	2b01      	cmp	r3, #1
 800522e:	f000 80c1 	beq.w	80053b4 <forward_relu+0x1b4>
 8005232:	6893      	ldr	r3, [r2, #8]
 8005234:	6880      	ldr	r0, [r0, #8]
 8005236:	688c      	ldr	r4, [r1, #8]
 8005238:	0a1b      	lsrs	r3, r3, #8
 800523a:	f000 80f2 	beq.w	8005422 <forward_relu+0x222>
 800523e:	68d5      	ldr	r5, [r2, #12]
 8005240:	2201      	movs	r2, #1
 8005242:	eb05 0383 	add.w	r3, r5, r3, lsl #2
 8005246:	f853 1d04 	ldr.w	r1, [r3, #-4]!
 800524a:	42ab      	cmp	r3, r5
 800524c:	fb01 f202 	mul.w	r2, r1, r2
 8005250:	d1f9      	bne.n	8005246 <forward_relu+0x46>
 8005252:	68b3      	ldr	r3, [r6, #8]
 8005254:	ed93 7a02 	vldr	s14, [r3, #8]
 8005258:	edd3 6a00 	vldr	s13, [r3]
 800525c:	ed93 6a01 	vldr	s12, [r3, #4]
 8005260:	eeb5 7ac0 	vcmpe.f32	s14, #0.0
 8005264:	f102 4280 	add.w	r2, r2, #1073741824	; 0x40000000
 8005268:	3a01      	subs	r2, #1
 800526a:	eef1 fa10 	vmrs	APSR_nzcv, fpscr
 800526e:	eb04 0382 	add.w	r3, r4, r2, lsl #2
 8005272:	eb00 0082 	add.w	r0, r0, r2, lsl #2
 8005276:	d425      	bmi.n	80052c4 <forward_relu+0xc4>
 8005278:	429c      	cmp	r4, r3
 800527a:	d81f      	bhi.n	80052bc <forward_relu+0xbc>
 800527c:	1d1a      	adds	r2, r3, #4
 800527e:	1d01      	adds	r1, r0, #4
 8005280:	e00d      	b.n	800529e <forward_relu+0x9e>
 8005282:	eef4 6ae7 	vcmpe.f32	s13, s15
 8005286:	eef1 fa10 	vmrs	APSR_nzcv, fpscr
 800528a:	db03      	blt.n	8005294 <forward_relu+0x94>
 800528c:	ee77 7ae6 	vsub.f32	s15, s15, s13
 8005290:	ee67 7a86 	vmul.f32	s15, s15, s12
 8005294:	3b08      	subs	r3, #8
 8005296:	429c      	cmp	r4, r3
 8005298:	ed61 7a01 	vstmdb	r1!, {s15}
 800529c:	d80e      	bhi.n	80052bc <forward_relu+0xbc>
 800529e:	4613      	mov	r3, r2
 80052a0:	ed72 7a01 	vldmdb	r2!, {s15}
 80052a4:	eef4 7ac7 	vcmpe.f32	s15, s14
 80052a8:	eef1 fa10 	vmrs	APSR_nzcv, fpscr
 80052ac:	d9e9      	bls.n	8005282 <forward_relu+0x82>
 80052ae:	3b08      	subs	r3, #8
 80052b0:	eef0 7a47 	vmov.f32	s15, s14
 80052b4:	429c      	cmp	r4, r3
 80052b6:	ed61 7a01 	vstmdb	r1!, {s15}
 80052ba:	d9f0      	bls.n	800529e <forward_relu+0x9e>
 80052bc:	bc70      	pop	{r4, r5, r6}
 80052be:	4770      	bx	lr
 80052c0:	685b      	ldr	r3, [r3, #4]
 80052c2:	deff      	udf	#255	; 0xff
 80052c4:	eeb5 6a40 	vcmp.f32	s12, #0.0
 80052c8:	eef1 fa10 	vmrs	APSR_nzcv, fpscr
 80052cc:	d11f      	bne.n	800530e <forward_relu+0x10e>
 80052ce:	429c      	cmp	r4, r3
 80052d0:	d8f4      	bhi.n	80052bc <forward_relu+0xbc>
 80052d2:	1b1c      	subs	r4, r3, r4
 80052d4:	f024 0403 	bic.w	r4, r4, #3
 80052d8:	1d1a      	adds	r2, r3, #4
 80052da:	2500      	movs	r5, #0
 80052dc:	1b1b      	subs	r3, r3, r4
 80052de:	1d01      	adds	r1, r0, #4
 80052e0:	ed72 7a01 	vldmdb	r2!, {s15}
 80052e4:	eef4 7ae6 	vcmpe.f32	s15, s13
 80052e8:	eef1 fa10 	vmrs	APSR_nzcv, fpscr
 80052ec:	dc0a      	bgt.n	8005304 <forward_relu+0x104>
 80052ee:	429a      	cmp	r2, r3
 80052f0:	f841 5d04 	str.w	r5, [r1, #-4]!
 80052f4:	d0e2      	beq.n	80052bc <forward_relu+0xbc>
 80052f6:	ed72 7a01 	vldmdb	r2!, {s15}
 80052fa:	eef4 7ae6 	vcmpe.f32	s15, s13
 80052fe:	eef1 fa10 	vmrs	APSR_nzcv, fpscr
 8005302:	ddf4      	ble.n	80052ee <forward_relu+0xee>
 8005304:	429a      	cmp	r2, r3
 8005306:	ed61 7a01 	vstmdb	r1!, {s15}
 800530a:	d1e9      	bne.n	80052e0 <forward_relu+0xe0>
 800530c:	e7d6      	b.n	80052bc <forward_relu+0xbc>
 800530e:	429c      	cmp	r4, r3
 8005310:	d8d4      	bhi.n	80052bc <forward_relu+0xbc>
 8005312:	1b1c      	subs	r4, r3, r4
 8005314:	f024 0403 	bic.w	r4, r4, #3
 8005318:	1d1a      	adds	r2, r3, #4
 800531a:	1d01      	adds	r1, r0, #4
 800531c:	1b1b      	subs	r3, r3, r4
 800531e:	ed72 7a01 	vldmdb	r2!, {s15}
 8005322:	eef4 6ae7 	vcmpe.f32	s13, s15
 8005326:	eef1 fa10 	vmrs	APSR_nzcv, fpscr
 800532a:	db0e      	blt.n	800534a <forward_relu+0x14a>
 800532c:	ee77 7ae6 	vsub.f32	s15, s15, s13
 8005330:	4293      	cmp	r3, r2
 8005332:	ee67 7a86 	vmul.f32	s15, s15, s12
 8005336:	ed61 7a01 	vstmdb	r1!, {s15}
 800533a:	d0bf      	beq.n	80052bc <forward_relu+0xbc>
 800533c:	ed72 7a01 	vldmdb	r2!, {s15}
 8005340:	eef4 6ae7 	vcmpe.f32	s13, s15
 8005344:	eef1 fa10 	vmrs	APSR_nzcv, fpscr
 8005348:	daf0      	bge.n	800532c <forward_relu+0x12c>
 800534a:	4293      	cmp	r3, r2
 800534c:	ed61 7a01 	vstmdb	r1!, {s15}
 8005350:	d1e5      	bne.n	800531e <forward_relu+0x11e>
 8005352:	e7b3      	b.n	80052bc <forward_relu+0xbc>
 8005354:	6893      	ldr	r3, [r2, #8]
 8005356:	6989      	ldr	r1, [r1, #24]
 8005358:	6990      	ldr	r0, [r2, #24]
 800535a:	6889      	ldr	r1, [r1, #8]
 800535c:	6884      	ldr	r4, [r0, #8]
 800535e:	0a1b      	lsrs	r3, r3, #8
 8005360:	d075      	beq.n	800544e <forward_relu+0x24e>
 8005362:	68d5      	ldr	r5, [r2, #12]
 8005364:	2201      	movs	r2, #1
 8005366:	eb05 0383 	add.w	r3, r5, r3, lsl #2
 800536a:	f853 0d04 	ldr.w	r0, [r3, #-4]!
 800536e:	429d      	cmp	r5, r3
 8005370:	fb00 f202 	mul.w	r2, r0, r2
 8005374:	d1f9      	bne.n	800536a <forward_relu+0x16a>
 8005376:	f102 4380 	add.w	r3, r2, #1073741824	; 0x40000000
 800537a:	3b01      	subs	r3, #1
 800537c:	eb04 0283 	add.w	r2, r4, r3, lsl #2
 8005380:	4294      	cmp	r4, r2
 8005382:	eb01 0183 	add.w	r1, r1, r3, lsl #2
 8005386:	d899      	bhi.n	80052bc <forward_relu+0xbc>
 8005388:	ed9f 7a36 	vldr	s14, [pc, #216]	; 8005464 <forward_relu+0x264>
 800538c:	3204      	adds	r2, #4
 800538e:	3104      	adds	r1, #4
 8005390:	4613      	mov	r3, r2
 8005392:	ed72 7a01 	vldmdb	r2!, {s15}
 8005396:	eef5 7ac0 	vcmpe.f32	s15, #0.0
 800539a:	eef1 fa10 	vmrs	APSR_nzcv, fpscr
 800539e:	f1a3 0308 	sub.w	r3, r3, #8
 80053a2:	bfb8      	it	lt
 80053a4:	eef0 7a47 	vmovlt.f32	s15, s14
 80053a8:	429c      	cmp	r4, r3
 80053aa:	ed61 7a01 	vstmdb	r1!, {s15}
 80053ae:	d9ef      	bls.n	8005390 <forward_relu+0x190>
 80053b0:	bc70      	pop	{r4, r5, r6}
 80053b2:	4770      	bx	lr
 80053b4:	688c      	ldr	r4, [r1, #8]
 80053b6:	6891      	ldr	r1, [r2, #8]
 80053b8:	6880      	ldr	r0, [r0, #8]
 80053ba:	0a09      	lsrs	r1, r1, #8
 80053bc:	d049      	beq.n	8005452 <forward_relu+0x252>
 80053be:	68d5      	ldr	r5, [r2, #12]
 80053c0:	eb05 0281 	add.w	r2, r5, r1, lsl #2
 80053c4:	f852 1d04 	ldr.w	r1, [r2, #-4]!
 80053c8:	42aa      	cmp	r2, r5
 80053ca:	fb01 f303 	mul.w	r3, r1, r3
 80053ce:	d1f9      	bne.n	80053c4 <forward_relu+0x1c4>
 80053d0:	f103 4280 	add.w	r2, r3, #1073741824	; 0x40000000
 80053d4:	3a01      	subs	r2, #1
 80053d6:	68b1      	ldr	r1, [r6, #8]
 80053d8:	eb04 0382 	add.w	r3, r4, r2, lsl #2
 80053dc:	429c      	cmp	r4, r3
 80053de:	ed91 7a00 	vldr	s14, [r1]
 80053e2:	eb00 0082 	add.w	r0, r0, r2, lsl #2
 80053e6:	f63f af69 	bhi.w	80052bc <forward_relu+0xbc>
 80053ea:	2500      	movs	r5, #0
 80053ec:	3304      	adds	r3, #4
 80053ee:	1d02      	adds	r2, r0, #4
 80053f0:	ed53 7a01 	vldr	s15, [r3, #-4]
 80053f4:	eeb4 7ae7 	vcmpe.f32	s14, s15
 80053f8:	eef1 fa10 	vmrs	APSR_nzcv, fpscr
 80053fc:	f1a3 0104 	sub.w	r1, r3, #4
 8005400:	f1a3 0308 	sub.w	r3, r3, #8
 8005404:	d406      	bmi.n	8005414 <forward_relu+0x214>
 8005406:	429c      	cmp	r4, r3
 8005408:	f842 5d04 	str.w	r5, [r2, #-4]!
 800540c:	f63f af56 	bhi.w	80052bc <forward_relu+0xbc>
 8005410:	460b      	mov	r3, r1
 8005412:	e7ed      	b.n	80053f0 <forward_relu+0x1f0>
 8005414:	429c      	cmp	r4, r3
 8005416:	ed62 7a01 	vstmdb	r2!, {s15}
 800541a:	f63f af4f 	bhi.w	80052bc <forward_relu+0xbc>
 800541e:	460b      	mov	r3, r1
 8005420:	e7e6      	b.n	80053f0 <forward_relu+0x1f0>
 8005422:	68b3      	ldr	r3, [r6, #8]
 8005424:	ed93 7a02 	vldr	s14, [r3, #8]
 8005428:	edd3 6a00 	vldr	s13, [r3]
 800542c:	ed93 6a01 	vldr	s12, [r3, #4]
 8005430:	eeb5 7ac0 	vcmpe.f32	s14, #0.0
 8005434:	eef1 fa10 	vmrs	APSR_nzcv, fpscr
 8005438:	d401      	bmi.n	800543e <forward_relu+0x23e>
 800543a:	4623      	mov	r3, r4
 800543c:	e71e      	b.n	800527c <forward_relu+0x7c>
 800543e:	eeb5 6a40 	vcmp.f32	s12, #0.0
 8005442:	eef1 fa10 	vmrs	APSR_nzcv, fpscr
 8005446:	4623      	mov	r3, r4
 8005448:	f47f af63 	bne.w	8005312 <forward_relu+0x112>
 800544c:	e741      	b.n	80052d2 <forward_relu+0xd2>
 800544e:	4622      	mov	r2, r4
 8005450:	e79a      	b.n	8005388 <forward_relu+0x188>
 8005452:	68b2      	ldr	r2, [r6, #8]
 8005454:	4623      	mov	r3, r4
 8005456:	ed92 7a00 	vldr	s14, [r2]
 800545a:	e7c6      	b.n	80053ea <forward_relu+0x1ea>
 800545c:	2300      	movs	r3, #0
 800545e:	685b      	ldr	r3, [r3, #4]
 8005460:	deff      	udf	#255	; 0xff
 8005462:	bf00      	nop
 8005464:	00000000 	.word	0x00000000

08005468 <array_f32_identity>:
 8005468:	6980      	ldr	r0, [r0, #24]
 800546a:	698b      	ldr	r3, [r1, #24]
 800546c:	4298      	cmp	r0, r3
 800546e:	d004      	beq.n	800547a <array_f32_identity+0x12>
 8005470:	68c1      	ldr	r1, [r0, #12]
 8005472:	68d8      	ldr	r0, [r3, #12]
 8005474:	0092      	lsls	r2, r2, #2
 8005476:	f001 bdbb 	b.w	8006ff0 <st_int8_copy>
 800547a:	4770      	bx	lr

0800547c <forward_lstm>:
 800547c:	e92d 4ff0 	stmdb	sp!, {r4, r5, r6, r7, r8, r9, sl, fp, lr}
 8005480:	ed2d 8b06 	vpush	{d8-d10}
 8005484:	f5ad 7d03 	sub.w	sp, sp, #524	; 0x20c
 8005488:	6983      	ldr	r3, [r0, #24]
 800548a:	af00      	add	r7, sp, #0
 800548c:	881a      	ldrh	r2, [r3, #0]
 800548e:	60b8      	str	r0, [r7, #8]
 8005490:	2a00      	cmp	r2, #0
 8005492:	f001 842a 	beq.w	8006cea <forward_lstm+0x186e>
 8005496:	685b      	ldr	r3, [r3, #4]
 8005498:	f8c7 3090 	str.w	r3, [r7, #144]	; 0x90
 800549c:	2a01      	cmp	r2, #1
 800549e:	f001 8424 	beq.w	8006cea <forward_lstm+0x186e>
 80054a2:	2a02      	cmp	r2, #2
 80054a4:	f001 8421 	beq.w	8006cea <forward_lstm+0x186e>
 80054a8:	69d8      	ldr	r0, [r3, #28]
 80054aa:	2800      	cmp	r0, #0
 80054ac:	f001 8414 	beq.w	8006cd8 <forward_lstm+0x185c>
 80054b0:	8b1b      	ldrh	r3, [r3, #24]
 80054b2:	6801      	ldr	r1, [r0, #0]
 80054b4:	f8c7 10f4 	str.w	r1, [r7, #244]	; 0xf4
 80054b8:	2b01      	cmp	r3, #1
 80054ba:	6883      	ldr	r3, [r0, #8]
 80054bc:	f8c7 30f0 	str.w	r3, [r7, #240]	; 0xf0
 80054c0:	bf88      	it	hi
 80054c2:	f8d0 b004 	ldrhi.w	fp, [r0, #4]
 80054c6:	68c3      	ldr	r3, [r0, #12]
 80054c8:	f8c7 30f8 	str.w	r3, [r7, #248]	; 0xf8
 80054cc:	bf98      	it	ls
 80054ce:	f04f 0b00 	movls.w	fp, #0
 80054d2:	f8d7 3090 	ldr.w	r3, [r7, #144]	; 0x90
 80054d6:	685b      	ldr	r3, [r3, #4]
 80054d8:	65fb      	str	r3, [r7, #92]	; 0x5c
 80054da:	b10b      	cbz	r3, 80054e0 <forward_lstm+0x64>
 80054dc:	681b      	ldr	r3, [r3, #0]
 80054de:	65fb      	str	r3, [r7, #92]	; 0x5c
 80054e0:	f8d7 3090 	ldr.w	r3, [r7, #144]	; 0x90
 80054e4:	6df9      	ldr	r1, [r7, #92]	; 0x5c
 80054e6:	899b      	ldrh	r3, [r3, #12]
 80054e8:	68cd      	ldr	r5, [r1, #12]
 80054ea:	0099      	lsls	r1, r3, #2
 80054ec:	3107      	adds	r1, #7
 80054ee:	08c9      	lsrs	r1, r1, #3
 80054f0:	466c      	mov	r4, sp
 80054f2:	eba4 04c1 	sub.w	r4, r4, r1, lsl #3
 80054f6:	46a5      	mov	sp, r4
 80054f8:	1ddc      	adds	r4, r3, #7
 80054fa:	466e      	mov	r6, sp
 80054fc:	08e4      	lsrs	r4, r4, #3
 80054fe:	eba6 04c4 	sub.w	r4, r6, r4, lsl #3
 8005502:	46a5      	mov	sp, r4
 8005504:	68bc      	ldr	r4, [r7, #8]
 8005506:	f8d4 802c 	ldr.w	r8, [r4, #44]	; 0x2c
 800550a:	466c      	mov	r4, sp
 800550c:	eba4 0cc1 	sub.w	ip, r4, r1, lsl #3
 8005510:	46e5      	mov	sp, ip
 8005512:	ebac 01c1 	sub.w	r1, ip, r1, lsl #3
 8005516:	f8c7 d010 	str.w	sp, [r7, #16]
 800551a:	468d      	mov	sp, r1
 800551c:	68e9      	ldr	r1, [r5, #12]
 800551e:	65b9      	str	r1, [r7, #88]	; 0x58
 8005520:	6869      	ldr	r1, [r5, #4]
 8005522:	6779      	str	r1, [r7, #116]	; 0x74
 8005524:	ea4f 0188 	mov.w	r1, r8, lsl #2
 8005528:	ee09 1a10 	vmov	s18, r1
 800552c:	46ee      	mov	lr, sp
 800552e:	2800      	cmp	r0, #0
 8005530:	f001 83c9 	beq.w	8006cc6 <forward_lstm+0x184a>
 8005534:	6945      	ldr	r5, [r0, #20]
 8005536:	6901      	ldr	r1, [r0, #16]
 8005538:	ee09 5a90 	vmov	s19, r5
 800553c:	6985      	ldr	r5, [r0, #24]
 800553e:	ee0a 1a90 	vmov	s21, r1
 8005542:	e9d0 9007 	ldrd	r9, r0, [r0, #28]
 8005546:	ee0a 5a10 	vmov	s20, r5
 800554a:	b119      	cbz	r1, 8005554 <forward_lstm+0xd8>
 800554c:	6989      	ldr	r1, [r1, #24]
 800554e:	6889      	ldr	r1, [r1, #8]
 8005550:	ee0a 1a90 	vmov	s21, r1
 8005554:	ee19 1a90 	vmov	r1, s19
 8005558:	b119      	cbz	r1, 8005562 <forward_lstm+0xe6>
 800555a:	6989      	ldr	r1, [r1, #24]
 800555c:	6889      	ldr	r1, [r1, #8]
 800555e:	ee09 1a90 	vmov	s19, r1
 8005562:	ee1a 1a10 	vmov	r1, s20
 8005566:	b119      	cbz	r1, 8005570 <forward_lstm+0xf4>
 8005568:	6989      	ldr	r1, [r1, #24]
 800556a:	6889      	ldr	r1, [r1, #8]
 800556c:	ee0a 1a10 	vmov	s20, r1
 8005570:	f1b9 0f00 	cmp.w	r9, #0
 8005574:	d003      	beq.n	800557e <forward_lstm+0x102>
 8005576:	f8d9 1018 	ldr.w	r1, [r9, #24]
 800557a:	f8d1 9008 	ldr.w	r9, [r1, #8]
 800557e:	b108      	cbz	r0, 8005584 <forward_lstm+0x108>
 8005580:	6981      	ldr	r1, [r0, #24]
 8005582:	6888      	ldr	r0, [r1, #8]
 8005584:	2a03      	cmp	r2, #3
 8005586:	f001 83b0 	beq.w	8006cea <forward_lstm+0x186e>
 800558a:	f8d7 2090 	ldr.w	r2, [r7, #144]	; 0x90
 800558e:	f8d2 a028 	ldr.w	sl, [r2, #40]	; 0x28
 8005592:	f1ba 0f00 	cmp.w	sl, #0
 8005596:	d001      	beq.n	800559c <forward_lstm+0x120>
 8005598:	f8da a000 	ldr.w	sl, [sl]
 800559c:	693a      	ldr	r2, [r7, #16]
 800559e:	f8c7 90fc 	str.w	r9, [r7, #252]	; 0xfc
 80055a2:	4423      	add	r3, r4
 80055a4:	4621      	mov	r1, r4
 80055a6:	f1ae 0404 	sub.w	r4, lr, #4
 80055aa:	f8d7 c090 	ldr.w	ip, [r7, #144]	; 0x90
 80055ae:	60fc      	str	r4, [r7, #12]
 80055b0:	3e04      	subs	r6, #4
 80055b2:	f1ce 0e04 	rsb	lr, lr, #4
 80055b6:	1f15      	subs	r5, r2, #4
 80055b8:	4699      	mov	r9, r3
 80055ba:	e016      	b.n	80055ea <forward_lstm+0x16e>
 80055bc:	4423      	add	r3, r4
 80055be:	f853 200e 	ldr.w	r2, [r3, lr]
 80055c2:	b1c2      	cbz	r2, 80055f6 <forward_lstm+0x17a>
 80055c4:	68d3      	ldr	r3, [r2, #12]
 80055c6:	f846 2f04 	str.w	r2, [r6, #4]!
 80055ca:	68db      	ldr	r3, [r3, #12]
 80055cc:	6992      	ldr	r2, [r2, #24]
 80055ce:	2b01      	cmp	r3, #1
 80055d0:	6893      	ldr	r3, [r2, #8]
 80055d2:	f845 3f04 	str.w	r3, [r5, #4]!
 80055d6:	bf8c      	ite	hi
 80055d8:	2301      	movhi	r3, #1
 80055da:	2300      	movls	r3, #0
 80055dc:	f801 3b01 	strb.w	r3, [r1], #1
 80055e0:	bf8c      	ite	hi
 80055e2:	4643      	movhi	r3, r8
 80055e4:	2300      	movls	r3, #0
 80055e6:	f844 3f04 	str.w	r3, [r4, #4]!
 80055ea:	4549      	cmp	r1, r9
 80055ec:	d003      	beq.n	80055f6 <forward_lstm+0x17a>
 80055ee:	f8dc 3010 	ldr.w	r3, [ip, #16]
 80055f2:	2b00      	cmp	r3, #0
 80055f4:	d1e2      	bne.n	80055bc <forward_lstm+0x140>
 80055f6:	f8da 3018 	ldr.w	r3, [sl, #24]
 80055fa:	f8d7 10f0 	ldr.w	r1, [r7, #240]	; 0xf0
 80055fe:	689d      	ldr	r5, [r3, #8]
 8005600:	f8d7 40f8 	ldr.w	r4, [r7, #248]	; 0xf8
 8005604:	f8db 3018 	ldr.w	r3, [fp, #24]
 8005608:	6989      	ldr	r1, [r1, #24]
 800560a:	69a4      	ldr	r4, [r4, #24]
 800560c:	689b      	ldr	r3, [r3, #8]
 800560e:	667b      	str	r3, [r7, #100]	; 0x64
 8005610:	688b      	ldr	r3, [r1, #8]
 8005612:	f8d7 20f4 	ldr.w	r2, [r7, #244]	; 0xf4
 8005616:	64bb      	str	r3, [r7, #72]	; 0x48
 8005618:	68a3      	ldr	r3, [r4, #8]
 800561a:	663b      	str	r3, [r7, #96]	; 0x60
 800561c:	68bb      	ldr	r3, [r7, #8]
 800561e:	6992      	ldr	r2, [r2, #24]
 8005620:	685b      	ldr	r3, [r3, #4]
 8005622:	6892      	ldr	r2, [r2, #8]
 8005624:	66ba      	str	r2, [r7, #104]	; 0x68
 8005626:	ee19 1a10 	vmov	r1, s18
 800562a:	eb05 0441 	add.w	r4, r5, r1, lsl #1
 800562e:	186a      	adds	r2, r5, r1
 8005630:	f013 7380 	ands.w	r3, r3, #16777216	; 0x1000000
 8005634:	4421      	add	r1, r4
 8005636:	f8d7 90fc 	ldr.w	r9, [r7, #252]	; 0xfc
 800563a:	673d      	str	r5, [r7, #112]	; 0x70
 800563c:	f8c7 20fc 	str.w	r2, [r7, #252]	; 0xfc
 8005640:	f8c7 4094 	str.w	r4, [r7, #148]	; 0x94
 8005644:	ea4f 02c8 	mov.w	r2, r8, lsl #3
 8005648:	f8c7 1080 	str.w	r1, [r7, #128]	; 0x80
 800564c:	607b      	str	r3, [r7, #4]
 800564e:	f041 8264 	bne.w	8006b1a <forward_lstm+0x169e>
 8005652:	4629      	mov	r1, r5
 8005654:	2800      	cmp	r0, #0
 8005656:	f001 826e 	beq.w	8006b36 <forward_lstm+0x16ba>
 800565a:	ee19 2a10 	vmov	r2, s18
 800565e:	f001 fcc7 	bl	8006ff0 <st_int8_copy>
 8005662:	ee19 2a10 	vmov	r2, s18
 8005666:	f8d7 10fc 	ldr.w	r1, [r7, #252]	; 0xfc
 800566a:	4648      	mov	r0, r9
 800566c:	f1b9 0f00 	cmp.w	r9, #0
 8005670:	f001 826f 	beq.w	8006b52 <forward_lstm+0x16d6>
 8005674:	f001 fcbc 	bl	8006ff0 <st_int8_copy>
 8005678:	ee19 2a10 	vmov	r2, s18
 800567c:	f8d7 1094 	ldr.w	r1, [r7, #148]	; 0x94
 8005680:	2000      	movs	r0, #0
 8005682:	f001 fc59 	bl	8006f38 <st_int8_fill>
 8005686:	68ba      	ldr	r2, [r7, #8]
 8005688:	4bab      	ldr	r3, [pc, #684]	; (8005938 <forward_lstm+0x4bc>)
 800568a:	6b11      	ldr	r1, [r2, #48]	; 0x30
 800568c:	edd2 8a10 	vldr	s17, [r2, #64]	; 0x40
 8005690:	2900      	cmp	r1, #0
 8005692:	bf08      	it	eq
 8005694:	4619      	moveq	r1, r3
 8005696:	6479      	str	r1, [r7, #68]	; 0x44
 8005698:	6b51      	ldr	r1, [r2, #52]	; 0x34
 800569a:	2900      	cmp	r1, #0
 800569c:	bf08      	it	eq
 800569e:	4619      	moveq	r1, r3
 80056a0:	67f9      	str	r1, [r7, #124]	; 0x7c
 80056a2:	6b91      	ldr	r1, [r2, #56]	; 0x38
 80056a4:	2900      	cmp	r1, #0
 80056a6:	bf08      	it	eq
 80056a8:	4619      	moveq	r1, r3
 80056aa:	f892 303c 	ldrb.w	r3, [r2, #60]	; 0x3c
 80056ae:	6439      	str	r1, [r7, #64]	; 0x40
 80056b0:	2b00      	cmp	r3, #0
 80056b2:	f001 8301 	beq.w	8006cb8 <forward_lstm+0x183c>
 80056b6:	6dbb      	ldr	r3, [r7, #88]	; 0x58
 80056b8:	3b01      	subs	r3, #1
 80056ba:	f8c7 308c 	str.w	r3, [r7, #140]	; 0x8c
 80056be:	f04f 33ff 	mov.w	r3, #4294967295
 80056c2:	66fb      	str	r3, [r7, #108]	; 0x6c
 80056c4:	4613      	mov	r3, r2
 80056c6:	f893 303e 	ldrb.w	r3, [r3, #62]	; 0x3e
 80056ca:	b1b3      	cbz	r3, 80056fa <forward_lstm+0x27e>
 80056cc:	f8d7 3090 	ldr.w	r3, [r7, #144]	; 0x90
 80056d0:	899d      	ldrh	r5, [r3, #12]
 80056d2:	b195      	cbz	r5, 80056fa <forward_lstm+0x27e>
 80056d4:	693a      	ldr	r2, [r7, #16]
 80056d6:	6dbb      	ldr	r3, [r7, #88]	; 0x58
 80056d8:	68f8      	ldr	r0, [r7, #12]
 80056da:	eb02 0585 	add.w	r5, r2, r5, lsl #2
 80056de:	1e5e      	subs	r6, r3, #1
 80056e0:	f850 3f04 	ldr.w	r3, [r0, #4]!
 80056e4:	6811      	ldr	r1, [r2, #0]
 80056e6:	fb03 f406 	mul.w	r4, r3, r6
 80056ea:	eb01 0184 	add.w	r1, r1, r4, lsl #2
 80056ee:	f842 1b04 	str.w	r1, [r2], #4
 80056f2:	425b      	negs	r3, r3
 80056f4:	4295      	cmp	r5, r2
 80056f6:	6003      	str	r3, [r0, #0]
 80056f8:	d1f2      	bne.n	80056e0 <forward_lstm+0x264>
 80056fa:	6f7d      	ldr	r5, [r7, #116]	; 0x74
 80056fc:	6ebc      	ldr	r4, [r7, #104]	; 0x68
 80056fe:	f8d7 0080 	ldr.w	r0, [r7, #128]	; 0x80
 8005702:	ed9f 8a8f 	vldr	s16, [pc, #572]	; 8005940 <forward_lstm+0x4c4>
 8005706:	b2a9      	uxth	r1, r5
 8005708:	fa1f f288 	uxth.w	r2, r8
 800570c:	f1a1 0310 	sub.w	r3, r1, #16
 8005710:	0096      	lsls	r6, r2, #2
 8005712:	091b      	lsrs	r3, r3, #4
 8005714:	f8c7 10dc 	str.w	r1, [r7, #220]	; 0xdc
 8005718:	3301      	adds	r3, #1
 800571a:	fb06 f101 	mul.w	r1, r6, r1
 800571e:	eb04 0c41 	add.w	ip, r4, r1, lsl #1
 8005722:	019b      	lsls	r3, r3, #6
 8005724:	6e7c      	ldr	r4, [r7, #100]	; 0x64
 8005726:	f8c7 20a8 	str.w	r2, [r7, #168]	; 0xa8
 800572a:	f8c7 30d8 	str.w	r3, [r7, #216]	; 0xd8
 800572e:	f1a2 0310 	sub.w	r3, r2, #16
 8005732:	fb02 f202 	mul.w	r2, r2, r2
 8005736:	f8c7 c054 	str.w	ip, [r7, #84]	; 0x54
 800573a:	eb04 0cc2 	add.w	ip, r4, r2, lsl #3
 800573e:	6e3c      	ldr	r4, [r7, #96]	; 0x60
 8005740:	f8c7 c050 	str.w	ip, [r7, #80]	; 0x50
 8005744:	091b      	lsrs	r3, r3, #4
 8005746:	eb04 0c46 	add.w	ip, r4, r6, lsl #1
 800574a:	1c5c      	adds	r4, r3, #1
 800574c:	019b      	lsls	r3, r3, #6
 800574e:	623b      	str	r3, [r7, #32]
 8005750:	01a3      	lsls	r3, r4, #6
 8005752:	f8c7 30d4 	str.w	r3, [r7, #212]	; 0xd4
 8005756:	6ebb      	ldr	r3, [r7, #104]	; 0x68
 8005758:	f8c7 60b0 	str.w	r6, [r7, #176]	; 0xb0
 800575c:	440b      	add	r3, r1
 800575e:	63fb      	str	r3, [r7, #60]	; 0x3c
 8005760:	6d7b      	ldr	r3, [r7, #84]	; 0x54
 8005762:	f8d7 4080 	ldr.w	r4, [r7, #128]	; 0x80
 8005766:	f8c7 c04c 	str.w	ip, [r7, #76]	; 0x4c
 800576a:	440b      	add	r3, r1
 800576c:	63bb      	str	r3, [r7, #56]	; 0x38
 800576e:	6e7b      	ldr	r3, [r7, #100]	; 0x64
 8005770:	eb03 0382 	add.w	r3, r3, r2, lsl #2
 8005774:	637b      	str	r3, [r7, #52]	; 0x34
 8005776:	6d3b      	ldr	r3, [r7, #80]	; 0x50
 8005778:	eb03 0382 	add.w	r3, r3, r2, lsl #2
 800577c:	6cba      	ldr	r2, [r7, #72]	; 0x48
 800577e:	633b      	str	r3, [r7, #48]	; 0x30
 8005780:	eb00 0046 	add.w	r0, r0, r6, lsl #1
 8005784:	4633      	mov	r3, r6
 8005786:	1996      	adds	r6, r2, r6
 8005788:	62fe      	str	r6, [r7, #44]	; 0x2c
 800578a:	6e3e      	ldr	r6, [r7, #96]	; 0x60
 800578c:	f8c7 00a0 	str.w	r0, [r7, #160]	; 0xa0
 8005790:	441e      	add	r6, r3
 8005792:	62be      	str	r6, [r7, #40]	; 0x28
 8005794:	18e6      	adds	r6, r4, r3
 8005796:	6f7c      	ldr	r4, [r7, #116]	; 0x74
 8005798:	f8c7 60a4 	str.w	r6, [r7, #164]	; 0xa4
 800579c:	f64f 70f0 	movw	r0, #65520	; 0xfff0
 80057a0:	ea04 0600 	and.w	r6, r4, r0
 80057a4:	f8c7 60f4 	str.w	r6, [r7, #244]	; 0xf4
 80057a8:	ea08 0600 	and.w	r6, r8, r0
 80057ac:	f8c7 60f8 	str.w	r6, [r7, #248]	; 0xf8
 80057b0:	f8d7 10dc 	ldr.w	r1, [r7, #220]	; 0xdc
 80057b4:	0089      	lsls	r1, r1, #2
 80057b6:	f8c7 10b4 	str.w	r1, [r7, #180]	; 0xb4
 80057ba:	6ef9      	ldr	r1, [r7, #108]	; 0x6c
 80057bc:	00ad      	lsls	r5, r5, #2
 80057be:	fb05 f101 	mul.w	r1, r5, r1
 80057c2:	61b9      	str	r1, [r7, #24]
 80057c4:	f8d7 108c 	ldr.w	r1, [r7, #140]	; 0x8c
 80057c8:	fb05 f501 	mul.w	r5, r5, r1
 80057cc:	f8c7 5088 	str.w	r5, [r7, #136]	; 0x88
 80057d0:	4661      	mov	r1, ip
 80057d2:	eb02 0543 	add.w	r5, r2, r3, lsl #1
 80057d6:	f8d7 20a0 	ldr.w	r2, [r7, #160]	; 0xa0
 80057da:	61fd      	str	r5, [r7, #28]
 80057dc:	4419      	add	r1, r3
 80057de:	6279      	str	r1, [r7, #36]	; 0x24
 80057e0:	18d1      	adds	r1, r2, r3
 80057e2:	eb02 0343 	add.w	r3, r2, r3, lsl #1
 80057e6:	f008 060f 	and.w	r6, r8, #15
 80057ea:	f8c7 1084 	str.w	r1, [r7, #132]	; 0x84
 80057ee:	617b      	str	r3, [r7, #20]
 80057f0:	f8d7 308c 	ldr.w	r3, [r7, #140]	; 0x8c
 80057f4:	6efa      	ldr	r2, [r7, #108]	; 0x6c
 80057f6:	f8d7 0088 	ldr.w	r0, [r7, #136]	; 0x88
 80057fa:	f8d7 40a4 	ldr.w	r4, [r7, #164]	; 0xa4
 80057fe:	f8d7 1080 	ldr.w	r1, [r7, #128]	; 0x80
 8005802:	4413      	add	r3, r2
 8005804:	f8c7 308c 	str.w	r3, [r7, #140]	; 0x8c
 8005808:	f8d7 20a8 	ldr.w	r2, [r7, #168]	; 0xa8
 800580c:	4b4b      	ldr	r3, [pc, #300]	; (800593c <forward_lstm+0x4c0>)
 800580e:	f8c7 3100 	str.w	r3, [r7, #256]	; 0x100
 8005812:	e9c7 3244 	strd	r3, r2, [r7, #272]	; 0x110
 8005816:	e9c7 3248 	strd	r3, r2, [r7, #288]	; 0x120
 800581a:	e9c7 324c 	strd	r3, r2, [r7, #304]	; 0x130
 800581e:	e9c7 3250 	strd	r3, r2, [r7, #320]	; 0x140
 8005822:	e9c7 3254 	strd	r3, r2, [r7, #336]	; 0x150
 8005826:	6dfb      	ldr	r3, [r7, #92]	; 0x5c
 8005828:	f8c7 2104 	str.w	r2, [r7, #260]	; 0x104
 800582c:	699b      	ldr	r3, [r3, #24]
 800582e:	689b      	ldr	r3, [r3, #8]
 8005830:	f8c7 1108 	str.w	r1, [r7, #264]	; 0x108
 8005834:	4403      	add	r3, r0
 8005836:	f8c7 30e0 	str.w	r3, [r7, #224]	; 0xe0
 800583a:	f8d7 0084 	ldr.w	r0, [r7, #132]	; 0x84
 800583e:	f8d7 30a0 	ldr.w	r3, [r7, #160]	; 0xa0
 8005842:	f8c7 110c 	str.w	r1, [r7, #268]	; 0x10c
 8005846:	e9c7 4446 	strd	r4, r4, [r7, #280]	; 0x118
 800584a:	e9c7 334a 	strd	r3, r3, [r7, #296]	; 0x128
 800584e:	e9c7 004e 	strd	r0, r0, [r7, #312]	; 0x138
 8005852:	f8d7 0094 	ldr.w	r0, [r7, #148]	; 0x94
 8005856:	6f3d      	ldr	r5, [r7, #112]	; 0x70
 8005858:	e9c7 0052 	strd	r0, r0, [r7, #328]	; 0x148
 800585c:	f507 7080 	add.w	r0, r7, #256	; 0x100
 8005860:	f8c7 0178 	str.w	r0, [r7, #376]	; 0x178
 8005864:	f507 7088 	add.w	r0, r7, #272	; 0x110
 8005868:	f8c7 0194 	str.w	r0, [r7, #404]	; 0x194
 800586c:	f507 7090 	add.w	r0, r7, #288	; 0x120
 8005870:	f8c7 01b0 	str.w	r0, [r7, #432]	; 0x1b0
 8005874:	f507 7098 	add.w	r0, r7, #304	; 0x130
 8005878:	f8c7 01cc 	str.w	r0, [r7, #460]	; 0x1cc
 800587c:	f507 70a0 	add.w	r0, r7, #320	; 0x140
 8005880:	f8c7 01e8 	str.w	r0, [r7, #488]	; 0x1e8
 8005884:	f507 70a8 	add.w	r0, r7, #336	; 0x150
 8005888:	e9c7 5556 	strd	r5, r5, [r7, #344]	; 0x158
 800588c:	f8c7 0204 	str.w	r0, [r7, #516]	; 0x204
 8005890:	2a00      	cmp	r2, #0
 8005892:	f001 81a2 	beq.w	8006bda <forward_lstm+0x175e>
 8005896:	6a38      	ldr	r0, [r7, #32]
 8005898:	f8d7 20fc 	ldr.w	r2, [r7, #252]	; 0xfc
 800589c:	f8c7 30cc 	str.w	r3, [r7, #204]	; 0xcc
 80058a0:	46a9      	mov	r9, r5
 80058a2:	6abd      	ldr	r5, [r7, #40]	; 0x28
 80058a4:	f8c7 50c0 	str.w	r5, [r7, #192]	; 0xc0
 80058a8:	3080      	adds	r0, #128	; 0x80
 80058aa:	6cbd      	ldr	r5, [r7, #72]	; 0x48
 80058ac:	f8c7 50c4 	str.w	r5, [r7, #196]	; 0xc4
 80058b0:	4410      	add	r0, r2
 80058b2:	6e3d      	ldr	r5, [r7, #96]	; 0x60
 80058b4:	6cfa      	ldr	r2, [r7, #76]	; 0x4c
 80058b6:	f8c7 20b8 	str.w	r2, [r7, #184]	; 0xb8
 80058ba:	f8c7 50c8 	str.w	r5, [r7, #200]	; 0xc8
 80058be:	f8d7 20e0 	ldr.w	r2, [r7, #224]	; 0xe0
 80058c2:	f8d7 50d8 	ldr.w	r5, [r7, #216]	; 0xd8
 80058c6:	f8c7 9078 	str.w	r9, [r7, #120]	; 0x78
 80058ca:	1955      	adds	r5, r2, r5
 80058cc:	469e      	mov	lr, r3
 80058ce:	e9d7 b314 	ldrd	fp, r3, [r7, #80]	; 0x50
 80058d2:	f8d7 20fc 	ldr.w	r2, [r7, #252]	; 0xfc
 80058d6:	f8c7 509c 	str.w	r5, [r7, #156]	; 0x9c
 80058da:	f8d7 50d4 	ldr.w	r5, [r7, #212]	; 0xd4
 80058de:	f8c7 30e4 	str.w	r3, [r7, #228]	; 0xe4
 80058e2:	442a      	add	r2, r5
 80058e4:	6b7b      	ldr	r3, [r7, #52]	; 0x34
 80058e6:	f8c7 20d0 	str.w	r2, [r7, #208]	; 0xd0
 80058ea:	f8c7 30e8 	str.w	r3, [r7, #232]	; 0xe8
 80058ee:	69fa      	ldr	r2, [r7, #28]
 80058f0:	6bfb      	ldr	r3, [r7, #60]	; 0x3c
 80058f2:	f8c7 20bc 	str.w	r2, [r7, #188]	; 0xbc
 80058f6:	f8c7 30ec 	str.w	r3, [r7, #236]	; 0xec
 80058fa:	6f7a      	ldr	r2, [r7, #116]	; 0x74
 80058fc:	6e7b      	ldr	r3, [r7, #100]	; 0x64
 80058fe:	f8c7 30f0 	str.w	r3, [r7, #240]	; 0xf0
 8005902:	6ebb      	ldr	r3, [r7, #104]	; 0x68
 8005904:	f002 020f 	and.w	r2, r2, #15
 8005908:	46a0      	mov	r8, r4
 800590a:	468c      	mov	ip, r1
 800590c:	f8c7 2098 	str.w	r2, [r7, #152]	; 0x98
 8005910:	469a      	mov	sl, r3
 8005912:	f8d7 30f4 	ldr.w	r3, [r7, #244]	; 0xf4
 8005916:	ed9f 7a0a 	vldr	s14, [pc, #40]	; 8005940 <forward_lstm+0x4c4>
 800591a:	ecac 8a01 	vstmia	ip!, {s16}
 800591e:	2b00      	cmp	r3, #0
 8005920:	f001 8154 	beq.w	8006bcc <forward_lstm+0x1750>
 8005924:	f8d7 30e0 	ldr.w	r3, [r7, #224]	; 0xe0
 8005928:	f8d7 10dc 	ldr.w	r1, [r7, #220]	; 0xdc
 800592c:	f103 0240 	add.w	r2, r3, #64	; 0x40
 8005930:	f10a 0340 	add.w	r3, sl, #64	; 0x40
 8005934:	e006      	b.n	8005944 <forward_lstm+0x4c8>
 8005936:	bf00      	nop
 8005938:	08005469 	.word	0x08005469
 800593c:	01821040 	.word	0x01821040
 8005940:	00000000 	.word	0x00000000
 8005944:	ed53 5a0f 	vldr	s11, [r3, #-60]	; 0xffffffc4
 8005948:	ed52 7a0f 	vldr	s15, [r2, #-60]	; 0xffffffc4
 800594c:	ed12 6a10 	vldr	s12, [r2, #-64]	; 0xffffffc0
 8005950:	ed53 6a10 	vldr	s13, [r3, #-64]	; 0xffffffc0
 8005954:	ed52 4a0d 	vldr	s9, [r2, #-52]	; 0xffffffcc
 8005958:	ed12 5a0c 	vldr	s10, [r2, #-48]	; 0xffffffd0
 800595c:	ed12 3a0a 	vldr	s6, [r2, #-40]	; 0xffffffd8
 8005960:	ed53 3a0a 	vldr	s7, [r3, #-40]	; 0xffffffd8
 8005964:	ed12 4a09 	vldr	s8, [r2, #-36]	; 0xffffffdc
 8005968:	ed12 1a06 	vldr	s2, [r2, #-24]	; 0xffffffe8
 800596c:	ed53 1a06 	vldr	s3, [r3, #-24]	; 0xffffffe8
 8005970:	ed12 2a05 	vldr	s4, [r2, #-20]	; 0xffffffec
 8005974:	ed53 2a05 	vldr	s5, [r3, #-20]	; 0xffffffec
 8005978:	ee67 7aa5 	vmul.f32	s15, s15, s11
 800597c:	ed52 5a0e 	vldr	s11, [r2, #-56]	; 0xffffffc8
 8005980:	eee6 7a26 	vfma.f32	s15, s12, s13
 8005984:	3910      	subs	r1, #16
 8005986:	290f      	cmp	r1, #15
 8005988:	ed13 6a0e 	vldr	s12, [r3, #-56]	; 0xffffffc8
 800598c:	ed53 6a0d 	vldr	s13, [r3, #-52]	; 0xffffffcc
 8005990:	eee5 7a86 	vfma.f32	s15, s11, s12
 8005994:	f102 0240 	add.w	r2, r2, #64	; 0x40
 8005998:	f103 0340 	add.w	r3, r3, #64	; 0x40
 800599c:	ed53 5a1c 	vldr	s11, [r3, #-112]	; 0xffffff90
 80059a0:	ed12 6a1b 	vldr	s12, [r2, #-108]	; 0xffffff94
 80059a4:	eee4 7aa6 	vfma.f32	s15, s9, s13
 80059a8:	ed53 6a1b 	vldr	s13, [r3, #-108]	; 0xffffff94
 80059ac:	ed53 4a19 	vldr	s9, [r3, #-100]	; 0xffffff9c
 80059b0:	eee5 7a25 	vfma.f32	s15, s10, s11
 80059b4:	ed12 5a18 	vldr	s10, [r2, #-96]	; 0xffffffa0
 80059b8:	ed53 5a18 	vldr	s11, [r3, #-96]	; 0xffffffa0
 80059bc:	eee6 7a26 	vfma.f32	s15, s12, s13
 80059c0:	ed12 6a17 	vldr	s12, [r2, #-92]	; 0xffffffa4
 80059c4:	ed53 6a17 	vldr	s13, [r3, #-92]	; 0xffffffa4
 80059c8:	eee3 7a23 	vfma.f32	s15, s6, s7
 80059cc:	ed12 3a14 	vldr	s6, [r2, #-80]	; 0xffffffb0
 80059d0:	ed53 3a14 	vldr	s7, [r3, #-80]	; 0xffffffb0
 80059d4:	eee4 7a24 	vfma.f32	s15, s8, s9
 80059d8:	ed12 4a13 	vldr	s8, [r2, #-76]	; 0xffffffb4
 80059dc:	ed53 4a13 	vldr	s9, [r3, #-76]	; 0xffffffb4
 80059e0:	eee5 7a25 	vfma.f32	s15, s10, s11
 80059e4:	ed12 5a12 	vldr	s10, [r2, #-72]	; 0xffffffb8
 80059e8:	ed53 5a12 	vldr	s11, [r3, #-72]	; 0xffffffb8
 80059ec:	eee6 7a26 	vfma.f32	s15, s12, s13
 80059f0:	ed12 6a11 	vldr	s12, [r2, #-68]	; 0xffffffbc
 80059f4:	ed53 6a11 	vldr	s13, [r3, #-68]	; 0xffffffbc
 80059f8:	eee1 7a21 	vfma.f32	s15, s2, s3
 80059fc:	eee2 7a22 	vfma.f32	s15, s4, s5
 8005a00:	eee3 7a23 	vfma.f32	s15, s6, s7
 8005a04:	eee4 7a24 	vfma.f32	s15, s8, s9
 8005a08:	eee5 7a25 	vfma.f32	s15, s10, s11
 8005a0c:	eee6 7a26 	vfma.f32	s15, s12, s13
 8005a10:	ee37 7a27 	vadd.f32	s14, s14, s15
 8005a14:	d896      	bhi.n	8005944 <forward_lstm+0x4c8>
 8005a16:	f8d7 30d8 	ldr.w	r3, [r7, #216]	; 0xd8
 8005a1a:	e9d7 5426 	ldrd	r5, r4, [r7, #152]	; 0x98
 8005a1e:	4453      	add	r3, sl
 8005a20:	2d00      	cmp	r5, #0
 8005a22:	d076      	beq.n	8005b12 <forward_lstm+0x696>
 8005a24:	edd4 6a00 	vldr	s13, [r4]
 8005a28:	edd3 7a00 	vldr	s15, [r3]
 8005a2c:	2d01      	cmp	r5, #1
 8005a2e:	eea6 7aa7 	vfma.f32	s14, s13, s15
 8005a32:	d06e      	beq.n	8005b12 <forward_lstm+0x696>
 8005a34:	edd3 6a01 	vldr	s13, [r3, #4]
 8005a38:	edd4 7a01 	vldr	s15, [r4, #4]
 8005a3c:	2d02      	cmp	r5, #2
 8005a3e:	eea6 7aa7 	vfma.f32	s14, s13, s15
 8005a42:	d066      	beq.n	8005b12 <forward_lstm+0x696>
 8005a44:	edd3 6a02 	vldr	s13, [r3, #8]
 8005a48:	edd4 7a02 	vldr	s15, [r4, #8]
 8005a4c:	2d03      	cmp	r5, #3
 8005a4e:	eea6 7aa7 	vfma.f32	s14, s13, s15
 8005a52:	d05e      	beq.n	8005b12 <forward_lstm+0x696>
 8005a54:	edd3 6a03 	vldr	s13, [r3, #12]
 8005a58:	edd4 7a03 	vldr	s15, [r4, #12]
 8005a5c:	2d04      	cmp	r5, #4
 8005a5e:	eea6 7aa7 	vfma.f32	s14, s13, s15
 8005a62:	d056      	beq.n	8005b12 <forward_lstm+0x696>
 8005a64:	edd3 6a04 	vldr	s13, [r3, #16]
 8005a68:	edd4 7a04 	vldr	s15, [r4, #16]
 8005a6c:	2d05      	cmp	r5, #5
 8005a6e:	eea6 7aa7 	vfma.f32	s14, s13, s15
 8005a72:	d04e      	beq.n	8005b12 <forward_lstm+0x696>
 8005a74:	edd3 6a05 	vldr	s13, [r3, #20]
 8005a78:	edd4 7a05 	vldr	s15, [r4, #20]
 8005a7c:	2d06      	cmp	r5, #6
 8005a7e:	eea6 7aa7 	vfma.f32	s14, s13, s15
 8005a82:	d046      	beq.n	8005b12 <forward_lstm+0x696>
 8005a84:	edd3 6a06 	vldr	s13, [r3, #24]
 8005a88:	edd4 7a06 	vldr	s15, [r4, #24]
 8005a8c:	2d07      	cmp	r5, #7
 8005a8e:	eea6 7aa7 	vfma.f32	s14, s13, s15
 8005a92:	d03e      	beq.n	8005b12 <forward_lstm+0x696>
 8005a94:	edd3 6a07 	vldr	s13, [r3, #28]
 8005a98:	edd4 7a07 	vldr	s15, [r4, #28]
 8005a9c:	2d08      	cmp	r5, #8
 8005a9e:	eea6 7aa7 	vfma.f32	s14, s13, s15
 8005aa2:	d036      	beq.n	8005b12 <forward_lstm+0x696>
 8005aa4:	edd3 6a08 	vldr	s13, [r3, #32]
 8005aa8:	edd4 7a08 	vldr	s15, [r4, #32]
 8005aac:	2d09      	cmp	r5, #9
 8005aae:	eea6 7aa7 	vfma.f32	s14, s13, s15
 8005ab2:	d02e      	beq.n	8005b12 <forward_lstm+0x696>
 8005ab4:	edd3 6a09 	vldr	s13, [r3, #36]	; 0x24
 8005ab8:	edd4 7a09 	vldr	s15, [r4, #36]	; 0x24
 8005abc:	2d0a      	cmp	r5, #10
 8005abe:	eea6 7aa7 	vfma.f32	s14, s13, s15
 8005ac2:	d026      	beq.n	8005b12 <forward_lstm+0x696>
 8005ac4:	edd3 6a0a 	vldr	s13, [r3, #40]	; 0x28
 8005ac8:	edd4 7a0a 	vldr	s15, [r4, #40]	; 0x28
 8005acc:	2d0b      	cmp	r5, #11
 8005ace:	eea6 7aa7 	vfma.f32	s14, s13, s15
 8005ad2:	d01e      	beq.n	8005b12 <forward_lstm+0x696>
 8005ad4:	edd3 6a0b 	vldr	s13, [r3, #44]	; 0x2c
 8005ad8:	edd4 7a0b 	vldr	s15, [r4, #44]	; 0x2c
 8005adc:	2d0c      	cmp	r5, #12
 8005ade:	eea6 7aa7 	vfma.f32	s14, s13, s15
 8005ae2:	d016      	beq.n	8005b12 <forward_lstm+0x696>
 8005ae4:	edd3 6a0c 	vldr	s13, [r3, #48]	; 0x30
 8005ae8:	edd4 7a0c 	vldr	s15, [r4, #48]	; 0x30
 8005aec:	f1b5 020d 	subs.w	r2, r5, #13
 8005af0:	eea6 7aa7 	vfma.f32	s14, s13, s15
 8005af4:	d00d      	beq.n	8005b12 <forward_lstm+0x696>
 8005af6:	edd3 6a0d 	vldr	s13, [r3, #52]	; 0x34
 8005afa:	edd4 7a0d 	vldr	s15, [r4, #52]	; 0x34
 8005afe:	2a01      	cmp	r2, #1
 8005b00:	eea6 7aa7 	vfma.f32	s14, s13, s15
 8005b04:	d005      	beq.n	8005b12 <forward_lstm+0x696>
 8005b06:	edd3 6a0e 	vldr	s13, [r3, #56]	; 0x38
 8005b0a:	edd4 7a0e 	vldr	s15, [r4, #56]	; 0x38
 8005b0e:	eea6 7aa7 	vfma.f32	s14, s13, s15
 8005b12:	f8d7 30f8 	ldr.w	r3, [r7, #248]	; 0xf8
 8005b16:	ed5f 6a76 	vldr	s13, [pc, #-472]	; 8005940 <forward_lstm+0x4c4>
 8005b1a:	ed0c 7a01 	vstr	s14, [ip, #-4]
 8005b1e:	2b00      	cmp	r3, #0
 8005b20:	f001 804c 	beq.w	8006bbc <forward_lstm+0x1740>
 8005b24:	f8d7 30fc 	ldr.w	r3, [r7, #252]	; 0xfc
 8005b28:	f8d7 20f0 	ldr.w	r2, [r7, #240]	; 0xf0
 8005b2c:	3340      	adds	r3, #64	; 0x40
 8005b2e:	3240      	adds	r2, #64	; 0x40
 8005b30:	ed53 7a0f 	vldr	s15, [r3, #-60]	; 0xffffffc4
 8005b34:	ed12 5a0f 	vldr	s10, [r2, #-60]	; 0xffffffc4
 8005b38:	ed53 5a10 	vldr	s11, [r3, #-64]	; 0xffffffc0
 8005b3c:	ed12 6a10 	vldr	s12, [r2, #-64]	; 0xffffffc0
 8005b40:	ed13 4a0d 	vldr	s8, [r3, #-52]	; 0xffffffcc
 8005b44:	ed53 4a0c 	vldr	s9, [r3, #-48]	; 0xffffffd0
 8005b48:	ed53 2a0a 	vldr	s5, [r3, #-40]	; 0xffffffd8
 8005b4c:	ed12 3a0a 	vldr	s6, [r2, #-40]	; 0xffffffd8
 8005b50:	ed53 3a09 	vldr	s7, [r3, #-36]	; 0xffffffdc
 8005b54:	ed53 0a06 	vldr	s1, [r3, #-24]	; 0xffffffe8
 8005b58:	ed12 1a06 	vldr	s2, [r2, #-24]	; 0xffffffe8
 8005b5c:	ed53 1a05 	vldr	s3, [r3, #-20]	; 0xffffffec
 8005b60:	ed12 2a05 	vldr	s4, [r2, #-20]	; 0xffffffec
 8005b64:	ee67 7a85 	vmul.f32	s15, s15, s10
 8005b68:	ed13 5a0e 	vldr	s10, [r3, #-56]	; 0xffffffc8
 8005b6c:	eee5 7a86 	vfma.f32	s15, s11, s12
 8005b70:	3340      	adds	r3, #64	; 0x40
 8005b72:	3240      	adds	r2, #64	; 0x40
 8005b74:	ed52 5a1e 	vldr	s11, [r2, #-120]	; 0xffffff88
 8005b78:	ed12 6a1d 	vldr	s12, [r2, #-116]	; 0xffffff8c
 8005b7c:	eee5 7a25 	vfma.f32	s15, s10, s11
 8005b80:	ed12 5a1c 	vldr	s10, [r2, #-112]	; 0xffffff90
 8005b84:	ed53 5a1b 	vldr	s11, [r3, #-108]	; 0xffffff94
 8005b88:	eee4 7a06 	vfma.f32	s15, s8, s12
 8005b8c:	ed12 6a1b 	vldr	s12, [r2, #-108]	; 0xffffff94
 8005b90:	ed12 4a19 	vldr	s8, [r2, #-100]	; 0xffffff9c
 8005b94:	eee4 7a85 	vfma.f32	s15, s9, s10
 8005b98:	ed53 4a18 	vldr	s9, [r3, #-96]	; 0xffffffa0
 8005b9c:	ed12 5a18 	vldr	s10, [r2, #-96]	; 0xffffffa0
 8005ba0:	eee5 7a86 	vfma.f32	s15, s11, s12
 8005ba4:	ed53 5a17 	vldr	s11, [r3, #-92]	; 0xffffffa4
 8005ba8:	ed12 6a17 	vldr	s12, [r2, #-92]	; 0xffffffa4
 8005bac:	eee2 7a83 	vfma.f32	s15, s5, s6
 8005bb0:	ed53 2a14 	vldr	s5, [r3, #-80]	; 0xffffffb0
 8005bb4:	ed12 3a14 	vldr	s6, [r2, #-80]	; 0xffffffb0
 8005bb8:	eee3 7a84 	vfma.f32	s15, s7, s8
 8005bbc:	ed53 3a13 	vldr	s7, [r3, #-76]	; 0xffffffb4
 8005bc0:	ed12 4a13 	vldr	s8, [r2, #-76]	; 0xffffffb4
 8005bc4:	eee4 7a85 	vfma.f32	s15, s9, s10
 8005bc8:	ed53 4a12 	vldr	s9, [r3, #-72]	; 0xffffffb8
 8005bcc:	ed12 5a12 	vldr	s10, [r2, #-72]	; 0xffffffb8
 8005bd0:	eee5 7a86 	vfma.f32	s15, s11, s12
 8005bd4:	ed53 5a11 	vldr	s11, [r3, #-68]	; 0xffffffbc
 8005bd8:	ed12 6a11 	vldr	s12, [r2, #-68]	; 0xffffffbc
 8005bdc:	eee0 7a81 	vfma.f32	s15, s1, s2
 8005be0:	4298      	cmp	r0, r3
 8005be2:	eee1 7a82 	vfma.f32	s15, s3, s4
 8005be6:	eee2 7a83 	vfma.f32	s15, s5, s6
 8005bea:	eee3 7a84 	vfma.f32	s15, s7, s8
 8005bee:	eee4 7a85 	vfma.f32	s15, s9, s10
 8005bf2:	eee5 7a86 	vfma.f32	s15, s11, s12
 8005bf6:	ee76 6aa7 	vadd.f32	s13, s13, s15
 8005bfa:	d199      	bne.n	8005b30 <forward_lstm+0x6b4>
 8005bfc:	f8d7 30f0 	ldr.w	r3, [r7, #240]	; 0xf0
 8005c00:	f8d7 20d4 	ldr.w	r2, [r7, #212]	; 0xd4
 8005c04:	189a      	adds	r2, r3, r2
 8005c06:	2e00      	cmp	r6, #0
 8005c08:	d078      	beq.n	8005cfc <forward_lstm+0x880>
 8005c0a:	f8d7 10d0 	ldr.w	r1, [r7, #208]	; 0xd0
 8005c0e:	4633      	mov	r3, r6
 8005c10:	ed91 6a00 	vldr	s12, [r1]
 8005c14:	edd2 7a00 	vldr	s15, [r2]
 8005c18:	2b01      	cmp	r3, #1
 8005c1a:	eee6 6a27 	vfma.f32	s13, s12, s15
 8005c1e:	d06d      	beq.n	8005cfc <forward_lstm+0x880>
 8005c20:	ed91 6a01 	vldr	s12, [r1, #4]
 8005c24:	edd2 7a01 	vldr	s15, [r2, #4]
 8005c28:	2b02      	cmp	r3, #2
 8005c2a:	eee6 6a27 	vfma.f32	s13, s12, s15
 8005c2e:	d065      	beq.n	8005cfc <forward_lstm+0x880>
 8005c30:	ed91 6a02 	vldr	s12, [r1, #8]
 8005c34:	edd2 7a02 	vldr	s15, [r2, #8]
 8005c38:	2b03      	cmp	r3, #3
 8005c3a:	eee6 6a27 	vfma.f32	s13, s12, s15
 8005c3e:	d05d      	beq.n	8005cfc <forward_lstm+0x880>
 8005c40:	ed91 6a03 	vldr	s12, [r1, #12]
 8005c44:	edd2 7a03 	vldr	s15, [r2, #12]
 8005c48:	2b04      	cmp	r3, #4
 8005c4a:	eee6 6a27 	vfma.f32	s13, s12, s15
 8005c4e:	d055      	beq.n	8005cfc <forward_lstm+0x880>
 8005c50:	ed91 6a04 	vldr	s12, [r1, #16]
 8005c54:	edd2 7a04 	vldr	s15, [r2, #16]
 8005c58:	2b05      	cmp	r3, #5
 8005c5a:	eee6 6a27 	vfma.f32	s13, s12, s15
 8005c5e:	d04d      	beq.n	8005cfc <forward_lstm+0x880>
 8005c60:	ed91 6a05 	vldr	s12, [r1, #20]
 8005c64:	edd2 7a05 	vldr	s15, [r2, #20]
 8005c68:	2b06      	cmp	r3, #6
 8005c6a:	eee6 6a27 	vfma.f32	s13, s12, s15
 8005c6e:	d045      	beq.n	8005cfc <forward_lstm+0x880>
 8005c70:	ed91 6a06 	vldr	s12, [r1, #24]
 8005c74:	edd2 7a06 	vldr	s15, [r2, #24]
 8005c78:	2b07      	cmp	r3, #7
 8005c7a:	eee6 6a27 	vfma.f32	s13, s12, s15
 8005c7e:	d03d      	beq.n	8005cfc <forward_lstm+0x880>
 8005c80:	ed91 6a07 	vldr	s12, [r1, #28]
 8005c84:	edd2 7a07 	vldr	s15, [r2, #28]
 8005c88:	2b08      	cmp	r3, #8
 8005c8a:	eee6 6a27 	vfma.f32	s13, s12, s15
 8005c8e:	d035      	beq.n	8005cfc <forward_lstm+0x880>
 8005c90:	ed91 6a08 	vldr	s12, [r1, #32]
 8005c94:	edd2 7a08 	vldr	s15, [r2, #32]
 8005c98:	2b09      	cmp	r3, #9
 8005c9a:	eee6 6a27 	vfma.f32	s13, s12, s15
 8005c9e:	d02d      	beq.n	8005cfc <forward_lstm+0x880>
 8005ca0:	ed91 6a09 	vldr	s12, [r1, #36]	; 0x24
 8005ca4:	edd2 7a09 	vldr	s15, [r2, #36]	; 0x24
 8005ca8:	2b0a      	cmp	r3, #10
 8005caa:	eee6 6a27 	vfma.f32	s13, s12, s15
 8005cae:	d025      	beq.n	8005cfc <forward_lstm+0x880>
 8005cb0:	ed91 6a0a 	vldr	s12, [r1, #40]	; 0x28
 8005cb4:	edd2 7a0a 	vldr	s15, [r2, #40]	; 0x28
 8005cb8:	2b0b      	cmp	r3, #11
 8005cba:	eee6 6a27 	vfma.f32	s13, s12, s15
 8005cbe:	d01d      	beq.n	8005cfc <forward_lstm+0x880>
 8005cc0:	ed91 6a0b 	vldr	s12, [r1, #44]	; 0x2c
 8005cc4:	edd2 7a0b 	vldr	s15, [r2, #44]	; 0x2c
 8005cc8:	2b0c      	cmp	r3, #12
 8005cca:	eee6 6a27 	vfma.f32	s13, s12, s15
 8005cce:	d015      	beq.n	8005cfc <forward_lstm+0x880>
 8005cd0:	ed91 6a0c 	vldr	s12, [r1, #48]	; 0x30
 8005cd4:	edd2 7a0c 	vldr	s15, [r2, #48]	; 0x30
 8005cd8:	3b0d      	subs	r3, #13
 8005cda:	eee6 6a27 	vfma.f32	s13, s12, s15
 8005cde:	d00d      	beq.n	8005cfc <forward_lstm+0x880>
 8005ce0:	ed91 6a0d 	vldr	s12, [r1, #52]	; 0x34
 8005ce4:	edd2 7a0d 	vldr	s15, [r2, #52]	; 0x34
 8005ce8:	2b01      	cmp	r3, #1
 8005cea:	eee6 6a27 	vfma.f32	s13, s12, s15
 8005cee:	d005      	beq.n	8005cfc <forward_lstm+0x880>
 8005cf0:	ed91 6a0e 	vldr	s12, [r1, #56]	; 0x38
 8005cf4:	edd2 7a0e 	vldr	s15, [r2, #56]	; 0x38
 8005cf8:	eee6 6a27 	vfma.f32	s13, s12, s15
 8005cfc:	f8d7 30c4 	ldr.w	r3, [r7, #196]	; 0xc4
 8005d00:	f8c7 90ac 	str.w	r9, [r7, #172]	; 0xac
 8005d04:	ee37 7a26 	vadd.f32	s14, s14, s13
 8005d08:	ed0c 7a01 	vstr	s14, [ip, #-4]
 8005d0c:	ecb3 6a01 	vldmia	r3!, {s12}
 8005d10:	edd9 6a00 	vldr	s13, [r9]
 8005d14:	f8c7 30c4 	str.w	r3, [r7, #196]	; 0xc4
 8005d18:	f8d7 30c8 	ldr.w	r3, [r7, #200]	; 0xc8
 8005d1c:	ecf3 7a01 	vldmia	r3!, {s15}
 8005d20:	eee6 7a26 	vfma.f32	s15, s12, s13
 8005d24:	f8c7 30c8 	str.w	r3, [r7, #200]	; 0xc8
 8005d28:	f8d7 30f4 	ldr.w	r3, [r7, #244]	; 0xf4
 8005d2c:	ee37 7a87 	vadd.f32	s14, s15, s14
 8005d30:	ed0c 7a01 	vstr	s14, [ip, #-4]
 8005d34:	ed9f 7abb 	vldr	s14, [pc, #748]	; 8006024 <forward_lstm+0xba8>
 8005d38:	ed88 8a00 	vstr	s16, [r8]
 8005d3c:	2b00      	cmp	r3, #0
 8005d3e:	f000 8739 	beq.w	8006bb4 <forward_lstm+0x1738>
 8005d42:	f8d7 30e0 	ldr.w	r3, [r7, #224]	; 0xe0
 8005d46:	f8d7 10dc 	ldr.w	r1, [r7, #220]	; 0xdc
 8005d4a:	f103 0240 	add.w	r2, r3, #64	; 0x40
 8005d4e:	f8d7 30ec 	ldr.w	r3, [r7, #236]	; 0xec
 8005d52:	3340      	adds	r3, #64	; 0x40
 8005d54:	ed53 5a0f 	vldr	s11, [r3, #-60]	; 0xffffffc4
 8005d58:	ed52 7a0f 	vldr	s15, [r2, #-60]	; 0xffffffc4
 8005d5c:	ed12 6a10 	vldr	s12, [r2, #-64]	; 0xffffffc0
 8005d60:	ed53 6a10 	vldr	s13, [r3, #-64]	; 0xffffffc0
 8005d64:	ed52 4a0d 	vldr	s9, [r2, #-52]	; 0xffffffcc
 8005d68:	ed12 5a0c 	vldr	s10, [r2, #-48]	; 0xffffffd0
 8005d6c:	ed12 3a0a 	vldr	s6, [r2, #-40]	; 0xffffffd8
 8005d70:	ed53 3a0a 	vldr	s7, [r3, #-40]	; 0xffffffd8
 8005d74:	ed12 4a09 	vldr	s8, [r2, #-36]	; 0xffffffdc
 8005d78:	ed12 1a06 	vldr	s2, [r2, #-24]	; 0xffffffe8
 8005d7c:	ed53 1a06 	vldr	s3, [r3, #-24]	; 0xffffffe8
 8005d80:	ed12 2a05 	vldr	s4, [r2, #-20]	; 0xffffffec
 8005d84:	ed53 2a05 	vldr	s5, [r3, #-20]	; 0xffffffec
 8005d88:	ee67 7aa5 	vmul.f32	s15, s15, s11
 8005d8c:	ed52 5a0e 	vldr	s11, [r2, #-56]	; 0xffffffc8
 8005d90:	eee6 7a26 	vfma.f32	s15, s12, s13
 8005d94:	3910      	subs	r1, #16
 8005d96:	290f      	cmp	r1, #15
 8005d98:	ed13 6a0e 	vldr	s12, [r3, #-56]	; 0xffffffc8
 8005d9c:	ed53 6a0d 	vldr	s13, [r3, #-52]	; 0xffffffcc
 8005da0:	eee5 7a86 	vfma.f32	s15, s11, s12
 8005da4:	f102 0240 	add.w	r2, r2, #64	; 0x40
 8005da8:	f103 0340 	add.w	r3, r3, #64	; 0x40
 8005dac:	ed53 5a1c 	vldr	s11, [r3, #-112]	; 0xffffff90
 8005db0:	ed12 6a1b 	vldr	s12, [r2, #-108]	; 0xffffff94
 8005db4:	eee4 7aa6 	vfma.f32	s15, s9, s13
 8005db8:	ed53 6a1b 	vldr	s13, [r3, #-108]	; 0xffffff94
 8005dbc:	ed53 4a19 	vldr	s9, [r3, #-100]	; 0xffffff9c
 8005dc0:	eee5 7a25 	vfma.f32	s15, s10, s11
 8005dc4:	ed12 5a18 	vldr	s10, [r2, #-96]	; 0xffffffa0
 8005dc8:	ed53 5a18 	vldr	s11, [r3, #-96]	; 0xffffffa0
 8005dcc:	eee6 7a26 	vfma.f32	s15, s12, s13
 8005dd0:	ed12 6a17 	vldr	s12, [r2, #-92]	; 0xffffffa4
 8005dd4:	ed53 6a17 	vldr	s13, [r3, #-92]	; 0xffffffa4
 8005dd8:	eee3 7a23 	vfma.f32	s15, s6, s7
 8005ddc:	ed12 3a14 	vldr	s6, [r2, #-80]	; 0xffffffb0
 8005de0:	ed53 3a14 	vldr	s7, [r3, #-80]	; 0xffffffb0
 8005de4:	eee4 7a24 	vfma.f32	s15, s8, s9
 8005de8:	ed12 4a13 	vldr	s8, [r2, #-76]	; 0xffffffb4
 8005dec:	ed53 4a13 	vldr	s9, [r3, #-76]	; 0xffffffb4
 8005df0:	eee5 7a25 	vfma.f32	s15, s10, s11
 8005df4:	ed12 5a12 	vldr	s10, [r2, #-72]	; 0xffffffb8
 8005df8:	ed53 5a12 	vldr	s11, [r3, #-72]	; 0xffffffb8
 8005dfc:	eee6 7a26 	vfma.f32	s15, s12, s13
 8005e00:	ed12 6a11 	vldr	s12, [r2, #-68]	; 0xffffffbc
 8005e04:	ed53 6a11 	vldr	s13, [r3, #-68]	; 0xffffffbc
 8005e08:	eee1 7a21 	vfma.f32	s15, s2, s3
 8005e0c:	eee2 7a22 	vfma.f32	s15, s4, s5
 8005e10:	eee3 7a23 	vfma.f32	s15, s6, s7
 8005e14:	eee4 7a24 	vfma.f32	s15, s8, s9
 8005e18:	eee5 7a25 	vfma.f32	s15, s10, s11
 8005e1c:	eee6 7a26 	vfma.f32	s15, s12, s13
 8005e20:	ee37 7a27 	vadd.f32	s14, s14, s15
 8005e24:	d896      	bhi.n	8005d54 <forward_lstm+0x8d8>
 8005e26:	f8d7 30ec 	ldr.w	r3, [r7, #236]	; 0xec
 8005e2a:	f8d7 20d8 	ldr.w	r2, [r7, #216]	; 0xd8
 8005e2e:	4413      	add	r3, r2
 8005e30:	2d00      	cmp	r5, #0
 8005e32:	d076      	beq.n	8005f22 <forward_lstm+0xaa6>
 8005e34:	edd4 6a00 	vldr	s13, [r4]
 8005e38:	edd3 7a00 	vldr	s15, [r3]
 8005e3c:	2d01      	cmp	r5, #1
 8005e3e:	eea6 7aa7 	vfma.f32	s14, s13, s15
 8005e42:	d06e      	beq.n	8005f22 <forward_lstm+0xaa6>
 8005e44:	edd4 6a01 	vldr	s13, [r4, #4]
 8005e48:	edd3 7a01 	vldr	s15, [r3, #4]
 8005e4c:	2d02      	cmp	r5, #2
 8005e4e:	eea6 7aa7 	vfma.f32	s14, s13, s15
 8005e52:	d066      	beq.n	8005f22 <forward_lstm+0xaa6>
 8005e54:	edd4 6a02 	vldr	s13, [r4, #8]
 8005e58:	edd3 7a02 	vldr	s15, [r3, #8]
 8005e5c:	2d03      	cmp	r5, #3
 8005e5e:	eea6 7aa7 	vfma.f32	s14, s13, s15
 8005e62:	d05e      	beq.n	8005f22 <forward_lstm+0xaa6>
 8005e64:	edd4 6a03 	vldr	s13, [r4, #12]
 8005e68:	edd3 7a03 	vldr	s15, [r3, #12]
 8005e6c:	2d04      	cmp	r5, #4
 8005e6e:	eea6 7aa7 	vfma.f32	s14, s13, s15
 8005e72:	d056      	beq.n	8005f22 <forward_lstm+0xaa6>
 8005e74:	edd4 6a04 	vldr	s13, [r4, #16]
 8005e78:	edd3 7a04 	vldr	s15, [r3, #16]
 8005e7c:	2d05      	cmp	r5, #5
 8005e7e:	eea6 7aa7 	vfma.f32	s14, s13, s15
 8005e82:	d04e      	beq.n	8005f22 <forward_lstm+0xaa6>
 8005e84:	edd4 6a05 	vldr	s13, [r4, #20]
 8005e88:	edd3 7a05 	vldr	s15, [r3, #20]
 8005e8c:	2d06      	cmp	r5, #6
 8005e8e:	eea6 7aa7 	vfma.f32	s14, s13, s15
 8005e92:	d046      	beq.n	8005f22 <forward_lstm+0xaa6>
 8005e94:	edd4 6a06 	vldr	s13, [r4, #24]
 8005e98:	edd3 7a06 	vldr	s15, [r3, #24]
 8005e9c:	2d07      	cmp	r5, #7
 8005e9e:	eea6 7aa7 	vfma.f32	s14, s13, s15
 8005ea2:	d03e      	beq.n	8005f22 <forward_lstm+0xaa6>
 8005ea4:	edd4 6a07 	vldr	s13, [r4, #28]
 8005ea8:	edd3 7a07 	vldr	s15, [r3, #28]
 8005eac:	2d08      	cmp	r5, #8
 8005eae:	eea6 7aa7 	vfma.f32	s14, s13, s15
 8005eb2:	d036      	beq.n	8005f22 <forward_lstm+0xaa6>
 8005eb4:	edd4 6a08 	vldr	s13, [r4, #32]
 8005eb8:	edd3 7a08 	vldr	s15, [r3, #32]
 8005ebc:	2d09      	cmp	r5, #9
 8005ebe:	eea6 7aa7 	vfma.f32	s14, s13, s15
 8005ec2:	d02e      	beq.n	8005f22 <forward_lstm+0xaa6>
 8005ec4:	edd4 6a09 	vldr	s13, [r4, #36]	; 0x24
 8005ec8:	edd3 7a09 	vldr	s15, [r3, #36]	; 0x24
 8005ecc:	2d0a      	cmp	r5, #10
 8005ece:	eea6 7aa7 	vfma.f32	s14, s13, s15
 8005ed2:	d026      	beq.n	8005f22 <forward_lstm+0xaa6>
 8005ed4:	edd4 6a0a 	vldr	s13, [r4, #40]	; 0x28
 8005ed8:	edd3 7a0a 	vldr	s15, [r3, #40]	; 0x28
 8005edc:	2d0b      	cmp	r5, #11
 8005ede:	eea6 7aa7 	vfma.f32	s14, s13, s15
 8005ee2:	d01e      	beq.n	8005f22 <forward_lstm+0xaa6>
 8005ee4:	edd4 6a0b 	vldr	s13, [r4, #44]	; 0x2c
 8005ee8:	edd3 7a0b 	vldr	s15, [r3, #44]	; 0x2c
 8005eec:	2d0c      	cmp	r5, #12
 8005eee:	eea6 7aa7 	vfma.f32	s14, s13, s15
 8005ef2:	d016      	beq.n	8005f22 <forward_lstm+0xaa6>
 8005ef4:	edd4 6a0c 	vldr	s13, [r4, #48]	; 0x30
 8005ef8:	edd3 7a0c 	vldr	s15, [r3, #48]	; 0x30
 8005efc:	f1b5 020d 	subs.w	r2, r5, #13
 8005f00:	eea6 7aa7 	vfma.f32	s14, s13, s15
 8005f04:	d00d      	beq.n	8005f22 <forward_lstm+0xaa6>
 8005f06:	edd4 6a0d 	vldr	s13, [r4, #52]	; 0x34
 8005f0a:	edd3 7a0d 	vldr	s15, [r3, #52]	; 0x34
 8005f0e:	2a01      	cmp	r2, #1
 8005f10:	eea6 7aa7 	vfma.f32	s14, s13, s15
 8005f14:	d005      	beq.n	8005f22 <forward_lstm+0xaa6>
 8005f16:	edd3 6a0e 	vldr	s13, [r3, #56]	; 0x38
 8005f1a:	edd4 7a0e 	vldr	s15, [r4, #56]	; 0x38
 8005f1e:	eea6 7aa7 	vfma.f32	s14, s13, s15
 8005f22:	f8d7 30f8 	ldr.w	r3, [r7, #248]	; 0xf8
 8005f26:	eddf 6a3f 	vldr	s13, [pc, #252]	; 8006024 <forward_lstm+0xba8>
 8005f2a:	ed88 7a00 	vstr	s14, [r8]
 8005f2e:	2b00      	cmp	r3, #0
 8005f30:	f000 8638 	beq.w	8006ba4 <forward_lstm+0x1728>
 8005f34:	f8d7 30fc 	ldr.w	r3, [r7, #252]	; 0xfc
 8005f38:	f8d7 20e8 	ldr.w	r2, [r7, #232]	; 0xe8
 8005f3c:	3340      	adds	r3, #64	; 0x40
 8005f3e:	3240      	adds	r2, #64	; 0x40
 8005f40:	ed53 7a0f 	vldr	s15, [r3, #-60]	; 0xffffffc4
 8005f44:	ed12 5a0f 	vldr	s10, [r2, #-60]	; 0xffffffc4
 8005f48:	ed53 5a10 	vldr	s11, [r3, #-64]	; 0xffffffc0
 8005f4c:	ed12 6a10 	vldr	s12, [r2, #-64]	; 0xffffffc0
 8005f50:	ed13 4a0d 	vldr	s8, [r3, #-52]	; 0xffffffcc
 8005f54:	ed53 4a0c 	vldr	s9, [r3, #-48]	; 0xffffffd0
 8005f58:	ed53 2a0a 	vldr	s5, [r3, #-40]	; 0xffffffd8
 8005f5c:	ed12 3a0a 	vldr	s6, [r2, #-40]	; 0xffffffd8
 8005f60:	ed53 3a09 	vldr	s7, [r3, #-36]	; 0xffffffdc
 8005f64:	ed53 0a06 	vldr	s1, [r3, #-24]	; 0xffffffe8
 8005f68:	ed12 1a06 	vldr	s2, [r2, #-24]	; 0xffffffe8
 8005f6c:	ed53 1a05 	vldr	s3, [r3, #-20]	; 0xffffffec
 8005f70:	ed12 2a05 	vldr	s4, [r2, #-20]	; 0xffffffec
 8005f74:	ee67 7a85 	vmul.f32	s15, s15, s10
 8005f78:	ed13 5a0e 	vldr	s10, [r3, #-56]	; 0xffffffc8
 8005f7c:	eee5 7a86 	vfma.f32	s15, s11, s12
 8005f80:	3340      	adds	r3, #64	; 0x40
 8005f82:	3240      	adds	r2, #64	; 0x40
 8005f84:	ed52 5a1e 	vldr	s11, [r2, #-120]	; 0xffffff88
 8005f88:	ed12 6a1d 	vldr	s12, [r2, #-116]	; 0xffffff8c
 8005f8c:	eee5 7a25 	vfma.f32	s15, s10, s11
 8005f90:	ed12 5a1c 	vldr	s10, [r2, #-112]	; 0xffffff90
 8005f94:	ed53 5a1b 	vldr	s11, [r3, #-108]	; 0xffffff94
 8005f98:	eee4 7a06 	vfma.f32	s15, s8, s12
 8005f9c:	ed12 6a1b 	vldr	s12, [r2, #-108]	; 0xffffff94
 8005fa0:	ed12 4a19 	vldr	s8, [r2, #-100]	; 0xffffff9c
 8005fa4:	eee4 7a85 	vfma.f32	s15, s9, s10
 8005fa8:	ed53 4a18 	vldr	s9, [r3, #-96]	; 0xffffffa0
 8005fac:	ed12 5a18 	vldr	s10, [r2, #-96]	; 0xffffffa0
 8005fb0:	eee5 7a86 	vfma.f32	s15, s11, s12
 8005fb4:	ed53 5a17 	vldr	s11, [r3, #-92]	; 0xffffffa4
 8005fb8:	ed12 6a17 	vldr	s12, [r2, #-92]	; 0xffffffa4
 8005fbc:	eee2 7a83 	vfma.f32	s15, s5, s6
 8005fc0:	ed53 2a14 	vldr	s5, [r3, #-80]	; 0xffffffb0
 8005fc4:	ed12 3a14 	vldr	s6, [r2, #-80]	; 0xffffffb0
 8005fc8:	eee3 7a84 	vfma.f32	s15, s7, s8
 8005fcc:	ed53 3a13 	vldr	s7, [r3, #-76]	; 0xffffffb4
 8005fd0:	ed12 4a13 	vldr	s8, [r2, #-76]	; 0xffffffb4
 8005fd4:	eee4 7a85 	vfma.f32	s15, s9, s10
 8005fd8:	ed53 4a12 	vldr	s9, [r3, #-72]	; 0xffffffb8
 8005fdc:	ed12 5a12 	vldr	s10, [r2, #-72]	; 0xffffffb8
 8005fe0:	eee5 7a86 	vfma.f32	s15, s11, s12
 8005fe4:	ed53 5a11 	vldr	s11, [r3, #-68]	; 0xffffffbc
 8005fe8:	ed12 6a11 	vldr	s12, [r2, #-68]	; 0xffffffbc
 8005fec:	eee0 7a81 	vfma.f32	s15, s1, s2
 8005ff0:	4283      	cmp	r3, r0
 8005ff2:	eee1 7a82 	vfma.f32	s15, s3, s4
 8005ff6:	eee2 7a83 	vfma.f32	s15, s5, s6
 8005ffa:	eee3 7a84 	vfma.f32	s15, s7, s8
 8005ffe:	eee4 7a85 	vfma.f32	s15, s9, s10
 8006002:	eee5 7a86 	vfma.f32	s15, s11, s12
 8006006:	ee76 6aa7 	vadd.f32	s13, s13, s15
 800600a:	d199      	bne.n	8005f40 <forward_lstm+0xac4>
 800600c:	f8d7 30e8 	ldr.w	r3, [r7, #232]	; 0xe8
 8006010:	f8d7 20d4 	ldr.w	r2, [r7, #212]	; 0xd4
 8006014:	189a      	adds	r2, r3, r2
 8006016:	2e00      	cmp	r6, #0
 8006018:	d07c      	beq.n	8006114 <forward_lstm+0xc98>
 800601a:	f8d7 10d0 	ldr.w	r1, [r7, #208]	; 0xd0
 800601e:	4633      	mov	r3, r6
 8006020:	e002      	b.n	8006028 <forward_lstm+0xbac>
 8006022:	bf00      	nop
 8006024:	00000000 	.word	0x00000000
 8006028:	ed91 6a00 	vldr	s12, [r1]
 800602c:	edd2 7a00 	vldr	s15, [r2]
 8006030:	2b01      	cmp	r3, #1
 8006032:	eee6 6a27 	vfma.f32	s13, s12, s15
 8006036:	d06d      	beq.n	8006114 <forward_lstm+0xc98>
 8006038:	ed91 6a01 	vldr	s12, [r1, #4]
 800603c:	edd2 7a01 	vldr	s15, [r2, #4]
 8006040:	2b02      	cmp	r3, #2
 8006042:	eee6 6a27 	vfma.f32	s13, s12, s15
 8006046:	d065      	beq.n	8006114 <forward_lstm+0xc98>
 8006048:	ed91 6a02 	vldr	s12, [r1, #8]
 800604c:	edd2 7a02 	vldr	s15, [r2, #8]
 8006050:	2b03      	cmp	r3, #3
 8006052:	eee6 6a27 	vfma.f32	s13, s12, s15
 8006056:	d05d      	beq.n	8006114 <forward_lstm+0xc98>
 8006058:	ed91 6a03 	vldr	s12, [r1, #12]
 800605c:	edd2 7a03 	vldr	s15, [r2, #12]
 8006060:	2b04      	cmp	r3, #4
 8006062:	eee6 6a27 	vfma.f32	s13, s12, s15
 8006066:	d055      	beq.n	8006114 <forward_lstm+0xc98>
 8006068:	ed91 6a04 	vldr	s12, [r1, #16]
 800606c:	edd2 7a04 	vldr	s15, [r2, #16]
 8006070:	2b05      	cmp	r3, #5
 8006072:	eee6 6a27 	vfma.f32	s13, s12, s15
 8006076:	d04d      	beq.n	8006114 <forward_lstm+0xc98>
 8006078:	ed91 6a05 	vldr	s12, [r1, #20]
 800607c:	edd2 7a05 	vldr	s15, [r2, #20]
 8006080:	2b06      	cmp	r3, #6
 8006082:	eee6 6a27 	vfma.f32	s13, s12, s15
 8006086:	d045      	beq.n	8006114 <forward_lstm+0xc98>
 8006088:	ed91 6a06 	vldr	s12, [r1, #24]
 800608c:	edd2 7a06 	vldr	s15, [r2, #24]
 8006090:	2b07      	cmp	r3, #7
 8006092:	eee6 6a27 	vfma.f32	s13, s12, s15
 8006096:	d03d      	beq.n	8006114 <forward_lstm+0xc98>
 8006098:	ed91 6a07 	vldr	s12, [r1, #28]
 800609c:	edd2 7a07 	vldr	s15, [r2, #28]
 80060a0:	2b08      	cmp	r3, #8
 80060a2:	eee6 6a27 	vfma.f32	s13, s12, s15
 80060a6:	d035      	beq.n	8006114 <forward_lstm+0xc98>
 80060a8:	ed91 6a08 	vldr	s12, [r1, #32]
 80060ac:	edd2 7a08 	vldr	s15, [r2, #32]
 80060b0:	2b09      	cmp	r3, #9
 80060b2:	eee6 6a27 	vfma.f32	s13, s12, s15
 80060b6:	d02d      	beq.n	8006114 <forward_lstm+0xc98>
 80060b8:	ed91 6a09 	vldr	s12, [r1, #36]	; 0x24
 80060bc:	edd2 7a09 	vldr	s15, [r2, #36]	; 0x24
 80060c0:	2b0a      	cmp	r3, #10
 80060c2:	eee6 6a27 	vfma.f32	s13, s12, s15
 80060c6:	d025      	beq.n	8006114 <forward_lstm+0xc98>
 80060c8:	ed91 6a0a 	vldr	s12, [r1, #40]	; 0x28
 80060cc:	edd2 7a0a 	vldr	s15, [r2, #40]	; 0x28
 80060d0:	2b0b      	cmp	r3, #11
 80060d2:	eee6 6a27 	vfma.f32	s13, s12, s15
 80060d6:	d01d      	beq.n	8006114 <forward_lstm+0xc98>
 80060d8:	ed91 6a0b 	vldr	s12, [r1, #44]	; 0x2c
 80060dc:	edd2 7a0b 	vldr	s15, [r2, #44]	; 0x2c
 80060e0:	2b0c      	cmp	r3, #12
 80060e2:	eee6 6a27 	vfma.f32	s13, s12, s15
 80060e6:	d015      	beq.n	8006114 <forward_lstm+0xc98>
 80060e8:	ed91 6a0c 	vldr	s12, [r1, #48]	; 0x30
 80060ec:	edd2 7a0c 	vldr	s15, [r2, #48]	; 0x30
 80060f0:	3b0d      	subs	r3, #13
 80060f2:	eee6 6a27 	vfma.f32	s13, s12, s15
 80060f6:	d00d      	beq.n	8006114 <forward_lstm+0xc98>
 80060f8:	ed91 6a0d 	vldr	s12, [r1, #52]	; 0x34
 80060fc:	edd2 7a0d 	vldr	s15, [r2, #52]	; 0x34
 8006100:	2b01      	cmp	r3, #1
 8006102:	eee6 6a27 	vfma.f32	s13, s12, s15
 8006106:	d005      	beq.n	8006114 <forward_lstm+0xc98>
 8006108:	ed91 6a0e 	vldr	s12, [r1, #56]	; 0x38
 800610c:	edd2 7a0e 	vldr	s15, [r2, #56]	; 0x38
 8006110:	eee6 6a27 	vfma.f32	s13, s12, s15
 8006114:	f8d7 30ac 	ldr.w	r3, [r7, #172]	; 0xac
 8006118:	ee36 7a87 	vadd.f32	s14, s13, s14
 800611c:	f109 0904 	add.w	r9, r9, #4
 8006120:	ed88 7a00 	vstr	s14, [r8]
 8006124:	edd3 7a00 	vldr	s15, [r3]
 8006128:	f8d7 30bc 	ldr.w	r3, [r7, #188]	; 0xbc
 800612c:	ecb3 6a01 	vldmia	r3!, {s12}
 8006130:	f8c7 30bc 	str.w	r3, [r7, #188]	; 0xbc
 8006134:	f8d7 30c0 	ldr.w	r3, [r7, #192]	; 0xc0
 8006138:	ecf3 6a01 	vldmia	r3!, {s13}
 800613c:	eee6 6a27 	vfma.f32	s13, s12, s15
 8006140:	f8c7 30c0 	str.w	r3, [r7, #192]	; 0xc0
 8006144:	f8d7 30f4 	ldr.w	r3, [r7, #244]	; 0xf4
 8006148:	ee36 7a87 	vadd.f32	s14, s13, s14
 800614c:	eca8 7a01 	vstmia	r8!, {s14}
 8006150:	ed1f 7a4c 	vldr	s14, [pc, #-304]	; 8006024 <forward_lstm+0xba8>
 8006154:	ed8e 8a00 	vstr	s16, [lr]
 8006158:	2b00      	cmp	r3, #0
 800615a:	f000 851f 	beq.w	8006b9c <forward_lstm+0x1720>
 800615e:	f8d7 30e0 	ldr.w	r3, [r7, #224]	; 0xe0
 8006162:	f8d7 10dc 	ldr.w	r1, [r7, #220]	; 0xdc
 8006166:	f103 0240 	add.w	r2, r3, #64	; 0x40
 800616a:	f8d7 30e4 	ldr.w	r3, [r7, #228]	; 0xe4
 800616e:	3340      	adds	r3, #64	; 0x40
 8006170:	ed53 5a0f 	vldr	s11, [r3, #-60]	; 0xffffffc4
 8006174:	ed52 7a0f 	vldr	s15, [r2, #-60]	; 0xffffffc4
 8006178:	ed12 6a10 	vldr	s12, [r2, #-64]	; 0xffffffc0
 800617c:	ed53 6a10 	vldr	s13, [r3, #-64]	; 0xffffffc0
 8006180:	ed52 4a0d 	vldr	s9, [r2, #-52]	; 0xffffffcc
 8006184:	ed12 5a0c 	vldr	s10, [r2, #-48]	; 0xffffffd0
 8006188:	ed12 3a0a 	vldr	s6, [r2, #-40]	; 0xffffffd8
 800618c:	ed53 3a0a 	vldr	s7, [r3, #-40]	; 0xffffffd8
 8006190:	ed12 4a09 	vldr	s8, [r2, #-36]	; 0xffffffdc
 8006194:	ed12 1a06 	vldr	s2, [r2, #-24]	; 0xffffffe8
 8006198:	ed53 1a06 	vldr	s3, [r3, #-24]	; 0xffffffe8
 800619c:	ed12 2a05 	vldr	s4, [r2, #-20]	; 0xffffffec
 80061a0:	ed53 2a05 	vldr	s5, [r3, #-20]	; 0xffffffec
 80061a4:	ee67 7aa5 	vmul.f32	s15, s15, s11
 80061a8:	ed52 5a0e 	vldr	s11, [r2, #-56]	; 0xffffffc8
 80061ac:	eee6 7a26 	vfma.f32	s15, s12, s13
 80061b0:	3910      	subs	r1, #16
 80061b2:	290f      	cmp	r1, #15
 80061b4:	ed13 6a0e 	vldr	s12, [r3, #-56]	; 0xffffffc8
 80061b8:	ed53 6a0d 	vldr	s13, [r3, #-52]	; 0xffffffcc
 80061bc:	eee5 7a86 	vfma.f32	s15, s11, s12
 80061c0:	f102 0240 	add.w	r2, r2, #64	; 0x40
 80061c4:	f103 0340 	add.w	r3, r3, #64	; 0x40
 80061c8:	ed53 5a1c 	vldr	s11, [r3, #-112]	; 0xffffff90
 80061cc:	ed12 6a1b 	vldr	s12, [r2, #-108]	; 0xffffff94
 80061d0:	eee4 7aa6 	vfma.f32	s15, s9, s13
 80061d4:	ed53 6a1b 	vldr	s13, [r3, #-108]	; 0xffffff94
 80061d8:	ed53 4a19 	vldr	s9, [r3, #-100]	; 0xffffff9c
 80061dc:	eee5 7a25 	vfma.f32	s15, s10, s11
 80061e0:	ed12 5a18 	vldr	s10, [r2, #-96]	; 0xffffffa0
 80061e4:	ed53 5a18 	vldr	s11, [r3, #-96]	; 0xffffffa0
 80061e8:	eee6 7a26 	vfma.f32	s15, s12, s13
 80061ec:	ed12 6a17 	vldr	s12, [r2, #-92]	; 0xffffffa4
 80061f0:	ed53 6a17 	vldr	s13, [r3, #-92]	; 0xffffffa4
 80061f4:	eee3 7a23 	vfma.f32	s15, s6, s7
 80061f8:	ed12 3a14 	vldr	s6, [r2, #-80]	; 0xffffffb0
 80061fc:	ed53 3a14 	vldr	s7, [r3, #-80]	; 0xffffffb0
 8006200:	eee4 7a24 	vfma.f32	s15, s8, s9
 8006204:	ed12 4a13 	vldr	s8, [r2, #-76]	; 0xffffffb4
 8006208:	ed53 4a13 	vldr	s9, [r3, #-76]	; 0xffffffb4
 800620c:	eee5 7a25 	vfma.f32	s15, s10, s11
 8006210:	ed12 5a12 	vldr	s10, [r2, #-72]	; 0xffffffb8
 8006214:	ed53 5a12 	vldr	s11, [r3, #-72]	; 0xffffffb8
 8006218:	eee6 7a26 	vfma.f32	s15, s12, s13
 800621c:	ed12 6a11 	vldr	s12, [r2, #-68]	; 0xffffffbc
 8006220:	ed53 6a11 	vldr	s13, [r3, #-68]	; 0xffffffbc
 8006224:	eee1 7a21 	vfma.f32	s15, s2, s3
 8006228:	eee2 7a22 	vfma.f32	s15, s4, s5
 800622c:	eee3 7a23 	vfma.f32	s15, s6, s7
 8006230:	eee4 7a24 	vfma.f32	s15, s8, s9
 8006234:	eee5 7a25 	vfma.f32	s15, s10, s11
 8006238:	eee6 7a26 	vfma.f32	s15, s12, s13
 800623c:	ee37 7a27 	vadd.f32	s14, s14, s15
 8006240:	d896      	bhi.n	8006170 <forward_lstm+0xcf4>
 8006242:	f8d7 30e4 	ldr.w	r3, [r7, #228]	; 0xe4
 8006246:	f8d7 20d8 	ldr.w	r2, [r7, #216]	; 0xd8
 800624a:	4413      	add	r3, r2
 800624c:	2d00      	cmp	r5, #0
 800624e:	d076      	beq.n	800633e <forward_lstm+0xec2>
 8006250:	edd4 6a00 	vldr	s13, [r4]
 8006254:	edd3 7a00 	vldr	s15, [r3]
 8006258:	2d01      	cmp	r5, #1
 800625a:	eea6 7aa7 	vfma.f32	s14, s13, s15
 800625e:	d06e      	beq.n	800633e <forward_lstm+0xec2>
 8006260:	edd4 6a01 	vldr	s13, [r4, #4]
 8006264:	edd3 7a01 	vldr	s15, [r3, #4]
 8006268:	2d02      	cmp	r5, #2
 800626a:	eea6 7aa7 	vfma.f32	s14, s13, s15
 800626e:	d066      	beq.n	800633e <forward_lstm+0xec2>
 8006270:	edd4 6a02 	vldr	s13, [r4, #8]
 8006274:	edd3 7a02 	vldr	s15, [r3, #8]
 8006278:	2d03      	cmp	r5, #3
 800627a:	eea6 7aa7 	vfma.f32	s14, s13, s15
 800627e:	d05e      	beq.n	800633e <forward_lstm+0xec2>
 8006280:	edd4 6a03 	vldr	s13, [r4, #12]
 8006284:	edd3 7a03 	vldr	s15, [r3, #12]
 8006288:	2d04      	cmp	r5, #4
 800628a:	eea6 7aa7 	vfma.f32	s14, s13, s15
 800628e:	d056      	beq.n	800633e <forward_lstm+0xec2>
 8006290:	edd4 6a04 	vldr	s13, [r4, #16]
 8006294:	edd3 7a04 	vldr	s15, [r3, #16]
 8006298:	2d05      	cmp	r5, #5
 800629a:	eea6 7aa7 	vfma.f32	s14, s13, s15
 800629e:	d04e      	beq.n	800633e <forward_lstm+0xec2>
 80062a0:	edd4 6a05 	vldr	s13, [r4, #20]
 80062a4:	edd3 7a05 	vldr	s15, [r3, #20]
 80062a8:	2d06      	cmp	r5, #6
 80062aa:	eea6 7aa7 	vfma.f32	s14, s13, s15
 80062ae:	d046      	beq.n	800633e <forward_lstm+0xec2>
 80062b0:	edd4 6a06 	vldr	s13, [r4, #24]
 80062b4:	edd3 7a06 	vldr	s15, [r3, #24]
 80062b8:	2d07      	cmp	r5, #7
 80062ba:	eea6 7aa7 	vfma.f32	s14, s13, s15
 80062be:	d03e      	beq.n	800633e <forward_lstm+0xec2>
 80062c0:	edd4 6a07 	vldr	s13, [r4, #28]
 80062c4:	edd3 7a07 	vldr	s15, [r3, #28]
 80062c8:	2d08      	cmp	r5, #8
 80062ca:	eea6 7aa7 	vfma.f32	s14, s13, s15
 80062ce:	d036      	beq.n	800633e <forward_lstm+0xec2>
 80062d0:	edd4 6a08 	vldr	s13, [r4, #32]
 80062d4:	edd3 7a08 	vldr	s15, [r3, #32]
 80062d8:	2d09      	cmp	r5, #9
 80062da:	eea6 7aa7 	vfma.f32	s14, s13, s15
 80062de:	d02e      	beq.n	800633e <forward_lstm+0xec2>
 80062e0:	edd4 6a09 	vldr	s13, [r4, #36]	; 0x24
 80062e4:	edd3 7a09 	vldr	s15, [r3, #36]	; 0x24
 80062e8:	2d0a      	cmp	r5, #10
 80062ea:	eea6 7aa7 	vfma.f32	s14, s13, s15
 80062ee:	d026      	beq.n	800633e <forward_lstm+0xec2>
 80062f0:	edd4 6a0a 	vldr	s13, [r4, #40]	; 0x28
 80062f4:	edd3 7a0a 	vldr	s15, [r3, #40]	; 0x28
 80062f8:	2d0b      	cmp	r5, #11
 80062fa:	eea6 7aa7 	vfma.f32	s14, s13, s15
 80062fe:	d01e      	beq.n	800633e <forward_lstm+0xec2>
 8006300:	edd4 6a0b 	vldr	s13, [r4, #44]	; 0x2c
 8006304:	edd3 7a0b 	vldr	s15, [r3, #44]	; 0x2c
 8006308:	2d0c      	cmp	r5, #12
 800630a:	eea6 7aa7 	vfma.f32	s14, s13, s15
 800630e:	d016      	beq.n	800633e <forward_lstm+0xec2>
 8006310:	edd4 6a0c 	vldr	s13, [r4, #48]	; 0x30
 8006314:	edd3 7a0c 	vldr	s15, [r3, #48]	; 0x30
 8006318:	f1b5 020d 	subs.w	r2, r5, #13
 800631c:	eea6 7aa7 	vfma.f32	s14, s13, s15
 8006320:	d00d      	beq.n	800633e <forward_lstm+0xec2>
 8006322:	edd4 6a0d 	vldr	s13, [r4, #52]	; 0x34
 8006326:	edd3 7a0d 	vldr	s15, [r3, #52]	; 0x34
 800632a:	2a01      	cmp	r2, #1
 800632c:	eea6 7aa7 	vfma.f32	s14, s13, s15
 8006330:	d005      	beq.n	800633e <forward_lstm+0xec2>
 8006332:	edd3 6a0e 	vldr	s13, [r3, #56]	; 0x38
 8006336:	edd4 7a0e 	vldr	s15, [r4, #56]	; 0x38
 800633a:	eea6 7aa7 	vfma.f32	s14, s13, s15
 800633e:	f8d7 30f8 	ldr.w	r3, [r7, #248]	; 0xf8
 8006342:	ed5f 6ac8 	vldr	s13, [pc, #-800]	; 8006024 <forward_lstm+0xba8>
 8006346:	ed8e 7a00 	vstr	s14, [lr]
 800634a:	2b00      	cmp	r3, #0
 800634c:	f000 8420 	beq.w	8006b90 <forward_lstm+0x1714>
 8006350:	f8d7 30fc 	ldr.w	r3, [r7, #252]	; 0xfc
 8006354:	f10b 0240 	add.w	r2, fp, #64	; 0x40
 8006358:	3340      	adds	r3, #64	; 0x40
 800635a:	ed53 7a0f 	vldr	s15, [r3, #-60]	; 0xffffffc4
 800635e:	ed12 5a0f 	vldr	s10, [r2, #-60]	; 0xffffffc4
 8006362:	ed53 5a10 	vldr	s11, [r3, #-64]	; 0xffffffc0
 8006366:	ed12 6a10 	vldr	s12, [r2, #-64]	; 0xffffffc0
 800636a:	ed13 4a0d 	vldr	s8, [r3, #-52]	; 0xffffffcc
 800636e:	ed53 4a0c 	vldr	s9, [r3, #-48]	; 0xffffffd0
 8006372:	ed53 2a0a 	vldr	s5, [r3, #-40]	; 0xffffffd8
 8006376:	ed12 3a0a 	vldr	s6, [r2, #-40]	; 0xffffffd8
 800637a:	ed53 3a09 	vldr	s7, [r3, #-36]	; 0xffffffdc
 800637e:	ed53 0a06 	vldr	s1, [r3, #-24]	; 0xffffffe8
 8006382:	ed12 1a06 	vldr	s2, [r2, #-24]	; 0xffffffe8
 8006386:	ed53 1a05 	vldr	s3, [r3, #-20]	; 0xffffffec
 800638a:	ed12 2a05 	vldr	s4, [r2, #-20]	; 0xffffffec
 800638e:	ee67 7a85 	vmul.f32	s15, s15, s10
 8006392:	ed13 5a0e 	vldr	s10, [r3, #-56]	; 0xffffffc8
 8006396:	eee5 7a86 	vfma.f32	s15, s11, s12
 800639a:	3340      	adds	r3, #64	; 0x40
 800639c:	3240      	adds	r2, #64	; 0x40
 800639e:	ed52 5a1e 	vldr	s11, [r2, #-120]	; 0xffffff88
 80063a2:	ed12 6a1d 	vldr	s12, [r2, #-116]	; 0xffffff8c
 80063a6:	eee5 7a25 	vfma.f32	s15, s10, s11
 80063aa:	ed12 5a1c 	vldr	s10, [r2, #-112]	; 0xffffff90
 80063ae:	ed53 5a1b 	vldr	s11, [r3, #-108]	; 0xffffff94
 80063b2:	eee4 7a06 	vfma.f32	s15, s8, s12
 80063b6:	ed12 6a1b 	vldr	s12, [r2, #-108]	; 0xffffff94
 80063ba:	ed12 4a19 	vldr	s8, [r2, #-100]	; 0xffffff9c
 80063be:	eee4 7a85 	vfma.f32	s15, s9, s10
 80063c2:	ed53 4a18 	vldr	s9, [r3, #-96]	; 0xffffffa0
 80063c6:	ed12 5a18 	vldr	s10, [r2, #-96]	; 0xffffffa0
 80063ca:	eee5 7a86 	vfma.f32	s15, s11, s12
 80063ce:	ed53 5a17 	vldr	s11, [r3, #-92]	; 0xffffffa4
 80063d2:	ed12 6a17 	vldr	s12, [r2, #-92]	; 0xffffffa4
 80063d6:	eee2 7a83 	vfma.f32	s15, s5, s6
 80063da:	ed53 2a14 	vldr	s5, [r3, #-80]	; 0xffffffb0
 80063de:	ed12 3a14 	vldr	s6, [r2, #-80]	; 0xffffffb0
 80063e2:	eee3 7a84 	vfma.f32	s15, s7, s8
 80063e6:	ed53 3a13 	vldr	s7, [r3, #-76]	; 0xffffffb4
 80063ea:	ed12 4a13 	vldr	s8, [r2, #-76]	; 0xffffffb4
 80063ee:	eee4 7a85 	vfma.f32	s15, s9, s10
 80063f2:	ed53 4a12 	vldr	s9, [r3, #-72]	; 0xffffffb8
 80063f6:	ed12 5a12 	vldr	s10, [r2, #-72]	; 0xffffffb8
 80063fa:	eee5 7a86 	vfma.f32	s15, s11, s12
 80063fe:	ed53 5a11 	vldr	s11, [r3, #-68]	; 0xffffffbc
 8006402:	ed12 6a11 	vldr	s12, [r2, #-68]	; 0xffffffbc
 8006406:	eee0 7a81 	vfma.f32	s15, s1, s2
 800640a:	4283      	cmp	r3, r0
 800640c:	eee1 7a82 	vfma.f32	s15, s3, s4
 8006410:	eee2 7a83 	vfma.f32	s15, s5, s6
 8006414:	eee3 7a84 	vfma.f32	s15, s7, s8
 8006418:	eee4 7a85 	vfma.f32	s15, s9, s10
 800641c:	eee5 7a86 	vfma.f32	s15, s11, s12
 8006420:	ee76 6aa7 	vadd.f32	s13, s13, s15
 8006424:	d199      	bne.n	800635a <forward_lstm+0xede>
 8006426:	f8d7 30d4 	ldr.w	r3, [r7, #212]	; 0xd4
 800642a:	eb0b 0203 	add.w	r2, fp, r3
 800642e:	2e00      	cmp	r6, #0
 8006430:	d078      	beq.n	8006524 <forward_lstm+0x10a8>
 8006432:	f8d7 10d0 	ldr.w	r1, [r7, #208]	; 0xd0
 8006436:	4633      	mov	r3, r6
 8006438:	ed91 6a00 	vldr	s12, [r1]
 800643c:	edd2 7a00 	vldr	s15, [r2]
 8006440:	2b01      	cmp	r3, #1
 8006442:	eee6 6a27 	vfma.f32	s13, s12, s15
 8006446:	d06d      	beq.n	8006524 <forward_lstm+0x10a8>
 8006448:	ed91 6a01 	vldr	s12, [r1, #4]
 800644c:	edd2 7a01 	vldr	s15, [r2, #4]
 8006450:	2b02      	cmp	r3, #2
 8006452:	eee6 6a27 	vfma.f32	s13, s12, s15
 8006456:	d065      	beq.n	8006524 <forward_lstm+0x10a8>
 8006458:	ed91 6a02 	vldr	s12, [r1, #8]
 800645c:	edd2 7a02 	vldr	s15, [r2, #8]
 8006460:	2b03      	cmp	r3, #3
 8006462:	eee6 6a27 	vfma.f32	s13, s12, s15
 8006466:	d05d      	beq.n	8006524 <forward_lstm+0x10a8>
 8006468:	ed91 6a03 	vldr	s12, [r1, #12]
 800646c:	edd2 7a03 	vldr	s15, [r2, #12]
 8006470:	2b04      	cmp	r3, #4
 8006472:	eee6 6a27 	vfma.f32	s13, s12, s15
 8006476:	d055      	beq.n	8006524 <forward_lstm+0x10a8>
 8006478:	ed91 6a04 	vldr	s12, [r1, #16]
 800647c:	edd2 7a04 	vldr	s15, [r2, #16]
 8006480:	2b05      	cmp	r3, #5
 8006482:	eee6 6a27 	vfma.f32	s13, s12, s15
 8006486:	d04d      	beq.n	8006524 <forward_lstm+0x10a8>
 8006488:	ed91 6a05 	vldr	s12, [r1, #20]
 800648c:	edd2 7a05 	vldr	s15, [r2, #20]
 8006490:	2b06      	cmp	r3, #6
 8006492:	eee6 6a27 	vfma.f32	s13, s12, s15
 8006496:	d045      	beq.n	8006524 <forward_lstm+0x10a8>
 8006498:	ed91 6a06 	vldr	s12, [r1, #24]
 800649c:	edd2 7a06 	vldr	s15, [r2, #24]
 80064a0:	2b07      	cmp	r3, #7
 80064a2:	eee6 6a27 	vfma.f32	s13, s12, s15
 80064a6:	d03d      	beq.n	8006524 <forward_lstm+0x10a8>
 80064a8:	ed91 6a07 	vldr	s12, [r1, #28]
 80064ac:	edd2 7a07 	vldr	s15, [r2, #28]
 80064b0:	2b08      	cmp	r3, #8
 80064b2:	eee6 6a27 	vfma.f32	s13, s12, s15
 80064b6:	d035      	beq.n	8006524 <forward_lstm+0x10a8>
 80064b8:	ed91 6a08 	vldr	s12, [r1, #32]
 80064bc:	edd2 7a08 	vldr	s15, [r2, #32]
 80064c0:	2b09      	cmp	r3, #9
 80064c2:	eee6 6a27 	vfma.f32	s13, s12, s15
 80064c6:	d02d      	beq.n	8006524 <forward_lstm+0x10a8>
 80064c8:	ed91 6a09 	vldr	s12, [r1, #36]	; 0x24
 80064cc:	edd2 7a09 	vldr	s15, [r2, #36]	; 0x24
 80064d0:	2b0a      	cmp	r3, #10
 80064d2:	eee6 6a27 	vfma.f32	s13, s12, s15
 80064d6:	d025      	beq.n	8006524 <forward_lstm+0x10a8>
 80064d8:	ed91 6a0a 	vldr	s12, [r1, #40]	; 0x28
 80064dc:	edd2 7a0a 	vldr	s15, [r2, #40]	; 0x28
 80064e0:	2b0b      	cmp	r3, #11
 80064e2:	eee6 6a27 	vfma.f32	s13, s12, s15
 80064e6:	d01d      	beq.n	8006524 <forward_lstm+0x10a8>
 80064e8:	ed91 6a0b 	vldr	s12, [r1, #44]	; 0x2c
 80064ec:	edd2 7a0b 	vldr	s15, [r2, #44]	; 0x2c
 80064f0:	2b0c      	cmp	r3, #12
 80064f2:	eee6 6a27 	vfma.f32	s13, s12, s15
 80064f6:	d015      	beq.n	8006524 <forward_lstm+0x10a8>
 80064f8:	ed91 6a0c 	vldr	s12, [r1, #48]	; 0x30
 80064fc:	edd2 7a0c 	vldr	s15, [r2, #48]	; 0x30
 8006500:	3b0d      	subs	r3, #13
 8006502:	eee6 6a27 	vfma.f32	s13, s12, s15
 8006506:	d00d      	beq.n	8006524 <forward_lstm+0x10a8>
 8006508:	ed91 6a0d 	vldr	s12, [r1, #52]	; 0x34
 800650c:	edd2 7a0d 	vldr	s15, [r2, #52]	; 0x34
 8006510:	2b01      	cmp	r3, #1
 8006512:	eee6 6a27 	vfma.f32	s13, s12, s15
 8006516:	d005      	beq.n	8006524 <forward_lstm+0x10a8>
 8006518:	ed91 6a0e 	vldr	s12, [r1, #56]	; 0x38
 800651c:	edd2 7a0e 	vldr	s15, [r2, #56]	; 0x38
 8006520:	eee6 6a27 	vfma.f32	s13, s12, s15
 8006524:	f8d7 20b8 	ldr.w	r2, [r7, #184]	; 0xb8
 8006528:	f8d7 10f0 	ldr.w	r1, [r7, #240]	; 0xf0
 800652c:	f8d7 30b4 	ldr.w	r3, [r7, #180]	; 0xb4
 8006530:	ee37 7a26 	vadd.f32	s14, s14, s13
 8006534:	449a      	add	sl, r3
 8006536:	ed8e 7a00 	vstr	s14, [lr]
 800653a:	ecf2 7a01 	vldmia	r2!, {s15}
 800653e:	f8c7 20b8 	str.w	r2, [r7, #184]	; 0xb8
 8006542:	f8d7 20b0 	ldr.w	r2, [r7, #176]	; 0xb0
 8006546:	4411      	add	r1, r2
 8006548:	f8c7 10f0 	str.w	r1, [r7, #240]	; 0xf0
 800654c:	f8d7 10ec 	ldr.w	r1, [r7, #236]	; 0xec
 8006550:	4419      	add	r1, r3
 8006552:	f8c7 10ec 	str.w	r1, [r7, #236]	; 0xec
 8006556:	f8d7 10e8 	ldr.w	r1, [r7, #232]	; 0xe8
 800655a:	4411      	add	r1, r2
 800655c:	ee37 7a87 	vadd.f32	s14, s15, s14
 8006560:	f8c7 10e8 	str.w	r1, [r7, #232]	; 0xe8
 8006564:	f8d7 10e4 	ldr.w	r1, [r7, #228]	; 0xe4
 8006568:	eeb4 7ae8 	vcmpe.f32	s14, s17
 800656c:	4419      	add	r1, r3
 800656e:	f8d7 30a4 	ldr.w	r3, [r7, #164]	; 0xa4
 8006572:	f8c7 10e4 	str.w	r1, [r7, #228]	; 0xe4
 8006576:	eef1 fa10 	vmrs	APSR_nzcv, fpscr
 800657a:	bf88      	it	hi
 800657c:	eeb0 7a68 	vmovhi.f32	s14, s17
 8006580:	4563      	cmp	r3, ip
 8006582:	ecae 7a01 	vstmia	lr!, {s14}
 8006586:	4493      	add	fp, r2
 8006588:	f47f a9c3 	bne.w	8005912 <forward_lstm+0x496>
 800658c:	f8d7 80a8 	ldr.w	r8, [r7, #168]	; 0xa8
 8006590:	f8d7 a078 	ldr.w	sl, [r7, #120]	; 0x78
 8006594:	f507 71b0 	add.w	r1, r7, #352	; 0x160
 8006598:	4642      	mov	r2, r8
 800659a:	4608      	mov	r0, r1
 800659c:	ee19 3a90 	vmov	r3, s19
 80065a0:	46a3      	mov	fp, r4
 80065a2:	6ffc      	ldr	r4, [r7, #124]	; 0x7c
 80065a4:	47a0      	blx	r4
 80065a6:	f507 71be 	add.w	r1, r7, #380	; 0x17c
 80065aa:	4642      	mov	r2, r8
 80065ac:	4608      	mov	r0, r1
 80065ae:	ee19 3a90 	vmov	r3, s19
 80065b2:	47a0      	blx	r4
 80065b4:	f507 71cc 	add.w	r1, r7, #408	; 0x198
 80065b8:	4642      	mov	r2, r8
 80065ba:	4608      	mov	r0, r1
 80065bc:	ee1a 3a90 	vmov	r3, s21
 80065c0:	6c7c      	ldr	r4, [r7, #68]	; 0x44
 80065c2:	47a0      	blx	r4
 80065c4:	1e6a      	subs	r2, r5, #1
 80065c6:	f8c7 20ec 	str.w	r2, [r7, #236]	; 0xec
 80065ca:	1eaa      	subs	r2, r5, #2
 80065cc:	f8c7 20e8 	str.w	r2, [r7, #232]	; 0xe8
 80065d0:	1eea      	subs	r2, r5, #3
 80065d2:	f8c7 20e4 	str.w	r2, [r7, #228]	; 0xe4
 80065d6:	1f2a      	subs	r2, r5, #4
 80065d8:	f8c7 20c8 	str.w	r2, [r7, #200]	; 0xc8
 80065dc:	1f6a      	subs	r2, r5, #5
 80065de:	f8c7 20c4 	str.w	r2, [r7, #196]	; 0xc4
 80065e2:	1faa      	subs	r2, r5, #6
 80065e4:	6afb      	ldr	r3, [r7, #44]	; 0x2c
 80065e6:	f8c7 20c0 	str.w	r2, [r7, #192]	; 0xc0
 80065ea:	e9d7 8120 	ldrd	r8, r1, [r7, #128]	; 0x80
 80065ee:	1fea      	subs	r2, r5, #7
 80065f0:	f8c7 20bc 	str.w	r2, [r7, #188]	; 0xbc
 80065f4:	f8d7 9024 	ldr.w	r9, [r7, #36]	; 0x24
 80065f8:	f8d7 e0a4 	ldr.w	lr, [r7, #164]	; 0xa4
 80065fc:	f8d7 c030 	ldr.w	ip, [r7, #48]	; 0x30
 8006600:	6bb8      	ldr	r0, [r7, #56]	; 0x38
 8006602:	f8c7 60f0 	str.w	r6, [r7, #240]	; 0xf0
 8006606:	f1a5 0208 	sub.w	r2, r5, #8
 800660a:	f8c7 20b8 	str.w	r2, [r7, #184]	; 0xb8
 800660e:	465c      	mov	r4, fp
 8006610:	461e      	mov	r6, r3
 8006612:	f8d7 30cc 	ldr.w	r3, [r7, #204]	; 0xcc
 8006616:	ecf8 7a01 	vldmia	r8!, {s15}
 800661a:	ecb3 6a01 	vldmia	r3!, {s12}
 800661e:	ed9a 7a00 	vldr	s14, [sl]
 8006622:	ecfe 6a01 	vldmia	lr!, {s13}
 8006626:	f8c7 30cc 	str.w	r3, [r7, #204]	; 0xcc
 800662a:	ee67 7a86 	vmul.f32	s15, s15, s12
 800662e:	f8d7 30f4 	ldr.w	r3, [r7, #244]	; 0xf4
 8006632:	eee6 7a87 	vfma.f32	s15, s13, s14
 8006636:	ed9f 7ac7 	vldr	s14, [pc, #796]	; 8006954 <forward_lstm+0x14d8>
 800663a:	ecea 7a01 	vstmia	sl!, {s15}
 800663e:	eca1 8a01 	vstmia	r1!, {s16}
 8006642:	2b00      	cmp	r3, #0
 8006644:	f000 82a2 	beq.w	8006b8c <forward_lstm+0x1710>
 8006648:	f8d7 30e0 	ldr.w	r3, [r7, #224]	; 0xe0
 800664c:	f8d7 b0dc 	ldr.w	fp, [r7, #220]	; 0xdc
 8006650:	f103 0240 	add.w	r2, r3, #64	; 0x40
 8006654:	f100 0340 	add.w	r3, r0, #64	; 0x40
 8006658:	ed53 5a0f 	vldr	s11, [r3, #-60]	; 0xffffffc4
 800665c:	ed52 7a0f 	vldr	s15, [r2, #-60]	; 0xffffffc4
 8006660:	ed12 6a10 	vldr	s12, [r2, #-64]	; 0xffffffc0
 8006664:	ed53 6a10 	vldr	s13, [r3, #-64]	; 0xffffffc0
 8006668:	ed52 4a0d 	vldr	s9, [r2, #-52]	; 0xffffffcc
 800666c:	ed12 5a0c 	vldr	s10, [r2, #-48]	; 0xffffffd0
 8006670:	ed12 3a0a 	vldr	s6, [r2, #-40]	; 0xffffffd8
 8006674:	ed53 3a0a 	vldr	s7, [r3, #-40]	; 0xffffffd8
 8006678:	ed12 4a09 	vldr	s8, [r2, #-36]	; 0xffffffdc
 800667c:	ed12 1a06 	vldr	s2, [r2, #-24]	; 0xffffffe8
 8006680:	ed53 1a06 	vldr	s3, [r3, #-24]	; 0xffffffe8
 8006684:	ed12 2a05 	vldr	s4, [r2, #-20]	; 0xffffffec
 8006688:	ed53 2a05 	vldr	s5, [r3, #-20]	; 0xffffffec
 800668c:	ee67 7aa5 	vmul.f32	s15, s15, s11
 8006690:	ed52 5a0e 	vldr	s11, [r2, #-56]	; 0xffffffc8
 8006694:	eee6 7a26 	vfma.f32	s15, s12, s13
 8006698:	f1ab 0b10 	sub.w	fp, fp, #16
 800669c:	f1bb 0f0f 	cmp.w	fp, #15
 80066a0:	ed13 6a0e 	vldr	s12, [r3, #-56]	; 0xffffffc8
 80066a4:	ed53 6a0d 	vldr	s13, [r3, #-52]	; 0xffffffcc
 80066a8:	eee5 7a86 	vfma.f32	s15, s11, s12
 80066ac:	f102 0240 	add.w	r2, r2, #64	; 0x40
 80066b0:	f103 0340 	add.w	r3, r3, #64	; 0x40
 80066b4:	ed53 5a1c 	vldr	s11, [r3, #-112]	; 0xffffff90
 80066b8:	ed12 6a1b 	vldr	s12, [r2, #-108]	; 0xffffff94
 80066bc:	eee4 7aa6 	vfma.f32	s15, s9, s13
 80066c0:	ed53 6a1b 	vldr	s13, [r3, #-108]	; 0xffffff94
 80066c4:	ed53 4a19 	vldr	s9, [r3, #-100]	; 0xffffff9c
 80066c8:	eee5 7a25 	vfma.f32	s15, s10, s11
 80066cc:	ed12 5a18 	vldr	s10, [r2, #-96]	; 0xffffffa0
 80066d0:	ed53 5a18 	vldr	s11, [r3, #-96]	; 0xffffffa0
 80066d4:	eee6 7a26 	vfma.f32	s15, s12, s13
 80066d8:	ed12 6a17 	vldr	s12, [r2, #-92]	; 0xffffffa4
 80066dc:	ed53 6a17 	vldr	s13, [r3, #-92]	; 0xffffffa4
 80066e0:	eee3 7a23 	vfma.f32	s15, s6, s7
 80066e4:	ed12 3a14 	vldr	s6, [r2, #-80]	; 0xffffffb0
 80066e8:	ed53 3a14 	vldr	s7, [r3, #-80]	; 0xffffffb0
 80066ec:	eee4 7a24 	vfma.f32	s15, s8, s9
 80066f0:	ed12 4a13 	vldr	s8, [r2, #-76]	; 0xffffffb4
 80066f4:	ed53 4a13 	vldr	s9, [r3, #-76]	; 0xffffffb4
 80066f8:	eee5 7a25 	vfma.f32	s15, s10, s11
 80066fc:	ed12 5a12 	vldr	s10, [r2, #-72]	; 0xffffffb8
 8006700:	ed53 5a12 	vldr	s11, [r3, #-72]	; 0xffffffb8
 8006704:	eee6 7a26 	vfma.f32	s15, s12, s13
 8006708:	ed12 6a11 	vldr	s12, [r2, #-68]	; 0xffffffbc
 800670c:	ed53 6a11 	vldr	s13, [r3, #-68]	; 0xffffffbc
 8006710:	eee1 7a21 	vfma.f32	s15, s2, s3
 8006714:	eee2 7a22 	vfma.f32	s15, s4, s5
 8006718:	eee3 7a23 	vfma.f32	s15, s6, s7
 800671c:	eee4 7a24 	vfma.f32	s15, s8, s9
 8006720:	eee5 7a25 	vfma.f32	s15, s10, s11
 8006724:	eee6 7a26 	vfma.f32	s15, s12, s13
 8006728:	ee37 7a27 	vadd.f32	s14, s14, s15
 800672c:	d894      	bhi.n	8006658 <forward_lstm+0x11dc>
 800672e:	f8d7 30d8 	ldr.w	r3, [r7, #216]	; 0xd8
 8006732:	18c3      	adds	r3, r0, r3
 8006734:	2d00      	cmp	r5, #0
 8006736:	f000 8085 	beq.w	8006844 <forward_lstm+0x13c8>
 800673a:	edd4 6a00 	vldr	s13, [r4]
 800673e:	edd3 7a00 	vldr	s15, [r3]
 8006742:	f8d7 20ec 	ldr.w	r2, [r7, #236]	; 0xec
 8006746:	eea6 7aa7 	vfma.f32	s14, s13, s15
 800674a:	2a00      	cmp	r2, #0
 800674c:	d07a      	beq.n	8006844 <forward_lstm+0x13c8>
 800674e:	edd4 6a01 	vldr	s13, [r4, #4]
 8006752:	edd3 7a01 	vldr	s15, [r3, #4]
 8006756:	f8d7 20e8 	ldr.w	r2, [r7, #232]	; 0xe8
 800675a:	eea6 7aa7 	vfma.f32	s14, s13, s15
 800675e:	2a00      	cmp	r2, #0
 8006760:	d070      	beq.n	8006844 <forward_lstm+0x13c8>
 8006762:	edd4 6a02 	vldr	s13, [r4, #8]
 8006766:	edd3 7a02 	vldr	s15, [r3, #8]
 800676a:	f8d7 20e4 	ldr.w	r2, [r7, #228]	; 0xe4
 800676e:	eea6 7aa7 	vfma.f32	s14, s13, s15
 8006772:	2a00      	cmp	r2, #0
 8006774:	d066      	beq.n	8006844 <forward_lstm+0x13c8>
 8006776:	edd4 6a03 	vldr	s13, [r4, #12]
 800677a:	edd3 7a03 	vldr	s15, [r3, #12]
 800677e:	f8d7 20c8 	ldr.w	r2, [r7, #200]	; 0xc8
 8006782:	eea6 7aa7 	vfma.f32	s14, s13, s15
 8006786:	2a00      	cmp	r2, #0
 8006788:	d05c      	beq.n	8006844 <forward_lstm+0x13c8>
 800678a:	edd4 6a04 	vldr	s13, [r4, #16]
 800678e:	edd3 7a04 	vldr	s15, [r3, #16]
 8006792:	f8d7 20c4 	ldr.w	r2, [r7, #196]	; 0xc4
 8006796:	eea6 7aa7 	vfma.f32	s14, s13, s15
 800679a:	2a00      	cmp	r2, #0
 800679c:	d052      	beq.n	8006844 <forward_lstm+0x13c8>
 800679e:	edd4 6a05 	vldr	s13, [r4, #20]
 80067a2:	edd3 7a05 	vldr	s15, [r3, #20]
 80067a6:	f8d7 20c0 	ldr.w	r2, [r7, #192]	; 0xc0
 80067aa:	eea6 7aa7 	vfma.f32	s14, s13, s15
 80067ae:	2a00      	cmp	r2, #0
 80067b0:	d048      	beq.n	8006844 <forward_lstm+0x13c8>
 80067b2:	edd4 6a06 	vldr	s13, [r4, #24]
 80067b6:	edd3 7a06 	vldr	s15, [r3, #24]
 80067ba:	f8d7 20bc 	ldr.w	r2, [r7, #188]	; 0xbc
 80067be:	eea6 7aa7 	vfma.f32	s14, s13, s15
 80067c2:	b3fa      	cbz	r2, 8006844 <forward_lstm+0x13c8>
 80067c4:	edd4 6a07 	vldr	s13, [r4, #28]
 80067c8:	edd3 7a07 	vldr	s15, [r3, #28]
 80067cc:	f8d7 20b8 	ldr.w	r2, [r7, #184]	; 0xb8
 80067d0:	eea6 7aa7 	vfma.f32	s14, s13, s15
 80067d4:	b3b2      	cbz	r2, 8006844 <forward_lstm+0x13c8>
 80067d6:	edd4 6a08 	vldr	s13, [r4, #32]
 80067da:	edd3 7a08 	vldr	s15, [r3, #32]
 80067de:	2d09      	cmp	r5, #9
 80067e0:	eea6 7aa7 	vfma.f32	s14, s13, s15
 80067e4:	d02e      	beq.n	8006844 <forward_lstm+0x13c8>
 80067e6:	edd4 6a09 	vldr	s13, [r4, #36]	; 0x24
 80067ea:	edd3 7a09 	vldr	s15, [r3, #36]	; 0x24
 80067ee:	2d0a      	cmp	r5, #10
 80067f0:	eea6 7aa7 	vfma.f32	s14, s13, s15
 80067f4:	d026      	beq.n	8006844 <forward_lstm+0x13c8>
 80067f6:	edd4 6a0a 	vldr	s13, [r4, #40]	; 0x28
 80067fa:	edd3 7a0a 	vldr	s15, [r3, #40]	; 0x28
 80067fe:	2d0b      	cmp	r5, #11
 8006800:	eea6 7aa7 	vfma.f32	s14, s13, s15
 8006804:	d01e      	beq.n	8006844 <forward_lstm+0x13c8>
 8006806:	edd4 6a0b 	vldr	s13, [r4, #44]	; 0x2c
 800680a:	edd3 7a0b 	vldr	s15, [r3, #44]	; 0x2c
 800680e:	2d0c      	cmp	r5, #12
 8006810:	eea6 7aa7 	vfma.f32	s14, s13, s15
 8006814:	d016      	beq.n	8006844 <forward_lstm+0x13c8>
 8006816:	edd4 6a0c 	vldr	s13, [r4, #48]	; 0x30
 800681a:	edd3 7a0c 	vldr	s15, [r3, #48]	; 0x30
 800681e:	f1b5 020d 	subs.w	r2, r5, #13
 8006822:	eea6 7aa7 	vfma.f32	s14, s13, s15
 8006826:	d00d      	beq.n	8006844 <forward_lstm+0x13c8>
 8006828:	edd4 6a0d 	vldr	s13, [r4, #52]	; 0x34
 800682c:	edd3 7a0d 	vldr	s15, [r3, #52]	; 0x34
 8006830:	2a01      	cmp	r2, #1
 8006832:	eea6 7aa7 	vfma.f32	s14, s13, s15
 8006836:	d005      	beq.n	8006844 <forward_lstm+0x13c8>
 8006838:	edd3 6a0e 	vldr	s13, [r3, #56]	; 0x38
 800683c:	edd4 7a0e 	vldr	s15, [r4, #56]	; 0x38
 8006840:	eea6 7aa7 	vfma.f32	s14, s13, s15
 8006844:	f8d7 30f8 	ldr.w	r3, [r7, #248]	; 0xf8
 8006848:	eddf 6a42 	vldr	s13, [pc, #264]	; 8006954 <forward_lstm+0x14d8>
 800684c:	ed01 7a01 	vstr	s14, [r1, #-4]
 8006850:	2b00      	cmp	r3, #0
 8006852:	f000 8195 	beq.w	8006b80 <forward_lstm+0x1704>
 8006856:	f8d7 30fc 	ldr.w	r3, [r7, #252]	; 0xfc
 800685a:	f8d7 b0a8 	ldr.w	fp, [r7, #168]	; 0xa8
 800685e:	f103 0240 	add.w	r2, r3, #64	; 0x40
 8006862:	f10c 0340 	add.w	r3, ip, #64	; 0x40
 8006866:	ed13 5a0f 	vldr	s10, [r3, #-60]	; 0xffffffc4
 800686a:	ed52 7a0f 	vldr	s15, [r2, #-60]	; 0xffffffc4
 800686e:	ed52 5a10 	vldr	s11, [r2, #-64]	; 0xffffffc0
 8006872:	ed13 6a10 	vldr	s12, [r3, #-64]	; 0xffffffc0
 8006876:	ed12 4a0d 	vldr	s8, [r2, #-52]	; 0xffffffcc
 800687a:	ed52 4a0c 	vldr	s9, [r2, #-48]	; 0xffffffd0
 800687e:	ed52 2a0a 	vldr	s5, [r2, #-40]	; 0xffffffd8
 8006882:	ed13 3a0a 	vldr	s6, [r3, #-40]	; 0xffffffd8
 8006886:	ed52 3a09 	vldr	s7, [r2, #-36]	; 0xffffffdc
 800688a:	ed52 0a06 	vldr	s1, [r2, #-24]	; 0xffffffe8
 800688e:	ed13 1a06 	vldr	s2, [r3, #-24]	; 0xffffffe8
 8006892:	ed52 1a05 	vldr	s3, [r2, #-20]	; 0xffffffec
 8006896:	ed13 2a05 	vldr	s4, [r3, #-20]	; 0xffffffec
 800689a:	ee67 7a85 	vmul.f32	s15, s15, s10
 800689e:	ed12 5a0e 	vldr	s10, [r2, #-56]	; 0xffffffc8
 80068a2:	eee5 7a86 	vfma.f32	s15, s11, s12
 80068a6:	f1ab 0b10 	sub.w	fp, fp, #16
 80068aa:	f1bb 0f0f 	cmp.w	fp, #15
 80068ae:	ed53 5a0e 	vldr	s11, [r3, #-56]	; 0xffffffc8
 80068b2:	ed13 6a0d 	vldr	s12, [r3, #-52]	; 0xffffffcc
 80068b6:	eee5 7a25 	vfma.f32	s15, s10, s11
 80068ba:	f102 0240 	add.w	r2, r2, #64	; 0x40
 80068be:	f103 0340 	add.w	r3, r3, #64	; 0x40
 80068c2:	ed13 5a1c 	vldr	s10, [r3, #-112]	; 0xffffff90
 80068c6:	ed52 5a1b 	vldr	s11, [r2, #-108]	; 0xffffff94
 80068ca:	eee4 7a06 	vfma.f32	s15, s8, s12
 80068ce:	ed13 6a1b 	vldr	s12, [r3, #-108]	; 0xffffff94
 80068d2:	ed13 4a19 	vldr	s8, [r3, #-100]	; 0xffffff9c
 80068d6:	eee4 7a85 	vfma.f32	s15, s9, s10
 80068da:	ed52 4a18 	vldr	s9, [r2, #-96]	; 0xffffffa0
 80068de:	ed13 5a18 	vldr	s10, [r3, #-96]	; 0xffffffa0
 80068e2:	eee5 7a86 	vfma.f32	s15, s11, s12
 80068e6:	ed52 5a17 	vldr	s11, [r2, #-92]	; 0xffffffa4
 80068ea:	ed13 6a17 	vldr	s12, [r3, #-92]	; 0xffffffa4
 80068ee:	eee2 7a83 	vfma.f32	s15, s5, s6
 80068f2:	ed52 2a14 	vldr	s5, [r2, #-80]	; 0xffffffb0
 80068f6:	ed13 3a14 	vldr	s6, [r3, #-80]	; 0xffffffb0
 80068fa:	eee3 7a84 	vfma.f32	s15, s7, s8
 80068fe:	ed52 3a13 	vldr	s7, [r2, #-76]	; 0xffffffb4
 8006902:	ed13 4a13 	vldr	s8, [r3, #-76]	; 0xffffffb4
 8006906:	eee4 7a85 	vfma.f32	s15, s9, s10
 800690a:	ed52 4a12 	vldr	s9, [r2, #-72]	; 0xffffffb8
 800690e:	ed13 5a12 	vldr	s10, [r3, #-72]	; 0xffffffb8
 8006912:	eee5 7a86 	vfma.f32	s15, s11, s12
 8006916:	ed52 5a11 	vldr	s11, [r2, #-68]	; 0xffffffbc
 800691a:	ed13 6a11 	vldr	s12, [r3, #-68]	; 0xffffffbc
 800691e:	eee0 7a81 	vfma.f32	s15, s1, s2
 8006922:	eee1 7a82 	vfma.f32	s15, s3, s4
 8006926:	eee2 7a83 	vfma.f32	s15, s5, s6
 800692a:	eee3 7a84 	vfma.f32	s15, s7, s8
 800692e:	eee4 7a85 	vfma.f32	s15, s9, s10
 8006932:	eee5 7a86 	vfma.f32	s15, s11, s12
 8006936:	ee76 6aa7 	vadd.f32	s13, s13, s15
 800693a:	d894      	bhi.n	8006866 <forward_lstm+0x13ea>
 800693c:	f8d7 30d4 	ldr.w	r3, [r7, #212]	; 0xd4
 8006940:	eb0c 0203 	add.w	r2, ip, r3
 8006944:	f8d7 30f0 	ldr.w	r3, [r7, #240]	; 0xf0
 8006948:	2b00      	cmp	r3, #0
 800694a:	d07b      	beq.n	8006a44 <forward_lstm+0x15c8>
 800694c:	f8d7 b0d0 	ldr.w	fp, [r7, #208]	; 0xd0
 8006950:	e002      	b.n	8006958 <forward_lstm+0x14dc>
 8006952:	bf00      	nop
 8006954:	00000000 	.word	0x00000000
 8006958:	ed9b 6a00 	vldr	s12, [fp]
 800695c:	edd2 7a00 	vldr	s15, [r2]
 8006960:	2b01      	cmp	r3, #1
 8006962:	eee6 6a27 	vfma.f32	s13, s12, s15
 8006966:	d06d      	beq.n	8006a44 <forward_lstm+0x15c8>
 8006968:	ed9b 6a01 	vldr	s12, [fp, #4]
 800696c:	edd2 7a01 	vldr	s15, [r2, #4]
 8006970:	2b02      	cmp	r3, #2
 8006972:	eee6 6a27 	vfma.f32	s13, s12, s15
 8006976:	d065      	beq.n	8006a44 <forward_lstm+0x15c8>
 8006978:	ed9b 6a02 	vldr	s12, [fp, #8]
 800697c:	edd2 7a02 	vldr	s15, [r2, #8]
 8006980:	2b03      	cmp	r3, #3
 8006982:	eee6 6a27 	vfma.f32	s13, s12, s15
 8006986:	d05d      	beq.n	8006a44 <forward_lstm+0x15c8>
 8006988:	ed9b 6a03 	vldr	s12, [fp, #12]
 800698c:	edd2 7a03 	vldr	s15, [r2, #12]
 8006990:	2b04      	cmp	r3, #4
 8006992:	eee6 6a27 	vfma.f32	s13, s12, s15
 8006996:	d055      	beq.n	8006a44 <forward_lstm+0x15c8>
 8006998:	ed9b 6a04 	vldr	s12, [fp, #16]
 800699c:	edd2 7a04 	vldr	s15, [r2, #16]
 80069a0:	2b05      	cmp	r3, #5
 80069a2:	eee6 6a27 	vfma.f32	s13, s12, s15
 80069a6:	d04d      	beq.n	8006a44 <forward_lstm+0x15c8>
 80069a8:	ed9b 6a05 	vldr	s12, [fp, #20]
 80069ac:	edd2 7a05 	vldr	s15, [r2, #20]
 80069b0:	2b06      	cmp	r3, #6
 80069b2:	eee6 6a27 	vfma.f32	s13, s12, s15
 80069b6:	d045      	beq.n	8006a44 <forward_lstm+0x15c8>
 80069b8:	ed9b 6a06 	vldr	s12, [fp, #24]
 80069bc:	edd2 7a06 	vldr	s15, [r2, #24]
 80069c0:	2b07      	cmp	r3, #7
 80069c2:	eee6 6a27 	vfma.f32	s13, s12, s15
 80069c6:	d03d      	beq.n	8006a44 <forward_lstm+0x15c8>
 80069c8:	ed9b 6a07 	vldr	s12, [fp, #28]
 80069cc:	edd2 7a07 	vldr	s15, [r2, #28]
 80069d0:	2b08      	cmp	r3, #8
 80069d2:	eee6 6a27 	vfma.f32	s13, s12, s15
 80069d6:	d035      	beq.n	8006a44 <forward_lstm+0x15c8>
 80069d8:	ed9b 6a08 	vldr	s12, [fp, #32]
 80069dc:	edd2 7a08 	vldr	s15, [r2, #32]
 80069e0:	2b09      	cmp	r3, #9
 80069e2:	eee6 6a27 	vfma.f32	s13, s12, s15
 80069e6:	d02d      	beq.n	8006a44 <forward_lstm+0x15c8>
 80069e8:	ed9b 6a09 	vldr	s12, [fp, #36]	; 0x24
 80069ec:	edd2 7a09 	vldr	s15, [r2, #36]	; 0x24
 80069f0:	2b0a      	cmp	r3, #10
 80069f2:	eee6 6a27 	vfma.f32	s13, s12, s15
 80069f6:	d025      	beq.n	8006a44 <forward_lstm+0x15c8>
 80069f8:	ed9b 6a0a 	vldr	s12, [fp, #40]	; 0x28
 80069fc:	edd2 7a0a 	vldr	s15, [r2, #40]	; 0x28
 8006a00:	2b0b      	cmp	r3, #11
 8006a02:	eee6 6a27 	vfma.f32	s13, s12, s15
 8006a06:	d01d      	beq.n	8006a44 <forward_lstm+0x15c8>
 8006a08:	ed9b 6a0b 	vldr	s12, [fp, #44]	; 0x2c
 8006a0c:	edd2 7a0b 	vldr	s15, [r2, #44]	; 0x2c
 8006a10:	2b0c      	cmp	r3, #12
 8006a12:	eee6 6a27 	vfma.f32	s13, s12, s15
 8006a16:	d015      	beq.n	8006a44 <forward_lstm+0x15c8>
 8006a18:	ed9b 6a0c 	vldr	s12, [fp, #48]	; 0x30
 8006a1c:	edd2 7a0c 	vldr	s15, [r2, #48]	; 0x30
 8006a20:	3b0d      	subs	r3, #13
 8006a22:	eee6 6a27 	vfma.f32	s13, s12, s15
 8006a26:	d00d      	beq.n	8006a44 <forward_lstm+0x15c8>
 8006a28:	ed9b 6a0d 	vldr	s12, [fp, #52]	; 0x34
 8006a2c:	edd2 7a0d 	vldr	s15, [r2, #52]	; 0x34
 8006a30:	2b01      	cmp	r3, #1
 8006a32:	eee6 6a27 	vfma.f32	s13, s12, s15
 8006a36:	d005      	beq.n	8006a44 <forward_lstm+0x15c8>
 8006a38:	ed9b 6a0e 	vldr	s12, [fp, #56]	; 0x38
 8006a3c:	edd2 7a0e 	vldr	s15, [r2, #56]	; 0x38
 8006a40:	eee6 6a27 	vfma.f32	s13, s12, s15
 8006a44:	f8d7 30b4 	ldr.w	r3, [r7, #180]	; 0xb4
 8006a48:	ee37 7a26 	vadd.f32	s14, s14, s13
 8006a4c:	4418      	add	r0, r3
 8006a4e:	ed01 7a01 	vstr	s14, [r1, #-4]
 8006a52:	ecb6 6a01 	vldmia	r6!, {s12}
 8006a56:	ecf9 7a01 	vldmia	r9!, {s15}
 8006a5a:	ed5a 6a01 	vldr	s13, [sl, #-4]
 8006a5e:	f8d7 30b0 	ldr.w	r3, [r7, #176]	; 0xb0
 8006a62:	eee6 7a26 	vfma.f32	s15, s12, s13
 8006a66:	449c      	add	ip, r3
 8006a68:	f8d7 30a0 	ldr.w	r3, [r7, #160]	; 0xa0
 8006a6c:	ee37 7a87 	vadd.f32	s14, s15, s14
 8006a70:	459e      	cmp	lr, r3
 8006a72:	ed01 7a01 	vstr	s14, [r1, #-4]
 8006a76:	f47f adcc 	bne.w	8006612 <forward_lstm+0x1196>
 8006a7a:	f8d7 50a8 	ldr.w	r5, [r7, #168]	; 0xa8
 8006a7e:	6ffc      	ldr	r4, [r7, #124]	; 0x7c
 8006a80:	f8d7 60f0 	ldr.w	r6, [r7, #240]	; 0xf0
 8006a84:	f507 71da 	add.w	r1, r7, #436	; 0x1b4
 8006a88:	4608      	mov	r0, r1
 8006a8a:	ee19 3a90 	vmov	r3, s19
 8006a8e:	462a      	mov	r2, r5
 8006a90:	47a0      	blx	r4
 8006a92:	ee1a 3a10 	vmov	r3, s20
 8006a96:	462a      	mov	r2, r5
 8006a98:	f507 71f6 	add.w	r1, r7, #492	; 0x1ec
 8006a9c:	6c3c      	ldr	r4, [r7, #64]	; 0x40
 8006a9e:	f507 70e8 	add.w	r0, r7, #464	; 0x1d0
 8006aa2:	47a0      	blx	r4
 8006aa4:	f8d7 2094 	ldr.w	r2, [r7, #148]	; 0x94
 8006aa8:	f8d7 3084 	ldr.w	r3, [r7, #132]	; 0x84
 8006aac:	6979      	ldr	r1, [r7, #20]
 8006aae:	ecf3 7a01 	vldmia	r3!, {s15}
 8006ab2:	ed92 7a00 	vldr	s14, [r2]
 8006ab6:	ee67 7a87 	vmul.f32	s15, s15, s14
 8006aba:	428b      	cmp	r3, r1
 8006abc:	ece2 7a01 	vstmia	r2!, {s15}
 8006ac0:	d1f5      	bne.n	8006aae <forward_lstm+0x1632>
 8006ac2:	f8d7 3090 	ldr.w	r3, [r7, #144]	; 0x90
 8006ac6:	899b      	ldrh	r3, [r3, #12]
 8006ac8:	b163      	cbz	r3, 8006ae4 <forward_lstm+0x1668>
 8006aca:	e9d7 9503 	ldrd	r9, r5, [r7, #12]
 8006ace:	2400      	movs	r4, #0
 8006ad0:	46a8      	mov	r8, r5
 8006ad2:	f859 5f04 	ldr.w	r5, [r9, #4]!
 8006ad6:	3401      	adds	r4, #1
 8006ad8:	2d00      	cmp	r5, #0
 8006ada:	d13e      	bne.n	8006b5a <forward_lstm+0x16de>
 8006adc:	42a3      	cmp	r3, r4
 8006ade:	f108 0804 	add.w	r8, r8, #4
 8006ae2:	dcf6      	bgt.n	8006ad2 <forward_lstm+0x1656>
 8006ae4:	6dba      	ldr	r2, [r7, #88]	; 0x58
 8006ae6:	f8d7 108c 	ldr.w	r1, [r7, #140]	; 0x8c
 8006aea:	428a      	cmp	r2, r1
 8006aec:	f340 809d 	ble.w	8006c2a <forward_lstm+0x17ae>
 8006af0:	f8d7 2088 	ldr.w	r2, [r7, #136]	; 0x88
 8006af4:	69b9      	ldr	r1, [r7, #24]
 8006af6:	440a      	add	r2, r1
 8006af8:	f8c7 2088 	str.w	r2, [r7, #136]	; 0x88
 8006afc:	f8d7 208c 	ldr.w	r2, [r7, #140]	; 0x8c
 8006b00:	2a00      	cmp	r2, #0
 8006b02:	f2c0 8092 	blt.w	8006c2a <forward_lstm+0x17ae>
 8006b06:	f8d7 30fc 	ldr.w	r3, [r7, #252]	; 0xfc
 8006b0a:	f8d7 2094 	ldr.w	r2, [r7, #148]	; 0x94
 8006b0e:	f8c7 20fc 	str.w	r2, [r7, #252]	; 0xfc
 8006b12:	f8c7 3094 	str.w	r3, [r7, #148]	; 0x94
 8006b16:	f7fe be6b 	b.w	80057f0 <forward_lstm+0x374>
 8006b1a:	68bb      	ldr	r3, [r7, #8]
 8006b1c:	4629      	mov	r1, r5
 8006b1e:	69d8      	ldr	r0, [r3, #28]
 8006b20:	f000 fa66 	bl	8006ff0 <st_int8_copy>
 8006b24:	ee19 2a10 	vmov	r2, s18
 8006b28:	f8d7 1094 	ldr.w	r1, [r7, #148]	; 0x94
 8006b2c:	2000      	movs	r0, #0
 8006b2e:	f000 fa03 	bl	8006f38 <st_int8_fill>
 8006b32:	f7fe bda8 	b.w	8005686 <forward_lstm+0x20a>
 8006b36:	ee19 2a10 	vmov	r2, s18
 8006b3a:	4618      	mov	r0, r3
 8006b3c:	f000 f9fc 	bl	8006f38 <st_int8_fill>
 8006b40:	ee19 2a10 	vmov	r2, s18
 8006b44:	f8d7 10fc 	ldr.w	r1, [r7, #252]	; 0xfc
 8006b48:	4648      	mov	r0, r9
 8006b4a:	f1b9 0f00 	cmp.w	r9, #0
 8006b4e:	f47e ad91 	bne.w	8005674 <forward_lstm+0x1f8>
 8006b52:	f000 f9f1 	bl	8006f38 <st_int8_fill>
 8006b56:	f7fe bd8f 	b.w	8005678 <forward_lstm+0x1fc>
 8006b5a:	f8d8 a000 	ldr.w	sl, [r8]
 8006b5e:	f8d7 0094 	ldr.w	r0, [r7, #148]	; 0x94
 8006b62:	ee19 2a10 	vmov	r2, s18
 8006b66:	4651      	mov	r1, sl
 8006b68:	f000 fa42 	bl	8006ff0 <st_int8_copy>
 8006b6c:	f8d7 3090 	ldr.w	r3, [r7, #144]	; 0x90
 8006b70:	899b      	ldrh	r3, [r3, #12]
 8006b72:	eb0a 0585 	add.w	r5, sl, r5, lsl #2
 8006b76:	42a3      	cmp	r3, r4
 8006b78:	f848 5b04 	str.w	r5, [r8], #4
 8006b7c:	dca9      	bgt.n	8006ad2 <forward_lstm+0x1656>
 8006b7e:	e7b1      	b.n	8006ae4 <forward_lstm+0x1668>
 8006b80:	f8d7 30a8 	ldr.w	r3, [r7, #168]	; 0xa8
 8006b84:	f8d7 b0fc 	ldr.w	fp, [r7, #252]	; 0xfc
 8006b88:	4662      	mov	r2, ip
 8006b8a:	e6e5      	b.n	8006958 <forward_lstm+0x14dc>
 8006b8c:	4603      	mov	r3, r0
 8006b8e:	e5d1      	b.n	8006734 <forward_lstm+0x12b8>
 8006b90:	f8d7 30a8 	ldr.w	r3, [r7, #168]	; 0xa8
 8006b94:	f8d7 10fc 	ldr.w	r1, [r7, #252]	; 0xfc
 8006b98:	465a      	mov	r2, fp
 8006b9a:	e44d      	b.n	8006438 <forward_lstm+0xfbc>
 8006b9c:	f8d7 30e4 	ldr.w	r3, [r7, #228]	; 0xe4
 8006ba0:	f7ff bb54 	b.w	800624c <forward_lstm+0xdd0>
 8006ba4:	f8d7 30a8 	ldr.w	r3, [r7, #168]	; 0xa8
 8006ba8:	f8d7 10fc 	ldr.w	r1, [r7, #252]	; 0xfc
 8006bac:	f8d7 20e8 	ldr.w	r2, [r7, #232]	; 0xe8
 8006bb0:	f7ff ba3a 	b.w	8006028 <forward_lstm+0xbac>
 8006bb4:	f8d7 30ec 	ldr.w	r3, [r7, #236]	; 0xec
 8006bb8:	f7ff b93a 	b.w	8005e30 <forward_lstm+0x9b4>
 8006bbc:	f8d7 30a8 	ldr.w	r3, [r7, #168]	; 0xa8
 8006bc0:	f8d7 10fc 	ldr.w	r1, [r7, #252]	; 0xfc
 8006bc4:	f8d7 20f0 	ldr.w	r2, [r7, #240]	; 0xf0
 8006bc8:	f7ff b822 	b.w	8005c10 <forward_lstm+0x794>
 8006bcc:	f8d7 50dc 	ldr.w	r5, [r7, #220]	; 0xdc
 8006bd0:	f8d7 40e0 	ldr.w	r4, [r7, #224]	; 0xe0
 8006bd4:	4653      	mov	r3, sl
 8006bd6:	f7fe bf23 	b.w	8005a20 <forward_lstm+0x5a4>
 8006bda:	f507 71b0 	add.w	r1, r7, #352	; 0x160
 8006bde:	6ffc      	ldr	r4, [r7, #124]	; 0x7c
 8006be0:	ee19 3a90 	vmov	r3, s19
 8006be4:	4608      	mov	r0, r1
 8006be6:	4690      	mov	r8, r2
 8006be8:	47a0      	blx	r4
 8006bea:	f507 71be 	add.w	r1, r7, #380	; 0x17c
 8006bee:	ee19 3a90 	vmov	r3, s19
 8006bf2:	4642      	mov	r2, r8
 8006bf4:	4608      	mov	r0, r1
 8006bf6:	47a0      	blx	r4
 8006bf8:	f507 71cc 	add.w	r1, r7, #408	; 0x198
 8006bfc:	ee1a 3a90 	vmov	r3, s21
 8006c00:	4642      	mov	r2, r8
 8006c02:	4608      	mov	r0, r1
 8006c04:	6c7d      	ldr	r5, [r7, #68]	; 0x44
 8006c06:	47a8      	blx	r5
 8006c08:	f507 71da 	add.w	r1, r7, #436	; 0x1b4
 8006c0c:	ee19 3a90 	vmov	r3, s19
 8006c10:	4642      	mov	r2, r8
 8006c12:	4608      	mov	r0, r1
 8006c14:	47a0      	blx	r4
 8006c16:	ee1a 3a10 	vmov	r3, s20
 8006c1a:	6c3c      	ldr	r4, [r7, #64]	; 0x40
 8006c1c:	4642      	mov	r2, r8
 8006c1e:	f507 71f6 	add.w	r1, r7, #492	; 0x1ec
 8006c22:	f507 70e8 	add.w	r0, r7, #464	; 0x1d0
 8006c26:	47a0      	blx	r4
 8006c28:	e74b      	b.n	8006ac2 <forward_lstm+0x1646>
 8006c2a:	b353      	cbz	r3, 8006c82 <forward_lstm+0x1806>
 8006c2c:	e9d7 5403 	ldrd	r5, r4, [r7, #12]
 8006c30:	f8d7 8090 	ldr.w	r8, [r7, #144]	; 0x90
 8006c34:	f8d7 9094 	ldr.w	r9, [r7, #148]	; 0x94
 8006c38:	f8d7 a008 	ldr.w	sl, [r7, #8]
 8006c3c:	ee19 ba10 	vmov	fp, s18
 8006c40:	2600      	movs	r6, #0
 8006c42:	e00b      	b.n	8006c5c <forward_lstm+0x17e0>
 8006c44:	6821      	ldr	r1, [r4, #0]
 8006c46:	465a      	mov	r2, fp
 8006c48:	4648      	mov	r0, r9
 8006c4a:	f000 f9d1 	bl	8006ff0 <st_int8_copy>
 8006c4e:	f8b8 300c 	ldrh.w	r3, [r8, #12]
 8006c52:	3601      	adds	r6, #1
 8006c54:	42b3      	cmp	r3, r6
 8006c56:	f104 0404 	add.w	r4, r4, #4
 8006c5a:	dd12      	ble.n	8006c82 <forward_lstm+0x1806>
 8006c5c:	f855 2f04 	ldr.w	r2, [r5, #4]!
 8006c60:	2a00      	cmp	r2, #0
 8006c62:	d1f6      	bne.n	8006c52 <forward_lstm+0x17d6>
 8006c64:	3b01      	subs	r3, #1
 8006c66:	42b3      	cmp	r3, r6
 8006c68:	d1ec      	bne.n	8006c44 <forward_lstm+0x17c8>
 8006c6a:	f89a 303d 	ldrb.w	r3, [sl, #61]	; 0x3d
 8006c6e:	2b00      	cmp	r3, #0
 8006c70:	d0e8      	beq.n	8006c44 <forward_lstm+0x17c8>
 8006c72:	6821      	ldr	r1, [r4, #0]
 8006c74:	6f38      	ldr	r0, [r7, #112]	; 0x70
 8006c76:	465a      	mov	r2, fp
 8006c78:	f000 f9ba 	bl	8006ff0 <st_int8_copy>
 8006c7c:	f8b8 300c 	ldrh.w	r3, [r8, #12]
 8006c80:	e7e7      	b.n	8006c52 <forward_lstm+0x17d6>
 8006c82:	687b      	ldr	r3, [r7, #4]
 8006c84:	b18b      	cbz	r3, 8006caa <forward_lstm+0x182e>
 8006c86:	68bb      	ldr	r3, [r7, #8]
 8006c88:	69dc      	ldr	r4, [r3, #28]
 8006c8a:	b174      	cbz	r4, 8006caa <forward_lstm+0x182e>
 8006c8c:	ee19 5a10 	vmov	r5, s18
 8006c90:	6f38      	ldr	r0, [r7, #112]	; 0x70
 8006c92:	ee19 2a10 	vmov	r2, s18
 8006c96:	4621      	mov	r1, r4
 8006c98:	f000 f9aa 	bl	8006ff0 <st_int8_copy>
 8006c9c:	ee19 2a10 	vmov	r2, s18
 8006ca0:	f8d7 0094 	ldr.w	r0, [r7, #148]	; 0x94
 8006ca4:	1961      	adds	r1, r4, r5
 8006ca6:	f000 f9a3 	bl	8006ff0 <st_int8_copy>
 8006caa:	f507 7703 	add.w	r7, r7, #524	; 0x20c
 8006cae:	46bd      	mov	sp, r7
 8006cb0:	ecbd 8b06 	vpop	{d8-d10}
 8006cb4:	e8bd 8ff0 	ldmia.w	sp!, {r4, r5, r6, r7, r8, r9, sl, fp, pc}
 8006cb8:	f8c7 308c 	str.w	r3, [r7, #140]	; 0x8c
 8006cbc:	2301      	movs	r3, #1
 8006cbe:	66fb      	str	r3, [r7, #108]	; 0x6c
 8006cc0:	4613      	mov	r3, r2
 8006cc2:	f7fe bd00 	b.w	80056c6 <forward_lstm+0x24a>
 8006cc6:	ee0a 0a10 	vmov	s20, r0
 8006cca:	ee09 0a90 	vmov	s19, r0
 8006cce:	ee0a 0a90 	vmov	s21, r0
 8006cd2:	4681      	mov	r9, r0
 8006cd4:	f7fe bc56 	b.w	8005584 <forward_lstm+0x108>
 8006cd8:	f8c7 00f4 	str.w	r0, [r7, #244]	; 0xf4
 8006cdc:	4683      	mov	fp, r0
 8006cde:	f8c7 00f0 	str.w	r0, [r7, #240]	; 0xf0
 8006ce2:	f8c7 00f8 	str.w	r0, [r7, #248]	; 0xf8
 8006ce6:	f7fe bbf4 	b.w	80054d2 <forward_lstm+0x56>
 8006cea:	2300      	movs	r3, #0
 8006cec:	685b      	ldr	r3, [r3, #4]
 8006cee:	deff      	udf	#255	; 0xff

08006cf0 <forward_lite_dense_if32of32wf32>:
 8006cf0:	e92d 4ff0 	stmdb	sp!, {r4, r5, r6, r7, r8, r9, sl, fp, lr}
 8006cf4:	e9dd 6409 	ldrd	r6, r4, [sp, #36]	; 0x24
 8006cf8:	eb00 0784 	add.w	r7, r0, r4, lsl #2
 8006cfc:	4287      	cmp	r7, r0
 8006cfe:	f240 8106 	bls.w	8006f0e <forward_lite_dense_if32of32wf32+0x21e>
 8006d02:	f1a6 0810 	sub.w	r8, r6, #16
 8006d06:	ea4f 1818 	mov.w	r8, r8, lsr #4
 8006d0a:	f108 0801 	add.w	r8, r8, #1
 8006d0e:	ea4f 1b88 	mov.w	fp, r8, lsl #6
 8006d12:	ea4f 0986 	mov.w	r9, r6, lsl #2
 8006d16:	eb01 1888 	add.w	r8, r1, r8, lsl #6
 8006d1a:	4605      	mov	r5, r0
 8006d1c:	f006 0a0f 	and.w	sl, r6, #15
 8006d20:	2e0f      	cmp	r6, #15
 8006d22:	ed9f 7a84 	vldr	s14, [pc, #528]	; 8006f34 <forward_lite_dense_if32of32wf32+0x244>
 8006d26:	f240 8101 	bls.w	8006f2c <forward_lite_dense_if32of32wf32+0x23c>
 8006d2a:	f101 0c40 	add.w	ip, r1, #64	; 0x40
 8006d2e:	f102 0440 	add.w	r4, r2, #64	; 0x40
 8006d32:	46b6      	mov	lr, r6
 8006d34:	ed54 5a0f 	vldr	s11, [r4, #-60]	; 0xffffffc4
 8006d38:	ed5c 7a0f 	vldr	s15, [ip, #-60]	; 0xffffffc4
 8006d3c:	ed1c 6a10 	vldr	s12, [ip, #-64]	; 0xffffffc0
 8006d40:	ed54 6a10 	vldr	s13, [r4, #-64]	; 0xffffffc0
 8006d44:	ed5c 4a0d 	vldr	s9, [ip, #-52]	; 0xffffffcc
 8006d48:	ed1c 5a0c 	vldr	s10, [ip, #-48]	; 0xffffffd0
 8006d4c:	ed1c 3a0a 	vldr	s6, [ip, #-40]	; 0xffffffd8
 8006d50:	ed54 3a0a 	vldr	s7, [r4, #-40]	; 0xffffffd8
 8006d54:	ed1c 4a09 	vldr	s8, [ip, #-36]	; 0xffffffdc
 8006d58:	ed1c 1a06 	vldr	s2, [ip, #-24]	; 0xffffffe8
 8006d5c:	ed54 1a06 	vldr	s3, [r4, #-24]	; 0xffffffe8
 8006d60:	ed1c 2a05 	vldr	s4, [ip, #-20]	; 0xffffffec
 8006d64:	ed54 2a05 	vldr	s5, [r4, #-20]	; 0xffffffec
 8006d68:	ee67 7aa5 	vmul.f32	s15, s15, s11
 8006d6c:	ed5c 5a0e 	vldr	s11, [ip, #-56]	; 0xffffffc8
 8006d70:	eee6 7a26 	vfma.f32	s15, s12, s13
 8006d74:	f1ae 0e10 	sub.w	lr, lr, #16
 8006d78:	f1be 0f0f 	cmp.w	lr, #15
 8006d7c:	ed14 6a0e 	vldr	s12, [r4, #-56]	; 0xffffffc8
 8006d80:	ed54 6a0d 	vldr	s13, [r4, #-52]	; 0xffffffcc
 8006d84:	eee5 7a86 	vfma.f32	s15, s11, s12
 8006d88:	f10c 0c40 	add.w	ip, ip, #64	; 0x40
 8006d8c:	f104 0440 	add.w	r4, r4, #64	; 0x40
 8006d90:	ed54 5a1c 	vldr	s11, [r4, #-112]	; 0xffffff90
 8006d94:	ed1c 6a1b 	vldr	s12, [ip, #-108]	; 0xffffff94
 8006d98:	eee4 7aa6 	vfma.f32	s15, s9, s13
 8006d9c:	ed54 6a1b 	vldr	s13, [r4, #-108]	; 0xffffff94
 8006da0:	ed54 4a19 	vldr	s9, [r4, #-100]	; 0xffffff9c
 8006da4:	eee5 7a25 	vfma.f32	s15, s10, s11
 8006da8:	ed1c 5a18 	vldr	s10, [ip, #-96]	; 0xffffffa0
 8006dac:	ed54 5a18 	vldr	s11, [r4, #-96]	; 0xffffffa0
 8006db0:	eee6 7a26 	vfma.f32	s15, s12, s13
 8006db4:	ed1c 6a17 	vldr	s12, [ip, #-92]	; 0xffffffa4
 8006db8:	ed54 6a17 	vldr	s13, [r4, #-92]	; 0xffffffa4
 8006dbc:	eee3 7a23 	vfma.f32	s15, s6, s7
 8006dc0:	ed1c 3a14 	vldr	s6, [ip, #-80]	; 0xffffffb0
 8006dc4:	ed54 3a14 	vldr	s7, [r4, #-80]	; 0xffffffb0
 8006dc8:	eee4 7a24 	vfma.f32	s15, s8, s9
 8006dcc:	ed1c 4a13 	vldr	s8, [ip, #-76]	; 0xffffffb4
 8006dd0:	ed54 4a13 	vldr	s9, [r4, #-76]	; 0xffffffb4
 8006dd4:	eee5 7a25 	vfma.f32	s15, s10, s11
 8006dd8:	ed1c 5a12 	vldr	s10, [ip, #-72]	; 0xffffffb8
 8006ddc:	ed54 5a12 	vldr	s11, [r4, #-72]	; 0xffffffb8
 8006de0:	eee6 7a26 	vfma.f32	s15, s12, s13
 8006de4:	ed1c 6a11 	vldr	s12, [ip, #-68]	; 0xffffffbc
 8006de8:	ed54 6a11 	vldr	s13, [r4, #-68]	; 0xffffffbc
 8006dec:	eee1 7a21 	vfma.f32	s15, s2, s3
 8006df0:	eee2 7a22 	vfma.f32	s15, s4, s5
 8006df4:	eee3 7a23 	vfma.f32	s15, s6, s7
 8006df8:	eee4 7a24 	vfma.f32	s15, s8, s9
 8006dfc:	eee5 7a25 	vfma.f32	s15, s10, s11
 8006e00:	eee6 7a26 	vfma.f32	s15, s12, s13
 8006e04:	ee37 7a27 	vadd.f32	s14, s14, s15
 8006e08:	d894      	bhi.n	8006d34 <forward_lite_dense_if32of32wf32+0x44>
 8006e0a:	eb02 0e0b 	add.w	lr, r2, fp
 8006e0e:	4654      	mov	r4, sl
 8006e10:	46c4      	mov	ip, r8
 8006e12:	2c00      	cmp	r4, #0
 8006e14:	d075      	beq.n	8006f02 <forward_lite_dense_if32of32wf32+0x212>
 8006e16:	eddc 6a00 	vldr	s13, [ip]
 8006e1a:	edde 7a00 	vldr	s15, [lr]
 8006e1e:	2c01      	cmp	r4, #1
 8006e20:	eea6 7aa7 	vfma.f32	s14, s13, s15
 8006e24:	d06d      	beq.n	8006f02 <forward_lite_dense_if32of32wf32+0x212>
 8006e26:	eddc 6a01 	vldr	s13, [ip, #4]
 8006e2a:	edde 7a01 	vldr	s15, [lr, #4]
 8006e2e:	2c02      	cmp	r4, #2
 8006e30:	eea6 7aa7 	vfma.f32	s14, s13, s15
 8006e34:	d065      	beq.n	8006f02 <forward_lite_dense_if32of32wf32+0x212>
 8006e36:	eddc 6a02 	vldr	s13, [ip, #8]
 8006e3a:	edde 7a02 	vldr	s15, [lr, #8]
 8006e3e:	2c03      	cmp	r4, #3
 8006e40:	eea6 7aa7 	vfma.f32	s14, s13, s15
 8006e44:	d05d      	beq.n	8006f02 <forward_lite_dense_if32of32wf32+0x212>
 8006e46:	eddc 6a03 	vldr	s13, [ip, #12]
 8006e4a:	edde 7a03 	vldr	s15, [lr, #12]
 8006e4e:	2c04      	cmp	r4, #4
 8006e50:	eea6 7aa7 	vfma.f32	s14, s13, s15
 8006e54:	d055      	beq.n	8006f02 <forward_lite_dense_if32of32wf32+0x212>
 8006e56:	eddc 6a04 	vldr	s13, [ip, #16]
 8006e5a:	edde 7a04 	vldr	s15, [lr, #16]
 8006e5e:	2c05      	cmp	r4, #5
 8006e60:	eea6 7aa7 	vfma.f32	s14, s13, s15
 8006e64:	d04d      	beq.n	8006f02 <forward_lite_dense_if32of32wf32+0x212>
 8006e66:	eddc 6a05 	vldr	s13, [ip, #20]
 8006e6a:	edde 7a05 	vldr	s15, [lr, #20]
 8006e6e:	2c06      	cmp	r4, #6
 8006e70:	eea6 7aa7 	vfma.f32	s14, s13, s15
 8006e74:	d045      	beq.n	8006f02 <forward_lite_dense_if32of32wf32+0x212>
 8006e76:	eddc 6a06 	vldr	s13, [ip, #24]
 8006e7a:	edde 7a06 	vldr	s15, [lr, #24]
 8006e7e:	2c07      	cmp	r4, #7
 8006e80:	eea6 7aa7 	vfma.f32	s14, s13, s15
 8006e84:	d03d      	beq.n	8006f02 <forward_lite_dense_if32of32wf32+0x212>
 8006e86:	eddc 6a07 	vldr	s13, [ip, #28]
 8006e8a:	edde 7a07 	vldr	s15, [lr, #28]
 8006e8e:	2c08      	cmp	r4, #8
 8006e90:	eea6 7aa7 	vfma.f32	s14, s13, s15
 8006e94:	d035      	beq.n	8006f02 <forward_lite_dense_if32of32wf32+0x212>
 8006e96:	eddc 6a08 	vldr	s13, [ip, #32]
 8006e9a:	edde 7a08 	vldr	s15, [lr, #32]
 8006e9e:	2c09      	cmp	r4, #9
 8006ea0:	eea6 7aa7 	vfma.f32	s14, s13, s15
 8006ea4:	d02d      	beq.n	8006f02 <forward_lite_dense_if32of32wf32+0x212>
 8006ea6:	eddc 6a09 	vldr	s13, [ip, #36]	; 0x24
 8006eaa:	edde 7a09 	vldr	s15, [lr, #36]	; 0x24
 8006eae:	2c0a      	cmp	r4, #10
 8006eb0:	eea6 7aa7 	vfma.f32	s14, s13, s15
 8006eb4:	d025      	beq.n	8006f02 <forward_lite_dense_if32of32wf32+0x212>
 8006eb6:	eddc 6a0a 	vldr	s13, [ip, #40]	; 0x28
 8006eba:	edde 7a0a 	vldr	s15, [lr, #40]	; 0x28
 8006ebe:	2c0b      	cmp	r4, #11
 8006ec0:	eea6 7aa7 	vfma.f32	s14, s13, s15
 8006ec4:	d01d      	beq.n	8006f02 <forward_lite_dense_if32of32wf32+0x212>
 8006ec6:	eddc 6a0b 	vldr	s13, [ip, #44]	; 0x2c
 8006eca:	edde 7a0b 	vldr	s15, [lr, #44]	; 0x2c
 8006ece:	2c0c      	cmp	r4, #12
 8006ed0:	eea6 7aa7 	vfma.f32	s14, s13, s15
 8006ed4:	d015      	beq.n	8006f02 <forward_lite_dense_if32of32wf32+0x212>
 8006ed6:	eddc 6a0c 	vldr	s13, [ip, #48]	; 0x30
 8006eda:	edde 7a0c 	vldr	s15, [lr, #48]	; 0x30
 8006ede:	3c0d      	subs	r4, #13
 8006ee0:	eea6 7aa7 	vfma.f32	s14, s13, s15
 8006ee4:	d00d      	beq.n	8006f02 <forward_lite_dense_if32of32wf32+0x212>
 8006ee6:	eddc 6a0d 	vldr	s13, [ip, #52]	; 0x34
 8006eea:	edde 7a0d 	vldr	s15, [lr, #52]	; 0x34
 8006eee:	2c01      	cmp	r4, #1
 8006ef0:	eea6 7aa7 	vfma.f32	s14, s13, s15
 8006ef4:	d005      	beq.n	8006f02 <forward_lite_dense_if32of32wf32+0x212>
 8006ef6:	edde 6a0e 	vldr	s13, [lr, #56]	; 0x38
 8006efa:	eddc 7a0e 	vldr	s15, [ip, #56]	; 0x38
 8006efe:	eea6 7aa7 	vfma.f32	s14, s13, s15
 8006f02:	444a      	add	r2, r9
 8006f04:	eca5 7a01 	vstmia	r5!, {s14}
 8006f08:	42af      	cmp	r7, r5
 8006f0a:	f63f af09 	bhi.w	8006d20 <forward_lite_dense_if32of32wf32+0x30>
 8006f0e:	b15b      	cbz	r3, 8006f28 <forward_lite_dense_if32of32wf32+0x238>
 8006f10:	9a0a      	ldr	r2, [sp, #40]	; 0x28
 8006f12:	b14a      	cbz	r2, 8006f28 <forward_lite_dense_if32of32wf32+0x238>
 8006f14:	edd0 7a00 	vldr	s15, [r0]
 8006f18:	ecb3 7a01 	vldmia	r3!, {s14}
 8006f1c:	ee77 7a87 	vadd.f32	s15, s15, s14
 8006f20:	ece0 7a01 	vstmia	r0!, {s15}
 8006f24:	4287      	cmp	r7, r0
 8006f26:	d1f5      	bne.n	8006f14 <forward_lite_dense_if32of32wf32+0x224>
 8006f28:	e8bd 8ff0 	ldmia.w	sp!, {r4, r5, r6, r7, r8, r9, sl, fp, pc}
 8006f2c:	4634      	mov	r4, r6
 8006f2e:	4696      	mov	lr, r2
 8006f30:	468c      	mov	ip, r1
 8006f32:	e76e      	b.n	8006e12 <forward_lite_dense_if32of32wf32+0x122>
 8006f34:	00000000 	.word	0x00000000

08006f38 <st_int8_fill>:
 8006f38:	b510      	push	{r4, lr}
 8006f3a:	b2c3      	uxtb	r3, r0
 8006f3c:	0204      	lsls	r4, r0, #8
 8006f3e:	b2a4      	uxth	r4, r4
 8006f40:	ea43 6300 	orr.w	r3, r3, r0, lsl #24
 8006f44:	4323      	orrs	r3, r4
 8006f46:	0404      	lsls	r4, r0, #16
 8006f48:	f404 047f 	and.w	r4, r4, #16711680	; 0xff0000
 8006f4c:	431c      	orrs	r4, r3
 8006f4e:	078b      	lsls	r3, r1, #30
 8006f50:	468c      	mov	ip, r1
 8006f52:	d007      	beq.n	8006f64 <st_int8_fill+0x2c>
 8006f54:	b3a2      	cbz	r2, 8006fc0 <st_int8_fill+0x88>
 8006f56:	f80c 0b01 	strb.w	r0, [ip], #1
 8006f5a:	f01c 0f03 	tst.w	ip, #3
 8006f5e:	f102 32ff 	add.w	r2, r2, #4294967295
 8006f62:	d1f7      	bne.n	8006f54 <st_int8_fill+0x1c>
 8006f64:	0911      	lsrs	r1, r2, #4
 8006f66:	d03e      	beq.n	8006fe6 <st_int8_fill+0xae>
 8006f68:	1e4b      	subs	r3, r1, #1
 8006f6a:	2b04      	cmp	r3, #4
 8006f6c:	d929      	bls.n	8006fc2 <st_int8_fill+0x8a>
 8006f6e:	f01c 0f07 	tst.w	ip, #7
 8006f72:	d126      	bne.n	8006fc2 <st_int8_fill+0x8a>
 8006f74:	f10c 0310 	add.w	r3, ip, #16
 8006f78:	ea4f 1e01 	mov.w	lr, r1, lsl #4
 8006f7c:	eb03 1101 	add.w	r1, r3, r1, lsl #4
 8006f80:	e943 4404 	strd	r4, r4, [r3, #-16]
 8006f84:	e943 4402 	strd	r4, r4, [r3, #-8]
 8006f88:	3310      	adds	r3, #16
 8006f8a:	428b      	cmp	r3, r1
 8006f8c:	d1f8      	bne.n	8006f80 <st_int8_fill+0x48>
 8006f8e:	f3c2 0381 	ubfx	r3, r2, #2, #2
 8006f92:	44f4      	add	ip, lr
 8006f94:	f002 0203 	and.w	r2, r2, #3
 8006f98:	b15b      	cbz	r3, 8006fb2 <st_int8_fill+0x7a>
 8006f9a:	1e59      	subs	r1, r3, #1
 8006f9c:	f8cc 4000 	str.w	r4, [ip]
 8006fa0:	d005      	beq.n	8006fae <st_int8_fill+0x76>
 8006fa2:	2901      	cmp	r1, #1
 8006fa4:	f8cc 4004 	str.w	r4, [ip, #4]
 8006fa8:	bf18      	it	ne
 8006faa:	f8cc 4008 	strne.w	r4, [ip, #8]
 8006fae:	eb0c 0c83 	add.w	ip, ip, r3, lsl #2
 8006fb2:	b12a      	cbz	r2, 8006fc0 <st_int8_fill+0x88>
 8006fb4:	4601      	mov	r1, r0
 8006fb6:	e8bd 4010 	ldmia.w	sp!, {r4, lr}
 8006fba:	4660      	mov	r0, ip
 8006fbc:	f000 bfa1 	b.w	8007f02 <memset>
 8006fc0:	bd10      	pop	{r4, pc}
 8006fc2:	ea4f 1e01 	mov.w	lr, r1, lsl #4
 8006fc6:	4663      	mov	r3, ip
 8006fc8:	eb0c 1101 	add.w	r1, ip, r1, lsl #4
 8006fcc:	601c      	str	r4, [r3, #0]
 8006fce:	605c      	str	r4, [r3, #4]
 8006fd0:	609c      	str	r4, [r3, #8]
 8006fd2:	60dc      	str	r4, [r3, #12]
 8006fd4:	3310      	adds	r3, #16
 8006fd6:	4299      	cmp	r1, r3
 8006fd8:	d1f8      	bne.n	8006fcc <st_int8_fill+0x94>
 8006fda:	f3c2 0381 	ubfx	r3, r2, #2, #2
 8006fde:	44f4      	add	ip, lr
 8006fe0:	f002 0203 	and.w	r2, r2, #3
 8006fe4:	e7d8      	b.n	8006f98 <st_int8_fill+0x60>
 8006fe6:	0893      	lsrs	r3, r2, #2
 8006fe8:	f002 0203 	and.w	r2, r2, #3
 8006fec:	e7d4      	b.n	8006f98 <st_int8_fill+0x60>
 8006fee:	bf00      	nop

08006ff0 <st_int8_copy>:
 8006ff0:	4288      	cmp	r0, r1
 8006ff2:	d057      	beq.n	80070a4 <st_int8_copy+0xb4>
 8006ff4:	2a00      	cmp	r2, #0
 8006ff6:	d055      	beq.n	80070a4 <st_int8_copy+0xb4>
 8006ff8:	4288      	cmp	r0, r1
 8006ffa:	d354      	bcc.n	80070a6 <st_int8_copy+0xb6>
 8006ffc:	078b      	lsls	r3, r1, #30
 8006ffe:	d102      	bne.n	8007006 <st_int8_copy+0x16>
 8007000:	e009      	b.n	8007016 <st_int8_copy+0x26>
 8007002:	2a00      	cmp	r2, #0
 8007004:	d05c      	beq.n	80070c0 <st_int8_copy+0xd0>
 8007006:	f910 3b01 	ldrsb.w	r3, [r0], #1
 800700a:	f801 3b01 	strb.w	r3, [r1], #1
 800700e:	078b      	lsls	r3, r1, #30
 8007010:	f102 32ff 	add.w	r2, r2, #4294967295
 8007014:	d1f5      	bne.n	8007002 <st_int8_copy+0x12>
 8007016:	e92d 41f0 	stmdb	sp!, {r4, r5, r6, r7, r8, lr}
 800701a:	ea5f 1e12 	movs.w	lr, r2, lsr #4
 800701e:	d069      	beq.n	80070f4 <st_int8_copy+0x104>
 8007020:	ea41 0300 	orr.w	r3, r1, r0
 8007024:	075b      	lsls	r3, r3, #29
 8007026:	d14c      	bne.n	80070c2 <st_int8_copy+0xd2>
 8007028:	f10e 33ff 	add.w	r3, lr, #4294967295
 800702c:	2b01      	cmp	r3, #1
 800702e:	d948      	bls.n	80070c2 <st_int8_copy+0xd2>
 8007030:	f100 0310 	add.w	r3, r0, #16
 8007034:	ea4f 140e 	mov.w	r4, lr, lsl #4
 8007038:	f101 0c10 	add.w	ip, r1, #16
 800703c:	eb03 1e0e 	add.w	lr, r3, lr, lsl #4
 8007040:	ed13 6b04 	vldr	d6, [r3, #-16]
 8007044:	ed13 7b02 	vldr	d7, [r3, #-8]
 8007048:	3310      	adds	r3, #16
 800704a:	4573      	cmp	r3, lr
 800704c:	ed0c 6b04 	vstr	d6, [ip, #-16]
 8007050:	ed0c 7b02 	vstr	d7, [ip, #-8]
 8007054:	f10c 0c10 	add.w	ip, ip, #16
 8007058:	d1f2      	bne.n	8007040 <st_int8_copy+0x50>
 800705a:	f3c2 0381 	ubfx	r3, r2, #2, #2
 800705e:	4421      	add	r1, r4
 8007060:	4420      	add	r0, r4
 8007062:	f002 0203 	and.w	r2, r2, #3
 8007066:	b16b      	cbz	r3, 8007084 <st_int8_copy+0x94>
 8007068:	6804      	ldr	r4, [r0, #0]
 800706a:	600c      	str	r4, [r1, #0]
 800706c:	1e5c      	subs	r4, r3, #1
 800706e:	d005      	beq.n	800707c <st_int8_copy+0x8c>
 8007070:	6845      	ldr	r5, [r0, #4]
 8007072:	604d      	str	r5, [r1, #4]
 8007074:	2c01      	cmp	r4, #1
 8007076:	bf1c      	itt	ne
 8007078:	6884      	ldrne	r4, [r0, #8]
 800707a:	608c      	strne	r4, [r1, #8]
 800707c:	eb00 0083 	add.w	r0, r0, r3, lsl #2
 8007080:	eb01 0183 	add.w	r1, r1, r3, lsl #2
 8007084:	b162      	cbz	r2, 80070a0 <st_int8_copy+0xb0>
 8007086:	f990 3000 	ldrsb.w	r3, [r0]
 800708a:	700b      	strb	r3, [r1, #0]
 800708c:	3a01      	subs	r2, #1
 800708e:	d007      	beq.n	80070a0 <st_int8_copy+0xb0>
 8007090:	f990 3001 	ldrsb.w	r3, [r0, #1]
 8007094:	704b      	strb	r3, [r1, #1]
 8007096:	2a01      	cmp	r2, #1
 8007098:	bf1c      	itt	ne
 800709a:	f990 3002 	ldrsbne.w	r3, [r0, #2]
 800709e:	708b      	strbne	r3, [r1, #2]
 80070a0:	e8bd 81f0 	ldmia.w	sp!, {r4, r5, r6, r7, r8, pc}
 80070a4:	4770      	bx	lr
 80070a6:	1883      	adds	r3, r0, r2
 80070a8:	428b      	cmp	r3, r1
 80070aa:	d9a7      	bls.n	8006ffc <st_int8_copy+0xc>
 80070ac:	4283      	cmp	r3, r0
 80070ae:	440a      	add	r2, r1
 80070b0:	d9f8      	bls.n	80070a4 <st_int8_copy+0xb4>
 80070b2:	f913 1d01 	ldrsb.w	r1, [r3, #-1]!
 80070b6:	f802 1d01 	strb.w	r1, [r2, #-1]!
 80070ba:	4283      	cmp	r3, r0
 80070bc:	d1f9      	bne.n	80070b2 <st_int8_copy+0xc2>
 80070be:	4770      	bx	lr
 80070c0:	4770      	bx	lr
 80070c2:	ea4f 140e 	mov.w	r4, lr, lsl #4
 80070c6:	460b      	mov	r3, r1
 80070c8:	eb01 1e0e 	add.w	lr, r1, lr, lsl #4
 80070cc:	4684      	mov	ip, r0
 80070ce:	f8dc 7000 	ldr.w	r7, [ip]
 80070d2:	f8dc 6004 	ldr.w	r6, [ip, #4]
 80070d6:	f8dc 5008 	ldr.w	r5, [ip, #8]
 80070da:	f8dc 800c 	ldr.w	r8, [ip, #12]
 80070de:	f8c3 800c 	str.w	r8, [r3, #12]
 80070e2:	601f      	str	r7, [r3, #0]
 80070e4:	605e      	str	r6, [r3, #4]
 80070e6:	609d      	str	r5, [r3, #8]
 80070e8:	3310      	adds	r3, #16
 80070ea:	459e      	cmp	lr, r3
 80070ec:	f10c 0c10 	add.w	ip, ip, #16
 80070f0:	d1ed      	bne.n	80070ce <st_int8_copy+0xde>
 80070f2:	e7b2      	b.n	800705a <st_int8_copy+0x6a>
 80070f4:	0893      	lsrs	r3, r2, #2
 80070f6:	f002 0203 	and.w	r2, r2, #3
 80070fa:	e7b4      	b.n	8007066 <st_int8_copy+0x76>

080070fc <ai_array_to_buffer_fmt>:
 80070fc:	f3c0 4343 	ubfx	r3, r0, #17, #4
 8007100:	2b02      	cmp	r3, #2
 8007102:	d050      	beq.n	80071a6 <ai_array_to_buffer_fmt+0xaa>
 8007104:	4b2a      	ldr	r3, [pc, #168]	; (80071b0 <ai_array_to_buffer_fmt+0xb4>)
 8007106:	f020 427e 	bic.w	r2, r0, #4261412864	; 0xfe000000
 800710a:	429a      	cmp	r2, r3
 800710c:	d00b      	beq.n	8007126 <ai_array_to_buffer_fmt+0x2a>
 800710e:	dc1c      	bgt.n	800714a <ai_array_to_buffer_fmt+0x4e>
 8007110:	4b28      	ldr	r3, [pc, #160]	; (80071b4 <ai_array_to_buffer_fmt+0xb8>)
 8007112:	429a      	cmp	r2, r3
 8007114:	d007      	beq.n	8007126 <ai_array_to_buffer_fmt+0x2a>
 8007116:	dd0b      	ble.n	8007130 <ai_array_to_buffer_fmt+0x34>
 8007118:	4b27      	ldr	r3, [pc, #156]	; (80071b8 <ai_array_to_buffer_fmt+0xbc>)
 800711a:	429a      	cmp	r2, r3
 800711c:	d003      	beq.n	8007126 <ai_array_to_buffer_fmt+0x2a>
 800711e:	f503 33fa 	add.w	r3, r3, #128000	; 0x1f400
 8007122:	429a      	cmp	r2, r3
 8007124:	d131      	bne.n	800718a <ai_array_to_buffer_fmt+0x8e>
 8007126:	4613      	mov	r3, r2
 8007128:	f000 40d0 	and.w	r0, r0, #1744830464	; 0x68000000
 800712c:	4318      	orrs	r0, r3
 800712e:	4770      	bx	lr
 8007130:	f5a3 6380 	sub.w	r3, r3, #1024	; 0x400
 8007134:	429a      	cmp	r2, r3
 8007136:	d0f6      	beq.n	8007126 <ai_array_to_buffer_fmt+0x2a>
 8007138:	dd2c      	ble.n	8007194 <ai_array_to_buffer_fmt+0x98>
 800713a:	4b20      	ldr	r3, [pc, #128]	; (80071bc <ai_array_to_buffer_fmt+0xc0>)
 800713c:	f000 40d0 	and.w	r0, r0, #1744830464	; 0x68000000
 8007140:	429a      	cmp	r2, r3
 8007142:	bf18      	it	ne
 8007144:	2340      	movne	r3, #64	; 0x40
 8007146:	4318      	orrs	r0, r3
 8007148:	4770      	bx	lr
 800714a:	4b1d      	ldr	r3, [pc, #116]	; (80071c0 <ai_array_to_buffer_fmt+0xc4>)
 800714c:	429a      	cmp	r2, r3
 800714e:	d0ea      	beq.n	8007126 <ai_array_to_buffer_fmt+0x2a>
 8007150:	dd0e      	ble.n	8007170 <ai_array_to_buffer_fmt+0x74>
 8007152:	4b1c      	ldr	r3, [pc, #112]	; (80071c4 <ai_array_to_buffer_fmt+0xc8>)
 8007154:	429a      	cmp	r2, r3
 8007156:	d0e6      	beq.n	8007126 <ai_array_to_buffer_fmt+0x2a>
 8007158:	f503 037e 	add.w	r3, r3, #16646144	; 0xfe0000
 800715c:	429a      	cmp	r2, r3
 800715e:	d0e2      	beq.n	8007126 <ai_array_to_buffer_fmt+0x2a>
 8007160:	4b19      	ldr	r3, [pc, #100]	; (80071c8 <ai_array_to_buffer_fmt+0xcc>)
 8007162:	f000 40d0 	and.w	r0, r0, #1744830464	; 0x68000000
 8007166:	429a      	cmp	r2, r3
 8007168:	bf18      	it	ne
 800716a:	2340      	movne	r3, #64	; 0x40
 800716c:	4318      	orrs	r0, r3
 800716e:	4770      	bx	lr
 8007170:	f5a3 6380 	sub.w	r3, r3, #1024	; 0x400
 8007174:	429a      	cmp	r2, r3
 8007176:	d0d6      	beq.n	8007126 <ai_array_to_buffer_fmt+0x2a>
 8007178:	3307      	adds	r3, #7
 800717a:	429a      	cmp	r2, r3
 800717c:	d0d3      	beq.n	8007126 <ai_array_to_buffer_fmt+0x2a>
 800717e:	f2a3 3387 	subw	r3, r3, #903	; 0x387
 8007182:	429a      	cmp	r2, r3
 8007184:	bf18      	it	ne
 8007186:	2340      	movne	r3, #64	; 0x40
 8007188:	e7ce      	b.n	8007128 <ai_array_to_buffer_fmt+0x2c>
 800718a:	4b10      	ldr	r3, [pc, #64]	; (80071cc <ai_array_to_buffer_fmt+0xd0>)
 800718c:	429a      	cmp	r2, r3
 800718e:	bf18      	it	ne
 8007190:	2340      	movne	r3, #64	; 0x40
 8007192:	e7c9      	b.n	8007128 <ai_array_to_buffer_fmt+0x2c>
 8007194:	f5a3 6380 	sub.w	r3, r3, #1024	; 0x400
 8007198:	429a      	cmp	r2, r3
 800719a:	d0c4      	beq.n	8007126 <ai_array_to_buffer_fmt+0x2a>
 800719c:	3380      	adds	r3, #128	; 0x80
 800719e:	429a      	cmp	r2, r3
 80071a0:	bf18      	it	ne
 80071a2:	2340      	movne	r3, #64	; 0x40
 80071a4:	e7c0      	b.n	8007128 <ai_array_to_buffer_fmt+0x2c>
 80071a6:	4b0a      	ldr	r3, [pc, #40]	; (80071d0 <ai_array_to_buffer_fmt+0xd4>)
 80071a8:	4003      	ands	r3, r0
 80071aa:	f443 2380 	orr.w	r3, r3, #262144	; 0x40000
 80071ae:	e7bb      	b.n	8007128 <ai_array_to_buffer_fmt+0x2c>
 80071b0:	00840040 	.word	0x00840040
 80071b4:	00040840 	.word	0x00040840
 80071b8:	00041040 	.word	0x00041040
 80071bc:	00040447 	.word	0x00040447
 80071c0:	00840840 	.word	0x00840840
 80071c4:	00841040 	.word	0x00841040
 80071c8:	0084084f 	.word	0x0084084f
 80071cc:	0004084f 	.word	0x0004084f
 80071d0:	00803fff 	.word	0x00803fff

080071d4 <ai_array_get_byte_size>:
 80071d4:	b319      	cbz	r1, 800721e <ai_array_get_byte_size+0x4a>
 80071d6:	f3c0 13c6 	ubfx	r3, r0, #7, #7
 80071da:	fb03 f101 	mul.w	r1, r3, r1
 80071de:	3107      	adds	r1, #7
 80071e0:	f3c0 4243 	ubfx	r2, r0, #17, #4
 80071e4:	f021 0307 	bic.w	r3, r1, #7
 80071e8:	2a04      	cmp	r2, #4
 80071ea:	f3c0 5141 	ubfx	r1, r0, #21, #2
 80071ee:	fa23 f101 	lsr.w	r1, r3, r1
 80071f2:	ea4f 10e0 	mov.w	r0, r0, asr #7
 80071f6:	d00b      	beq.n	8007210 <ai_array_get_byte_size+0x3c>
 80071f8:	2a08      	cmp	r2, #8
 80071fa:	d002      	beq.n	8007202 <ai_array_get_byte_size+0x2e>
 80071fc:	3107      	adds	r1, #7
 80071fe:	08c8      	lsrs	r0, r1, #3
 8007200:	4770      	bx	lr
 8007202:	f000 007f 	and.w	r0, r0, #127	; 0x7f
 8007206:	eb01 2100 	add.w	r1, r1, r0, lsl #8
 800720a:	3107      	adds	r1, #7
 800720c:	08c8      	lsrs	r0, r1, #3
 800720e:	4770      	bx	lr
 8007210:	f000 007f 	and.w	r0, r0, #127	; 0x7f
 8007214:	eb01 1100 	add.w	r1, r1, r0, lsl #4
 8007218:	3107      	adds	r1, #7
 800721a:	08c8      	lsrs	r0, r1, #3
 800721c:	4770      	bx	lr
 800721e:	4608      	mov	r0, r1
 8007220:	4770      	bx	lr
 8007222:	bf00      	nop

08007224 <malloc>:
 8007224:	4b02      	ldr	r3, [pc, #8]	; (8007230 <malloc+0xc>)
 8007226:	4601      	mov	r1, r0
 8007228:	6818      	ldr	r0, [r3, #0]
 800722a:	f000 b823 	b.w	8007274 <_malloc_r>
 800722e:	bf00      	nop
 8007230:	20000c5c 	.word	0x20000c5c

08007234 <sbrk_aligned>:
 8007234:	b570      	push	{r4, r5, r6, lr}
 8007236:	4e0e      	ldr	r6, [pc, #56]	; (8007270 <sbrk_aligned+0x3c>)
 8007238:	460c      	mov	r4, r1
 800723a:	6831      	ldr	r1, [r6, #0]
 800723c:	4605      	mov	r5, r0
 800723e:	b911      	cbnz	r1, 8007246 <sbrk_aligned+0x12>
 8007240:	f000 fea0 	bl	8007f84 <_sbrk_r>
 8007244:	6030      	str	r0, [r6, #0]
 8007246:	4621      	mov	r1, r4
 8007248:	4628      	mov	r0, r5
 800724a:	f000 fe9b 	bl	8007f84 <_sbrk_r>
 800724e:	1c43      	adds	r3, r0, #1
 8007250:	d00a      	beq.n	8007268 <sbrk_aligned+0x34>
 8007252:	1cc4      	adds	r4, r0, #3
 8007254:	f024 0403 	bic.w	r4, r4, #3
 8007258:	42a0      	cmp	r0, r4
 800725a:	d007      	beq.n	800726c <sbrk_aligned+0x38>
 800725c:	1a21      	subs	r1, r4, r0
 800725e:	4628      	mov	r0, r5
 8007260:	f000 fe90 	bl	8007f84 <_sbrk_r>
 8007264:	3001      	adds	r0, #1
 8007266:	d101      	bne.n	800726c <sbrk_aligned+0x38>
 8007268:	f04f 34ff 	mov.w	r4, #4294967295
 800726c:	4620      	mov	r0, r4
 800726e:	bd70      	pop	{r4, r5, r6, pc}
 8007270:	20001750 	.word	0x20001750

08007274 <_malloc_r>:
 8007274:	e92d 43f8 	stmdb	sp!, {r3, r4, r5, r6, r7, r8, r9, lr}
 8007278:	1ccd      	adds	r5, r1, #3
 800727a:	f025 0503 	bic.w	r5, r5, #3
 800727e:	3508      	adds	r5, #8
 8007280:	2d0c      	cmp	r5, #12
 8007282:	bf38      	it	cc
 8007284:	250c      	movcc	r5, #12
 8007286:	2d00      	cmp	r5, #0
 8007288:	4607      	mov	r7, r0
 800728a:	db01      	blt.n	8007290 <_malloc_r+0x1c>
 800728c:	42a9      	cmp	r1, r5
 800728e:	d905      	bls.n	800729c <_malloc_r+0x28>
 8007290:	230c      	movs	r3, #12
 8007292:	603b      	str	r3, [r7, #0]
 8007294:	2600      	movs	r6, #0
 8007296:	4630      	mov	r0, r6
 8007298:	e8bd 83f8 	ldmia.w	sp!, {r3, r4, r5, r6, r7, r8, r9, pc}
 800729c:	f8df 80d0 	ldr.w	r8, [pc, #208]	; 8007370 <_malloc_r+0xfc>
 80072a0:	f000 f868 	bl	8007374 <__malloc_lock>
 80072a4:	f8d8 3000 	ldr.w	r3, [r8]
 80072a8:	461c      	mov	r4, r3
 80072aa:	bb5c      	cbnz	r4, 8007304 <_malloc_r+0x90>
 80072ac:	4629      	mov	r1, r5
 80072ae:	4638      	mov	r0, r7
 80072b0:	f7ff ffc0 	bl	8007234 <sbrk_aligned>
 80072b4:	1c43      	adds	r3, r0, #1
 80072b6:	4604      	mov	r4, r0
 80072b8:	d155      	bne.n	8007366 <_malloc_r+0xf2>
 80072ba:	f8d8 4000 	ldr.w	r4, [r8]
 80072be:	4626      	mov	r6, r4
 80072c0:	2e00      	cmp	r6, #0
 80072c2:	d145      	bne.n	8007350 <_malloc_r+0xdc>
 80072c4:	2c00      	cmp	r4, #0
 80072c6:	d048      	beq.n	800735a <_malloc_r+0xe6>
 80072c8:	6823      	ldr	r3, [r4, #0]
 80072ca:	4631      	mov	r1, r6
 80072cc:	4638      	mov	r0, r7
 80072ce:	eb04 0903 	add.w	r9, r4, r3
 80072d2:	f000 fe57 	bl	8007f84 <_sbrk_r>
 80072d6:	4581      	cmp	r9, r0
 80072d8:	d13f      	bne.n	800735a <_malloc_r+0xe6>
 80072da:	6821      	ldr	r1, [r4, #0]
 80072dc:	1a6d      	subs	r5, r5, r1
 80072de:	4629      	mov	r1, r5
 80072e0:	4638      	mov	r0, r7
 80072e2:	f7ff ffa7 	bl	8007234 <sbrk_aligned>
 80072e6:	3001      	adds	r0, #1
 80072e8:	d037      	beq.n	800735a <_malloc_r+0xe6>
 80072ea:	6823      	ldr	r3, [r4, #0]
 80072ec:	442b      	add	r3, r5
 80072ee:	6023      	str	r3, [r4, #0]
 80072f0:	f8d8 3000 	ldr.w	r3, [r8]
 80072f4:	2b00      	cmp	r3, #0
 80072f6:	d038      	beq.n	800736a <_malloc_r+0xf6>
 80072f8:	685a      	ldr	r2, [r3, #4]
 80072fa:	42a2      	cmp	r2, r4
 80072fc:	d12b      	bne.n	8007356 <_malloc_r+0xe2>
 80072fe:	2200      	movs	r2, #0
 8007300:	605a      	str	r2, [r3, #4]
 8007302:	e00f      	b.n	8007324 <_malloc_r+0xb0>
 8007304:	6822      	ldr	r2, [r4, #0]
 8007306:	1b52      	subs	r2, r2, r5
 8007308:	d41f      	bmi.n	800734a <_malloc_r+0xd6>
 800730a:	2a0b      	cmp	r2, #11
 800730c:	d917      	bls.n	800733e <_malloc_r+0xca>
 800730e:	1961      	adds	r1, r4, r5
 8007310:	42a3      	cmp	r3, r4
 8007312:	6025      	str	r5, [r4, #0]
 8007314:	bf18      	it	ne
 8007316:	6059      	strne	r1, [r3, #4]
 8007318:	6863      	ldr	r3, [r4, #4]
 800731a:	bf08      	it	eq
 800731c:	f8c8 1000 	streq.w	r1, [r8]
 8007320:	5162      	str	r2, [r4, r5]
 8007322:	604b      	str	r3, [r1, #4]
 8007324:	4638      	mov	r0, r7
 8007326:	f104 060b 	add.w	r6, r4, #11
 800732a:	f000 f829 	bl	8007380 <__malloc_unlock>
 800732e:	f026 0607 	bic.w	r6, r6, #7
 8007332:	1d23      	adds	r3, r4, #4
 8007334:	1af2      	subs	r2, r6, r3
 8007336:	d0ae      	beq.n	8007296 <_malloc_r+0x22>
 8007338:	1b9b      	subs	r3, r3, r6
 800733a:	50a3      	str	r3, [r4, r2]
 800733c:	e7ab      	b.n	8007296 <_malloc_r+0x22>
 800733e:	42a3      	cmp	r3, r4
 8007340:	6862      	ldr	r2, [r4, #4]
 8007342:	d1dd      	bne.n	8007300 <_malloc_r+0x8c>
 8007344:	f8c8 2000 	str.w	r2, [r8]
 8007348:	e7ec      	b.n	8007324 <_malloc_r+0xb0>
 800734a:	4623      	mov	r3, r4
 800734c:	6864      	ldr	r4, [r4, #4]
 800734e:	e7ac      	b.n	80072aa <_malloc_r+0x36>
 8007350:	4634      	mov	r4, r6
 8007352:	6876      	ldr	r6, [r6, #4]
 8007354:	e7b4      	b.n	80072c0 <_malloc_r+0x4c>
 8007356:	4613      	mov	r3, r2
 8007358:	e7cc      	b.n	80072f4 <_malloc_r+0x80>
 800735a:	230c      	movs	r3, #12
 800735c:	603b      	str	r3, [r7, #0]
 800735e:	4638      	mov	r0, r7
 8007360:	f000 f80e 	bl	8007380 <__malloc_unlock>
 8007364:	e797      	b.n	8007296 <_malloc_r+0x22>
 8007366:	6025      	str	r5, [r4, #0]
 8007368:	e7dc      	b.n	8007324 <_malloc_r+0xb0>
 800736a:	605b      	str	r3, [r3, #4]
 800736c:	deff      	udf	#255	; 0xff
 800736e:	bf00      	nop
 8007370:	2000174c 	.word	0x2000174c

08007374 <__malloc_lock>:
 8007374:	4801      	ldr	r0, [pc, #4]	; (800737c <__malloc_lock+0x8>)
 8007376:	f000 be52 	b.w	800801e <__retarget_lock_acquire_recursive>
 800737a:	bf00      	nop
 800737c:	20001894 	.word	0x20001894

08007380 <__malloc_unlock>:
 8007380:	4801      	ldr	r0, [pc, #4]	; (8007388 <__malloc_unlock+0x8>)
 8007382:	f000 be4d 	b.w	8008020 <__retarget_lock_release_recursive>
 8007386:	bf00      	nop
 8007388:	20001894 	.word	0x20001894

0800738c <_realloc_r>:
 800738c:	e92d 41f0 	stmdb	sp!, {r4, r5, r6, r7, r8, lr}
 8007390:	4680      	mov	r8, r0
 8007392:	4614      	mov	r4, r2
 8007394:	460e      	mov	r6, r1
 8007396:	b921      	cbnz	r1, 80073a2 <_realloc_r+0x16>
 8007398:	e8bd 41f0 	ldmia.w	sp!, {r4, r5, r6, r7, r8, lr}
 800739c:	4611      	mov	r1, r2
 800739e:	f7ff bf69 	b.w	8007274 <_malloc_r>
 80073a2:	b92a      	cbnz	r2, 80073b0 <_realloc_r+0x24>
 80073a4:	f001 fcc6 	bl	8008d34 <_free_r>
 80073a8:	4625      	mov	r5, r4
 80073aa:	4628      	mov	r0, r5
 80073ac:	e8bd 81f0 	ldmia.w	sp!, {r4, r5, r6, r7, r8, pc}
 80073b0:	f002 f888 	bl	80094c4 <_malloc_usable_size_r>
 80073b4:	4284      	cmp	r4, r0
 80073b6:	4607      	mov	r7, r0
 80073b8:	d802      	bhi.n	80073c0 <_realloc_r+0x34>
 80073ba:	ebb4 0f50 	cmp.w	r4, r0, lsr #1
 80073be:	d812      	bhi.n	80073e6 <_realloc_r+0x5a>
 80073c0:	4621      	mov	r1, r4
 80073c2:	4640      	mov	r0, r8
 80073c4:	f7ff ff56 	bl	8007274 <_malloc_r>
 80073c8:	4605      	mov	r5, r0
 80073ca:	2800      	cmp	r0, #0
 80073cc:	d0ed      	beq.n	80073aa <_realloc_r+0x1e>
 80073ce:	42bc      	cmp	r4, r7
 80073d0:	4622      	mov	r2, r4
 80073d2:	4631      	mov	r1, r6
 80073d4:	bf28      	it	cs
 80073d6:	463a      	movcs	r2, r7
 80073d8:	f000 fe23 	bl	8008022 <memcpy>
 80073dc:	4631      	mov	r1, r6
 80073de:	4640      	mov	r0, r8
 80073e0:	f001 fca8 	bl	8008d34 <_free_r>
 80073e4:	e7e1      	b.n	80073aa <_realloc_r+0x1e>
 80073e6:	4635      	mov	r5, r6
 80073e8:	e7df      	b.n	80073aa <_realloc_r+0x1e>

080073ea <__cvt>:
 80073ea:	e92d 47ff 	stmdb	sp!, {r0, r1, r2, r3, r4, r5, r6, r7, r8, r9, sl, lr}
 80073ee:	ec55 4b10 	vmov	r4, r5, d0
 80073f2:	2d00      	cmp	r5, #0
 80073f4:	460e      	mov	r6, r1
 80073f6:	4619      	mov	r1, r3
 80073f8:	462b      	mov	r3, r5
 80073fa:	bfbb      	ittet	lt
 80073fc:	f105 4300 	addlt.w	r3, r5, #2147483648	; 0x80000000
 8007400:	461d      	movlt	r5, r3
 8007402:	2300      	movge	r3, #0
 8007404:	232d      	movlt	r3, #45	; 0x2d
 8007406:	700b      	strb	r3, [r1, #0]
 8007408:	9b0d      	ldr	r3, [sp, #52]	; 0x34
 800740a:	f8dd a030 	ldr.w	sl, [sp, #48]	; 0x30
 800740e:	4691      	mov	r9, r2
 8007410:	f023 0820 	bic.w	r8, r3, #32
 8007414:	bfbc      	itt	lt
 8007416:	4622      	movlt	r2, r4
 8007418:	4614      	movlt	r4, r2
 800741a:	f1b8 0f46 	cmp.w	r8, #70	; 0x46
 800741e:	d005      	beq.n	800742c <__cvt+0x42>
 8007420:	f1b8 0f45 	cmp.w	r8, #69	; 0x45
 8007424:	d100      	bne.n	8007428 <__cvt+0x3e>
 8007426:	3601      	adds	r6, #1
 8007428:	2102      	movs	r1, #2
 800742a:	e000      	b.n	800742e <__cvt+0x44>
 800742c:	2103      	movs	r1, #3
 800742e:	ab03      	add	r3, sp, #12
 8007430:	9301      	str	r3, [sp, #4]
 8007432:	ab02      	add	r3, sp, #8
 8007434:	9300      	str	r3, [sp, #0]
 8007436:	ec45 4b10 	vmov	d0, r4, r5
 800743a:	4653      	mov	r3, sl
 800743c:	4632      	mov	r2, r6
 800743e:	f000 fe87 	bl	8008150 <_dtoa_r>
 8007442:	f1b8 0f47 	cmp.w	r8, #71	; 0x47
 8007446:	4607      	mov	r7, r0
 8007448:	d102      	bne.n	8007450 <__cvt+0x66>
 800744a:	f019 0f01 	tst.w	r9, #1
 800744e:	d022      	beq.n	8007496 <__cvt+0xac>
 8007450:	f1b8 0f46 	cmp.w	r8, #70	; 0x46
 8007454:	eb07 0906 	add.w	r9, r7, r6
 8007458:	d110      	bne.n	800747c <__cvt+0x92>
 800745a:	783b      	ldrb	r3, [r7, #0]
 800745c:	2b30      	cmp	r3, #48	; 0x30
 800745e:	d10a      	bne.n	8007476 <__cvt+0x8c>
 8007460:	2200      	movs	r2, #0
 8007462:	2300      	movs	r3, #0
 8007464:	4620      	mov	r0, r4
 8007466:	4629      	mov	r1, r5
 8007468:	f7f9 fb4e 	bl	8000b08 <__aeabi_dcmpeq>
 800746c:	b918      	cbnz	r0, 8007476 <__cvt+0x8c>
 800746e:	f1c6 0601 	rsb	r6, r6, #1
 8007472:	f8ca 6000 	str.w	r6, [sl]
 8007476:	f8da 3000 	ldr.w	r3, [sl]
 800747a:	4499      	add	r9, r3
 800747c:	2200      	movs	r2, #0
 800747e:	2300      	movs	r3, #0
 8007480:	4620      	mov	r0, r4
 8007482:	4629      	mov	r1, r5
 8007484:	f7f9 fb40 	bl	8000b08 <__aeabi_dcmpeq>
 8007488:	b108      	cbz	r0, 800748e <__cvt+0xa4>
 800748a:	f8cd 900c 	str.w	r9, [sp, #12]
 800748e:	2230      	movs	r2, #48	; 0x30
 8007490:	9b03      	ldr	r3, [sp, #12]
 8007492:	454b      	cmp	r3, r9
 8007494:	d307      	bcc.n	80074a6 <__cvt+0xbc>
 8007496:	9b03      	ldr	r3, [sp, #12]
 8007498:	9a0e      	ldr	r2, [sp, #56]	; 0x38
 800749a:	1bdb      	subs	r3, r3, r7
 800749c:	4638      	mov	r0, r7
 800749e:	6013      	str	r3, [r2, #0]
 80074a0:	b004      	add	sp, #16
 80074a2:	e8bd 87f0 	ldmia.w	sp!, {r4, r5, r6, r7, r8, r9, sl, pc}
 80074a6:	1c59      	adds	r1, r3, #1
 80074a8:	9103      	str	r1, [sp, #12]
 80074aa:	701a      	strb	r2, [r3, #0]
 80074ac:	e7f0      	b.n	8007490 <__cvt+0xa6>

080074ae <__exponent>:
 80074ae:	b5f7      	push	{r0, r1, r2, r4, r5, r6, r7, lr}
 80074b0:	4603      	mov	r3, r0
 80074b2:	2900      	cmp	r1, #0
 80074b4:	bfb8      	it	lt
 80074b6:	4249      	neglt	r1, r1
 80074b8:	f803 2b02 	strb.w	r2, [r3], #2
 80074bc:	bfb4      	ite	lt
 80074be:	222d      	movlt	r2, #45	; 0x2d
 80074c0:	222b      	movge	r2, #43	; 0x2b
 80074c2:	2909      	cmp	r1, #9
 80074c4:	7042      	strb	r2, [r0, #1]
 80074c6:	dd2a      	ble.n	800751e <__exponent+0x70>
 80074c8:	f10d 0207 	add.w	r2, sp, #7
 80074cc:	4617      	mov	r7, r2
 80074ce:	260a      	movs	r6, #10
 80074d0:	4694      	mov	ip, r2
 80074d2:	fb91 f5f6 	sdiv	r5, r1, r6
 80074d6:	fb06 1415 	mls	r4, r6, r5, r1
 80074da:	3430      	adds	r4, #48	; 0x30
 80074dc:	f80c 4c01 	strb.w	r4, [ip, #-1]
 80074e0:	460c      	mov	r4, r1
 80074e2:	2c63      	cmp	r4, #99	; 0x63
 80074e4:	f102 32ff 	add.w	r2, r2, #4294967295
 80074e8:	4629      	mov	r1, r5
 80074ea:	dcf1      	bgt.n	80074d0 <__exponent+0x22>
 80074ec:	3130      	adds	r1, #48	; 0x30
 80074ee:	f1ac 0402 	sub.w	r4, ip, #2
 80074f2:	f802 1c01 	strb.w	r1, [r2, #-1]
 80074f6:	1c41      	adds	r1, r0, #1
 80074f8:	4622      	mov	r2, r4
 80074fa:	42ba      	cmp	r2, r7
 80074fc:	d30a      	bcc.n	8007514 <__exponent+0x66>
 80074fe:	f10d 0209 	add.w	r2, sp, #9
 8007502:	eba2 020c 	sub.w	r2, r2, ip
 8007506:	42bc      	cmp	r4, r7
 8007508:	bf88      	it	hi
 800750a:	2200      	movhi	r2, #0
 800750c:	4413      	add	r3, r2
 800750e:	1a18      	subs	r0, r3, r0
 8007510:	b003      	add	sp, #12
 8007512:	bdf0      	pop	{r4, r5, r6, r7, pc}
 8007514:	f812 5b01 	ldrb.w	r5, [r2], #1
 8007518:	f801 5f01 	strb.w	r5, [r1, #1]!
 800751c:	e7ed      	b.n	80074fa <__exponent+0x4c>
 800751e:	2330      	movs	r3, #48	; 0x30
 8007520:	3130      	adds	r1, #48	; 0x30
 8007522:	7083      	strb	r3, [r0, #2]
 8007524:	70c1      	strb	r1, [r0, #3]
 8007526:	1d03      	adds	r3, r0, #4
 8007528:	e7f1      	b.n	800750e <__exponent+0x60>
	...

0800752c <_printf_float>:
 800752c:	e92d 4ff0 	stmdb	sp!, {r4, r5, r6, r7, r8, r9, sl, fp, lr}
 8007530:	ed2d 8b02 	vpush	{d8}
 8007534:	b08d      	sub	sp, #52	; 0x34
 8007536:	460c      	mov	r4, r1
 8007538:	f8dd 8060 	ldr.w	r8, [sp, #96]	; 0x60
 800753c:	4616      	mov	r6, r2
 800753e:	461f      	mov	r7, r3
 8007540:	4605      	mov	r5, r0
 8007542:	f000 fce7 	bl	8007f14 <_localeconv_r>
 8007546:	f8d0 a000 	ldr.w	sl, [r0]
 800754a:	4650      	mov	r0, sl
 800754c:	f7f8 feb0 	bl	80002b0 <strlen>
 8007550:	2300      	movs	r3, #0
 8007552:	930a      	str	r3, [sp, #40]	; 0x28
 8007554:	6823      	ldr	r3, [r4, #0]
 8007556:	9305      	str	r3, [sp, #20]
 8007558:	f8d8 3000 	ldr.w	r3, [r8]
 800755c:	f894 b018 	ldrb.w	fp, [r4, #24]
 8007560:	3307      	adds	r3, #7
 8007562:	f023 0307 	bic.w	r3, r3, #7
 8007566:	f103 0208 	add.w	r2, r3, #8
 800756a:	f8c8 2000 	str.w	r2, [r8]
 800756e:	e9d3 8900 	ldrd	r8, r9, [r3]
 8007572:	f029 4300 	bic.w	r3, r9, #2147483648	; 0x80000000
 8007576:	9307      	str	r3, [sp, #28]
 8007578:	f8cd 8018 	str.w	r8, [sp, #24]
 800757c:	ee08 0a10 	vmov	s16, r0
 8007580:	e9c4 8912 	strd	r8, r9, [r4, #72]	; 0x48
 8007584:	e9dd 0106 	ldrd	r0, r1, [sp, #24]
 8007588:	4b9e      	ldr	r3, [pc, #632]	; (8007804 <_printf_float+0x2d8>)
 800758a:	f04f 32ff 	mov.w	r2, #4294967295
 800758e:	f7f9 faed 	bl	8000b6c <__aeabi_dcmpun>
 8007592:	bb88      	cbnz	r0, 80075f8 <_printf_float+0xcc>
 8007594:	e9dd 0106 	ldrd	r0, r1, [sp, #24]
 8007598:	4b9a      	ldr	r3, [pc, #616]	; (8007804 <_printf_float+0x2d8>)
 800759a:	f04f 32ff 	mov.w	r2, #4294967295
 800759e:	f7f9 fac7 	bl	8000b30 <__aeabi_dcmple>
 80075a2:	bb48      	cbnz	r0, 80075f8 <_printf_float+0xcc>
 80075a4:	2200      	movs	r2, #0
 80075a6:	2300      	movs	r3, #0
 80075a8:	4640      	mov	r0, r8
 80075aa:	4649      	mov	r1, r9
 80075ac:	f7f9 fab6 	bl	8000b1c <__aeabi_dcmplt>
 80075b0:	b110      	cbz	r0, 80075b8 <_printf_float+0x8c>
 80075b2:	232d      	movs	r3, #45	; 0x2d
 80075b4:	f884 3043 	strb.w	r3, [r4, #67]	; 0x43
 80075b8:	4a93      	ldr	r2, [pc, #588]	; (8007808 <_printf_float+0x2dc>)
 80075ba:	4b94      	ldr	r3, [pc, #592]	; (800780c <_printf_float+0x2e0>)
 80075bc:	f1bb 0f47 	cmp.w	fp, #71	; 0x47
 80075c0:	bf94      	ite	ls
 80075c2:	4690      	movls	r8, r2
 80075c4:	4698      	movhi	r8, r3
 80075c6:	2303      	movs	r3, #3
 80075c8:	6123      	str	r3, [r4, #16]
 80075ca:	9b05      	ldr	r3, [sp, #20]
 80075cc:	f023 0304 	bic.w	r3, r3, #4
 80075d0:	6023      	str	r3, [r4, #0]
 80075d2:	f04f 0900 	mov.w	r9, #0
 80075d6:	9700      	str	r7, [sp, #0]
 80075d8:	4633      	mov	r3, r6
 80075da:	aa0b      	add	r2, sp, #44	; 0x2c
 80075dc:	4621      	mov	r1, r4
 80075de:	4628      	mov	r0, r5
 80075e0:	f000 f9da 	bl	8007998 <_printf_common>
 80075e4:	3001      	adds	r0, #1
 80075e6:	f040 8090 	bne.w	800770a <_printf_float+0x1de>
 80075ea:	f04f 30ff 	mov.w	r0, #4294967295
 80075ee:	b00d      	add	sp, #52	; 0x34
 80075f0:	ecbd 8b02 	vpop	{d8}
 80075f4:	e8bd 8ff0 	ldmia.w	sp!, {r4, r5, r6, r7, r8, r9, sl, fp, pc}
 80075f8:	4642      	mov	r2, r8
 80075fa:	464b      	mov	r3, r9
 80075fc:	4640      	mov	r0, r8
 80075fe:	4649      	mov	r1, r9
 8007600:	f7f9 fab4 	bl	8000b6c <__aeabi_dcmpun>
 8007604:	b140      	cbz	r0, 8007618 <_printf_float+0xec>
 8007606:	464b      	mov	r3, r9
 8007608:	2b00      	cmp	r3, #0
 800760a:	bfbc      	itt	lt
 800760c:	232d      	movlt	r3, #45	; 0x2d
 800760e:	f884 3043 	strblt.w	r3, [r4, #67]	; 0x43
 8007612:	4a7f      	ldr	r2, [pc, #508]	; (8007810 <_printf_float+0x2e4>)
 8007614:	4b7f      	ldr	r3, [pc, #508]	; (8007814 <_printf_float+0x2e8>)
 8007616:	e7d1      	b.n	80075bc <_printf_float+0x90>
 8007618:	6863      	ldr	r3, [r4, #4]
 800761a:	f00b 02df 	and.w	r2, fp, #223	; 0xdf
 800761e:	9206      	str	r2, [sp, #24]
 8007620:	1c5a      	adds	r2, r3, #1
 8007622:	d13f      	bne.n	80076a4 <_printf_float+0x178>
 8007624:	2306      	movs	r3, #6
 8007626:	6063      	str	r3, [r4, #4]
 8007628:	9b05      	ldr	r3, [sp, #20]
 800762a:	6861      	ldr	r1, [r4, #4]
 800762c:	f443 6280 	orr.w	r2, r3, #1024	; 0x400
 8007630:	2300      	movs	r3, #0
 8007632:	9303      	str	r3, [sp, #12]
 8007634:	ab0a      	add	r3, sp, #40	; 0x28
 8007636:	e9cd b301 	strd	fp, r3, [sp, #4]
 800763a:	ab09      	add	r3, sp, #36	; 0x24
 800763c:	ec49 8b10 	vmov	d0, r8, r9
 8007640:	9300      	str	r3, [sp, #0]
 8007642:	6022      	str	r2, [r4, #0]
 8007644:	f10d 0323 	add.w	r3, sp, #35	; 0x23
 8007648:	4628      	mov	r0, r5
 800764a:	f7ff fece 	bl	80073ea <__cvt>
 800764e:	9b06      	ldr	r3, [sp, #24]
 8007650:	9909      	ldr	r1, [sp, #36]	; 0x24
 8007652:	2b47      	cmp	r3, #71	; 0x47
 8007654:	4680      	mov	r8, r0
 8007656:	d108      	bne.n	800766a <_printf_float+0x13e>
 8007658:	1cc8      	adds	r0, r1, #3
 800765a:	db02      	blt.n	8007662 <_printf_float+0x136>
 800765c:	6863      	ldr	r3, [r4, #4]
 800765e:	4299      	cmp	r1, r3
 8007660:	dd41      	ble.n	80076e6 <_printf_float+0x1ba>
 8007662:	f1ab 0302 	sub.w	r3, fp, #2
 8007666:	fa5f fb83 	uxtb.w	fp, r3
 800766a:	f1bb 0f65 	cmp.w	fp, #101	; 0x65
 800766e:	d820      	bhi.n	80076b2 <_printf_float+0x186>
 8007670:	3901      	subs	r1, #1
 8007672:	465a      	mov	r2, fp
 8007674:	f104 0050 	add.w	r0, r4, #80	; 0x50
 8007678:	9109      	str	r1, [sp, #36]	; 0x24
 800767a:	f7ff ff18 	bl	80074ae <__exponent>
 800767e:	9a0a      	ldr	r2, [sp, #40]	; 0x28
 8007680:	1813      	adds	r3, r2, r0
 8007682:	2a01      	cmp	r2, #1
 8007684:	4681      	mov	r9, r0
 8007686:	6123      	str	r3, [r4, #16]
 8007688:	dc02      	bgt.n	8007690 <_printf_float+0x164>
 800768a:	6822      	ldr	r2, [r4, #0]
 800768c:	07d2      	lsls	r2, r2, #31
 800768e:	d501      	bpl.n	8007694 <_printf_float+0x168>
 8007690:	3301      	adds	r3, #1
 8007692:	6123      	str	r3, [r4, #16]
 8007694:	f89d 3023 	ldrb.w	r3, [sp, #35]	; 0x23
 8007698:	2b00      	cmp	r3, #0
 800769a:	d09c      	beq.n	80075d6 <_printf_float+0xaa>
 800769c:	232d      	movs	r3, #45	; 0x2d
 800769e:	f884 3043 	strb.w	r3, [r4, #67]	; 0x43
 80076a2:	e798      	b.n	80075d6 <_printf_float+0xaa>
 80076a4:	9a06      	ldr	r2, [sp, #24]
 80076a6:	2a47      	cmp	r2, #71	; 0x47
 80076a8:	d1be      	bne.n	8007628 <_printf_float+0xfc>
 80076aa:	2b00      	cmp	r3, #0
 80076ac:	d1bc      	bne.n	8007628 <_printf_float+0xfc>
 80076ae:	2301      	movs	r3, #1
 80076b0:	e7b9      	b.n	8007626 <_printf_float+0xfa>
 80076b2:	f1bb 0f66 	cmp.w	fp, #102	; 0x66
 80076b6:	d118      	bne.n	80076ea <_printf_float+0x1be>
 80076b8:	2900      	cmp	r1, #0
 80076ba:	6863      	ldr	r3, [r4, #4]
 80076bc:	dd0b      	ble.n	80076d6 <_printf_float+0x1aa>
 80076be:	6121      	str	r1, [r4, #16]
 80076c0:	b913      	cbnz	r3, 80076c8 <_printf_float+0x19c>
 80076c2:	6822      	ldr	r2, [r4, #0]
 80076c4:	07d0      	lsls	r0, r2, #31
 80076c6:	d502      	bpl.n	80076ce <_printf_float+0x1a2>
 80076c8:	3301      	adds	r3, #1
 80076ca:	440b      	add	r3, r1
 80076cc:	6123      	str	r3, [r4, #16]
 80076ce:	65a1      	str	r1, [r4, #88]	; 0x58
 80076d0:	f04f 0900 	mov.w	r9, #0
 80076d4:	e7de      	b.n	8007694 <_printf_float+0x168>
 80076d6:	b913      	cbnz	r3, 80076de <_printf_float+0x1b2>
 80076d8:	6822      	ldr	r2, [r4, #0]
 80076da:	07d2      	lsls	r2, r2, #31
 80076dc:	d501      	bpl.n	80076e2 <_printf_float+0x1b6>
 80076de:	3302      	adds	r3, #2
 80076e0:	e7f4      	b.n	80076cc <_printf_float+0x1a0>
 80076e2:	2301      	movs	r3, #1
 80076e4:	e7f2      	b.n	80076cc <_printf_float+0x1a0>
 80076e6:	f04f 0b67 	mov.w	fp, #103	; 0x67
 80076ea:	9b0a      	ldr	r3, [sp, #40]	; 0x28
 80076ec:	4299      	cmp	r1, r3
 80076ee:	db05      	blt.n	80076fc <_printf_float+0x1d0>
 80076f0:	6823      	ldr	r3, [r4, #0]
 80076f2:	6121      	str	r1, [r4, #16]
 80076f4:	07d8      	lsls	r0, r3, #31
 80076f6:	d5ea      	bpl.n	80076ce <_printf_float+0x1a2>
 80076f8:	1c4b      	adds	r3, r1, #1
 80076fa:	e7e7      	b.n	80076cc <_printf_float+0x1a0>
 80076fc:	2900      	cmp	r1, #0
 80076fe:	bfd4      	ite	le
 8007700:	f1c1 0202 	rsble	r2, r1, #2
 8007704:	2201      	movgt	r2, #1
 8007706:	4413      	add	r3, r2
 8007708:	e7e0      	b.n	80076cc <_printf_float+0x1a0>
 800770a:	6823      	ldr	r3, [r4, #0]
 800770c:	055a      	lsls	r2, r3, #21
 800770e:	d407      	bmi.n	8007720 <_printf_float+0x1f4>
 8007710:	6923      	ldr	r3, [r4, #16]
 8007712:	4642      	mov	r2, r8
 8007714:	4631      	mov	r1, r6
 8007716:	4628      	mov	r0, r5
 8007718:	47b8      	blx	r7
 800771a:	3001      	adds	r0, #1
 800771c:	d12c      	bne.n	8007778 <_printf_float+0x24c>
 800771e:	e764      	b.n	80075ea <_printf_float+0xbe>
 8007720:	f1bb 0f65 	cmp.w	fp, #101	; 0x65
 8007724:	f240 80e0 	bls.w	80078e8 <_printf_float+0x3bc>
 8007728:	e9d4 0112 	ldrd	r0, r1, [r4, #72]	; 0x48
 800772c:	2200      	movs	r2, #0
 800772e:	2300      	movs	r3, #0
 8007730:	f7f9 f9ea 	bl	8000b08 <__aeabi_dcmpeq>
 8007734:	2800      	cmp	r0, #0
 8007736:	d034      	beq.n	80077a2 <_printf_float+0x276>
 8007738:	4a37      	ldr	r2, [pc, #220]	; (8007818 <_printf_float+0x2ec>)
 800773a:	2301      	movs	r3, #1
 800773c:	4631      	mov	r1, r6
 800773e:	4628      	mov	r0, r5
 8007740:	47b8      	blx	r7
 8007742:	3001      	adds	r0, #1
 8007744:	f43f af51 	beq.w	80075ea <_printf_float+0xbe>
 8007748:	e9dd 2309 	ldrd	r2, r3, [sp, #36]	; 0x24
 800774c:	429a      	cmp	r2, r3
 800774e:	db02      	blt.n	8007756 <_printf_float+0x22a>
 8007750:	6823      	ldr	r3, [r4, #0]
 8007752:	07d8      	lsls	r0, r3, #31
 8007754:	d510      	bpl.n	8007778 <_printf_float+0x24c>
 8007756:	ee18 3a10 	vmov	r3, s16
 800775a:	4652      	mov	r2, sl
 800775c:	4631      	mov	r1, r6
 800775e:	4628      	mov	r0, r5
 8007760:	47b8      	blx	r7
 8007762:	3001      	adds	r0, #1
 8007764:	f43f af41 	beq.w	80075ea <_printf_float+0xbe>
 8007768:	f04f 0800 	mov.w	r8, #0
 800776c:	f104 091a 	add.w	r9, r4, #26
 8007770:	9b0a      	ldr	r3, [sp, #40]	; 0x28
 8007772:	3b01      	subs	r3, #1
 8007774:	4543      	cmp	r3, r8
 8007776:	dc09      	bgt.n	800778c <_printf_float+0x260>
 8007778:	6823      	ldr	r3, [r4, #0]
 800777a:	079b      	lsls	r3, r3, #30
 800777c:	f100 8107 	bmi.w	800798e <_printf_float+0x462>
 8007780:	68e0      	ldr	r0, [r4, #12]
 8007782:	9b0b      	ldr	r3, [sp, #44]	; 0x2c
 8007784:	4298      	cmp	r0, r3
 8007786:	bfb8      	it	lt
 8007788:	4618      	movlt	r0, r3
 800778a:	e730      	b.n	80075ee <_printf_float+0xc2>
 800778c:	2301      	movs	r3, #1
 800778e:	464a      	mov	r2, r9
 8007790:	4631      	mov	r1, r6
 8007792:	4628      	mov	r0, r5
 8007794:	47b8      	blx	r7
 8007796:	3001      	adds	r0, #1
 8007798:	f43f af27 	beq.w	80075ea <_printf_float+0xbe>
 800779c:	f108 0801 	add.w	r8, r8, #1
 80077a0:	e7e6      	b.n	8007770 <_printf_float+0x244>
 80077a2:	9b09      	ldr	r3, [sp, #36]	; 0x24
 80077a4:	2b00      	cmp	r3, #0
 80077a6:	dc39      	bgt.n	800781c <_printf_float+0x2f0>
 80077a8:	4a1b      	ldr	r2, [pc, #108]	; (8007818 <_printf_float+0x2ec>)
 80077aa:	2301      	movs	r3, #1
 80077ac:	4631      	mov	r1, r6
 80077ae:	4628      	mov	r0, r5
 80077b0:	47b8      	blx	r7
 80077b2:	3001      	adds	r0, #1
 80077b4:	f43f af19 	beq.w	80075ea <_printf_float+0xbe>
 80077b8:	e9dd 3209 	ldrd	r3, r2, [sp, #36]	; 0x24
 80077bc:	4313      	orrs	r3, r2
 80077be:	d102      	bne.n	80077c6 <_printf_float+0x29a>
 80077c0:	6823      	ldr	r3, [r4, #0]
 80077c2:	07d9      	lsls	r1, r3, #31
 80077c4:	d5d8      	bpl.n	8007778 <_printf_float+0x24c>
 80077c6:	ee18 3a10 	vmov	r3, s16
 80077ca:	4652      	mov	r2, sl
 80077cc:	4631      	mov	r1, r6
 80077ce:	4628      	mov	r0, r5
 80077d0:	47b8      	blx	r7
 80077d2:	3001      	adds	r0, #1
 80077d4:	f43f af09 	beq.w	80075ea <_printf_float+0xbe>
 80077d8:	f04f 0900 	mov.w	r9, #0
 80077dc:	f104 0a1a 	add.w	sl, r4, #26
 80077e0:	9b09      	ldr	r3, [sp, #36]	; 0x24
 80077e2:	425b      	negs	r3, r3
 80077e4:	454b      	cmp	r3, r9
 80077e6:	dc01      	bgt.n	80077ec <_printf_float+0x2c0>
 80077e8:	9b0a      	ldr	r3, [sp, #40]	; 0x28
 80077ea:	e792      	b.n	8007712 <_printf_float+0x1e6>
 80077ec:	2301      	movs	r3, #1
 80077ee:	4652      	mov	r2, sl
 80077f0:	4631      	mov	r1, r6
 80077f2:	4628      	mov	r0, r5
 80077f4:	47b8      	blx	r7
 80077f6:	3001      	adds	r0, #1
 80077f8:	f43f aef7 	beq.w	80075ea <_printf_float+0xbe>
 80077fc:	f109 0901 	add.w	r9, r9, #1
 8007800:	e7ee      	b.n	80077e0 <_printf_float+0x2b4>
 8007802:	bf00      	nop
 8007804:	7fefffff 	.word	0x7fefffff
 8007808:	0803d240 	.word	0x0803d240
 800780c:	0803d244 	.word	0x0803d244
 8007810:	0803d248 	.word	0x0803d248
 8007814:	0803d24c 	.word	0x0803d24c
 8007818:	0800aab1 	.word	0x0800aab1
 800781c:	9a0a      	ldr	r2, [sp, #40]	; 0x28
 800781e:	6da3      	ldr	r3, [r4, #88]	; 0x58
 8007820:	429a      	cmp	r2, r3
 8007822:	bfa8      	it	ge
 8007824:	461a      	movge	r2, r3
 8007826:	2a00      	cmp	r2, #0
 8007828:	4691      	mov	r9, r2
 800782a:	dc37      	bgt.n	800789c <_printf_float+0x370>
 800782c:	f04f 0b00 	mov.w	fp, #0
 8007830:	ea29 79e9 	bic.w	r9, r9, r9, asr #31
 8007834:	f104 021a 	add.w	r2, r4, #26
 8007838:	6da3      	ldr	r3, [r4, #88]	; 0x58
 800783a:	9305      	str	r3, [sp, #20]
 800783c:	eba3 0309 	sub.w	r3, r3, r9
 8007840:	455b      	cmp	r3, fp
 8007842:	dc33      	bgt.n	80078ac <_printf_float+0x380>
 8007844:	e9dd 2309 	ldrd	r2, r3, [sp, #36]	; 0x24
 8007848:	429a      	cmp	r2, r3
 800784a:	db3b      	blt.n	80078c4 <_printf_float+0x398>
 800784c:	6823      	ldr	r3, [r4, #0]
 800784e:	07da      	lsls	r2, r3, #31
 8007850:	d438      	bmi.n	80078c4 <_printf_float+0x398>
 8007852:	e9dd 3209 	ldrd	r3, r2, [sp, #36]	; 0x24
 8007856:	eba2 0903 	sub.w	r9, r2, r3
 800785a:	9b05      	ldr	r3, [sp, #20]
 800785c:	1ad2      	subs	r2, r2, r3
 800785e:	4591      	cmp	r9, r2
 8007860:	bfa8      	it	ge
 8007862:	4691      	movge	r9, r2
 8007864:	f1b9 0f00 	cmp.w	r9, #0
 8007868:	dc35      	bgt.n	80078d6 <_printf_float+0x3aa>
 800786a:	f04f 0800 	mov.w	r8, #0
 800786e:	ea29 79e9 	bic.w	r9, r9, r9, asr #31
 8007872:	f104 0a1a 	add.w	sl, r4, #26
 8007876:	e9dd 2309 	ldrd	r2, r3, [sp, #36]	; 0x24
 800787a:	1a9b      	subs	r3, r3, r2
 800787c:	eba3 0309 	sub.w	r3, r3, r9
 8007880:	4543      	cmp	r3, r8
 8007882:	f77f af79 	ble.w	8007778 <_printf_float+0x24c>
 8007886:	2301      	movs	r3, #1
 8007888:	4652      	mov	r2, sl
 800788a:	4631      	mov	r1, r6
 800788c:	4628      	mov	r0, r5
 800788e:	47b8      	blx	r7
 8007890:	3001      	adds	r0, #1
 8007892:	f43f aeaa 	beq.w	80075ea <_printf_float+0xbe>
 8007896:	f108 0801 	add.w	r8, r8, #1
 800789a:	e7ec      	b.n	8007876 <_printf_float+0x34a>
 800789c:	4613      	mov	r3, r2
 800789e:	4631      	mov	r1, r6
 80078a0:	4642      	mov	r2, r8
 80078a2:	4628      	mov	r0, r5
 80078a4:	47b8      	blx	r7
 80078a6:	3001      	adds	r0, #1
 80078a8:	d1c0      	bne.n	800782c <_printf_float+0x300>
 80078aa:	e69e      	b.n	80075ea <_printf_float+0xbe>
 80078ac:	2301      	movs	r3, #1
 80078ae:	4631      	mov	r1, r6
 80078b0:	4628      	mov	r0, r5
 80078b2:	9205      	str	r2, [sp, #20]
 80078b4:	47b8      	blx	r7
 80078b6:	3001      	adds	r0, #1
 80078b8:	f43f ae97 	beq.w	80075ea <_printf_float+0xbe>
 80078bc:	9a05      	ldr	r2, [sp, #20]
 80078be:	f10b 0b01 	add.w	fp, fp, #1
 80078c2:	e7b9      	b.n	8007838 <_printf_float+0x30c>
 80078c4:	ee18 3a10 	vmov	r3, s16
 80078c8:	4652      	mov	r2, sl
 80078ca:	4631      	mov	r1, r6
 80078cc:	4628      	mov	r0, r5
 80078ce:	47b8      	blx	r7
 80078d0:	3001      	adds	r0, #1
 80078d2:	d1be      	bne.n	8007852 <_printf_float+0x326>
 80078d4:	e689      	b.n	80075ea <_printf_float+0xbe>
 80078d6:	9a05      	ldr	r2, [sp, #20]
 80078d8:	464b      	mov	r3, r9
 80078da:	4442      	add	r2, r8
 80078dc:	4631      	mov	r1, r6
 80078de:	4628      	mov	r0, r5
 80078e0:	47b8      	blx	r7
 80078e2:	3001      	adds	r0, #1
 80078e4:	d1c1      	bne.n	800786a <_printf_float+0x33e>
 80078e6:	e680      	b.n	80075ea <_printf_float+0xbe>
 80078e8:	9a0a      	ldr	r2, [sp, #40]	; 0x28
 80078ea:	2a01      	cmp	r2, #1
 80078ec:	dc01      	bgt.n	80078f2 <_printf_float+0x3c6>
 80078ee:	07db      	lsls	r3, r3, #31
 80078f0:	d53a      	bpl.n	8007968 <_printf_float+0x43c>
 80078f2:	2301      	movs	r3, #1
 80078f4:	4642      	mov	r2, r8
 80078f6:	4631      	mov	r1, r6
 80078f8:	4628      	mov	r0, r5
 80078fa:	47b8      	blx	r7
 80078fc:	3001      	adds	r0, #1
 80078fe:	f43f ae74 	beq.w	80075ea <_printf_float+0xbe>
 8007902:	ee18 3a10 	vmov	r3, s16
 8007906:	4652      	mov	r2, sl
 8007908:	4631      	mov	r1, r6
 800790a:	4628      	mov	r0, r5
 800790c:	47b8      	blx	r7
 800790e:	3001      	adds	r0, #1
 8007910:	f43f ae6b 	beq.w	80075ea <_printf_float+0xbe>
 8007914:	e9d4 0112 	ldrd	r0, r1, [r4, #72]	; 0x48
 8007918:	2200      	movs	r2, #0
 800791a:	2300      	movs	r3, #0
 800791c:	f8dd a028 	ldr.w	sl, [sp, #40]	; 0x28
 8007920:	f7f9 f8f2 	bl	8000b08 <__aeabi_dcmpeq>
 8007924:	b9d8      	cbnz	r0, 800795e <_printf_float+0x432>
 8007926:	f10a 33ff 	add.w	r3, sl, #4294967295
 800792a:	f108 0201 	add.w	r2, r8, #1
 800792e:	4631      	mov	r1, r6
 8007930:	4628      	mov	r0, r5
 8007932:	47b8      	blx	r7
 8007934:	3001      	adds	r0, #1
 8007936:	d10e      	bne.n	8007956 <_printf_float+0x42a>
 8007938:	e657      	b.n	80075ea <_printf_float+0xbe>
 800793a:	2301      	movs	r3, #1
 800793c:	4652      	mov	r2, sl
 800793e:	4631      	mov	r1, r6
 8007940:	4628      	mov	r0, r5
 8007942:	47b8      	blx	r7
 8007944:	3001      	adds	r0, #1
 8007946:	f43f ae50 	beq.w	80075ea <_printf_float+0xbe>
 800794a:	f108 0801 	add.w	r8, r8, #1
 800794e:	9b0a      	ldr	r3, [sp, #40]	; 0x28
 8007950:	3b01      	subs	r3, #1
 8007952:	4543      	cmp	r3, r8
 8007954:	dcf1      	bgt.n	800793a <_printf_float+0x40e>
 8007956:	464b      	mov	r3, r9
 8007958:	f104 0250 	add.w	r2, r4, #80	; 0x50
 800795c:	e6da      	b.n	8007714 <_printf_float+0x1e8>
 800795e:	f04f 0800 	mov.w	r8, #0
 8007962:	f104 0a1a 	add.w	sl, r4, #26
 8007966:	e7f2      	b.n	800794e <_printf_float+0x422>
 8007968:	2301      	movs	r3, #1
 800796a:	4642      	mov	r2, r8
 800796c:	e7df      	b.n	800792e <_printf_float+0x402>
 800796e:	2301      	movs	r3, #1
 8007970:	464a      	mov	r2, r9
 8007972:	4631      	mov	r1, r6
 8007974:	4628      	mov	r0, r5
 8007976:	47b8      	blx	r7
 8007978:	3001      	adds	r0, #1
 800797a:	f43f ae36 	beq.w	80075ea <_printf_float+0xbe>
 800797e:	f108 0801 	add.w	r8, r8, #1
 8007982:	68e3      	ldr	r3, [r4, #12]
 8007984:	990b      	ldr	r1, [sp, #44]	; 0x2c
 8007986:	1a5b      	subs	r3, r3, r1
 8007988:	4543      	cmp	r3, r8
 800798a:	dcf0      	bgt.n	800796e <_printf_float+0x442>
 800798c:	e6f8      	b.n	8007780 <_printf_float+0x254>
 800798e:	f04f 0800 	mov.w	r8, #0
 8007992:	f104 0919 	add.w	r9, r4, #25
 8007996:	e7f4      	b.n	8007982 <_printf_float+0x456>

08007998 <_printf_common>:
 8007998:	e92d 47f0 	stmdb	sp!, {r4, r5, r6, r7, r8, r9, sl, lr}
 800799c:	4616      	mov	r6, r2
 800799e:	4699      	mov	r9, r3
 80079a0:	688a      	ldr	r2, [r1, #8]
 80079a2:	690b      	ldr	r3, [r1, #16]
 80079a4:	f8dd 8020 	ldr.w	r8, [sp, #32]
 80079a8:	4293      	cmp	r3, r2
 80079aa:	bfb8      	it	lt
 80079ac:	4613      	movlt	r3, r2
 80079ae:	6033      	str	r3, [r6, #0]
 80079b0:	f891 2043 	ldrb.w	r2, [r1, #67]	; 0x43
 80079b4:	4607      	mov	r7, r0
 80079b6:	460c      	mov	r4, r1
 80079b8:	b10a      	cbz	r2, 80079be <_printf_common+0x26>
 80079ba:	3301      	adds	r3, #1
 80079bc:	6033      	str	r3, [r6, #0]
 80079be:	6823      	ldr	r3, [r4, #0]
 80079c0:	0699      	lsls	r1, r3, #26
 80079c2:	bf42      	ittt	mi
 80079c4:	6833      	ldrmi	r3, [r6, #0]
 80079c6:	3302      	addmi	r3, #2
 80079c8:	6033      	strmi	r3, [r6, #0]
 80079ca:	6825      	ldr	r5, [r4, #0]
 80079cc:	f015 0506 	ands.w	r5, r5, #6
 80079d0:	d106      	bne.n	80079e0 <_printf_common+0x48>
 80079d2:	f104 0a19 	add.w	sl, r4, #25
 80079d6:	68e3      	ldr	r3, [r4, #12]
 80079d8:	6832      	ldr	r2, [r6, #0]
 80079da:	1a9b      	subs	r3, r3, r2
 80079dc:	42ab      	cmp	r3, r5
 80079de:	dc26      	bgt.n	8007a2e <_printf_common+0x96>
 80079e0:	f894 2043 	ldrb.w	r2, [r4, #67]	; 0x43
 80079e4:	1e13      	subs	r3, r2, #0
 80079e6:	6822      	ldr	r2, [r4, #0]
 80079e8:	bf18      	it	ne
 80079ea:	2301      	movne	r3, #1
 80079ec:	0692      	lsls	r2, r2, #26
 80079ee:	d42b      	bmi.n	8007a48 <_printf_common+0xb0>
 80079f0:	f104 0243 	add.w	r2, r4, #67	; 0x43
 80079f4:	4649      	mov	r1, r9
 80079f6:	4638      	mov	r0, r7
 80079f8:	47c0      	blx	r8
 80079fa:	3001      	adds	r0, #1
 80079fc:	d01e      	beq.n	8007a3c <_printf_common+0xa4>
 80079fe:	6823      	ldr	r3, [r4, #0]
 8007a00:	6922      	ldr	r2, [r4, #16]
 8007a02:	f003 0306 	and.w	r3, r3, #6
 8007a06:	2b04      	cmp	r3, #4
 8007a08:	bf02      	ittt	eq
 8007a0a:	68e5      	ldreq	r5, [r4, #12]
 8007a0c:	6833      	ldreq	r3, [r6, #0]
 8007a0e:	1aed      	subeq	r5, r5, r3
 8007a10:	68a3      	ldr	r3, [r4, #8]
 8007a12:	bf0c      	ite	eq
 8007a14:	ea25 75e5 	biceq.w	r5, r5, r5, asr #31
 8007a18:	2500      	movne	r5, #0
 8007a1a:	4293      	cmp	r3, r2
 8007a1c:	bfc4      	itt	gt
 8007a1e:	1a9b      	subgt	r3, r3, r2
 8007a20:	18ed      	addgt	r5, r5, r3
 8007a22:	2600      	movs	r6, #0
 8007a24:	341a      	adds	r4, #26
 8007a26:	42b5      	cmp	r5, r6
 8007a28:	d11a      	bne.n	8007a60 <_printf_common+0xc8>
 8007a2a:	2000      	movs	r0, #0
 8007a2c:	e008      	b.n	8007a40 <_printf_common+0xa8>
 8007a2e:	2301      	movs	r3, #1
 8007a30:	4652      	mov	r2, sl
 8007a32:	4649      	mov	r1, r9
 8007a34:	4638      	mov	r0, r7
 8007a36:	47c0      	blx	r8
 8007a38:	3001      	adds	r0, #1
 8007a3a:	d103      	bne.n	8007a44 <_printf_common+0xac>
 8007a3c:	f04f 30ff 	mov.w	r0, #4294967295
 8007a40:	e8bd 87f0 	ldmia.w	sp!, {r4, r5, r6, r7, r8, r9, sl, pc}
 8007a44:	3501      	adds	r5, #1
 8007a46:	e7c6      	b.n	80079d6 <_printf_common+0x3e>
 8007a48:	18e1      	adds	r1, r4, r3
 8007a4a:	1c5a      	adds	r2, r3, #1
 8007a4c:	2030      	movs	r0, #48	; 0x30
 8007a4e:	f881 0043 	strb.w	r0, [r1, #67]	; 0x43
 8007a52:	4422      	add	r2, r4
 8007a54:	f894 1045 	ldrb.w	r1, [r4, #69]	; 0x45
 8007a58:	f882 1043 	strb.w	r1, [r2, #67]	; 0x43
 8007a5c:	3302      	adds	r3, #2
 8007a5e:	e7c7      	b.n	80079f0 <_printf_common+0x58>
 8007a60:	2301      	movs	r3, #1
 8007a62:	4622      	mov	r2, r4
 8007a64:	4649      	mov	r1, r9
 8007a66:	4638      	mov	r0, r7
 8007a68:	47c0      	blx	r8
 8007a6a:	3001      	adds	r0, #1
 8007a6c:	d0e6      	beq.n	8007a3c <_printf_common+0xa4>
 8007a6e:	3601      	adds	r6, #1
 8007a70:	e7d9      	b.n	8007a26 <_printf_common+0x8e>
	...

08007a74 <_printf_i>:
 8007a74:	e92d 47ff 	stmdb	sp!, {r0, r1, r2, r3, r4, r5, r6, r7, r8, r9, sl, lr}
 8007a78:	7e0f      	ldrb	r7, [r1, #24]
 8007a7a:	9d0c      	ldr	r5, [sp, #48]	; 0x30
 8007a7c:	2f78      	cmp	r7, #120	; 0x78
 8007a7e:	4691      	mov	r9, r2
 8007a80:	4680      	mov	r8, r0
 8007a82:	460c      	mov	r4, r1
 8007a84:	469a      	mov	sl, r3
 8007a86:	f101 0243 	add.w	r2, r1, #67	; 0x43
 8007a8a:	d807      	bhi.n	8007a9c <_printf_i+0x28>
 8007a8c:	2f62      	cmp	r7, #98	; 0x62
 8007a8e:	d80a      	bhi.n	8007aa6 <_printf_i+0x32>
 8007a90:	2f00      	cmp	r7, #0
 8007a92:	f000 80d4 	beq.w	8007c3e <_printf_i+0x1ca>
 8007a96:	2f58      	cmp	r7, #88	; 0x58
 8007a98:	f000 80c0 	beq.w	8007c1c <_printf_i+0x1a8>
 8007a9c:	f104 0542 	add.w	r5, r4, #66	; 0x42
 8007aa0:	f884 7042 	strb.w	r7, [r4, #66]	; 0x42
 8007aa4:	e03a      	b.n	8007b1c <_printf_i+0xa8>
 8007aa6:	f1a7 0363 	sub.w	r3, r7, #99	; 0x63
 8007aaa:	2b15      	cmp	r3, #21
 8007aac:	d8f6      	bhi.n	8007a9c <_printf_i+0x28>
 8007aae:	a101      	add	r1, pc, #4	; (adr r1, 8007ab4 <_printf_i+0x40>)
 8007ab0:	f851 f023 	ldr.w	pc, [r1, r3, lsl #2]
 8007ab4:	08007b0d 	.word	0x08007b0d
 8007ab8:	08007b21 	.word	0x08007b21
 8007abc:	08007a9d 	.word	0x08007a9d
 8007ac0:	08007a9d 	.word	0x08007a9d
 8007ac4:	08007a9d 	.word	0x08007a9d
 8007ac8:	08007a9d 	.word	0x08007a9d
 8007acc:	08007b21 	.word	0x08007b21
 8007ad0:	08007a9d 	.word	0x08007a9d
 8007ad4:	08007a9d 	.word	0x08007a9d
 8007ad8:	08007a9d 	.word	0x08007a9d
 8007adc:	08007a9d 	.word	0x08007a9d
 8007ae0:	08007c25 	.word	0x08007c25
 8007ae4:	08007b4d 	.word	0x08007b4d
 8007ae8:	08007bdf 	.word	0x08007bdf
 8007aec:	08007a9d 	.word	0x08007a9d
 8007af0:	08007a9d 	.word	0x08007a9d
 8007af4:	08007c47 	.word	0x08007c47
 8007af8:	08007a9d 	.word	0x08007a9d
 8007afc:	08007b4d 	.word	0x08007b4d
 8007b00:	08007a9d 	.word	0x08007a9d
 8007b04:	08007a9d 	.word	0x08007a9d
 8007b08:	08007be7 	.word	0x08007be7
 8007b0c:	682b      	ldr	r3, [r5, #0]
 8007b0e:	1d1a      	adds	r2, r3, #4
 8007b10:	681b      	ldr	r3, [r3, #0]
 8007b12:	602a      	str	r2, [r5, #0]
 8007b14:	f104 0542 	add.w	r5, r4, #66	; 0x42
 8007b18:	f884 3042 	strb.w	r3, [r4, #66]	; 0x42
 8007b1c:	2301      	movs	r3, #1
 8007b1e:	e09f      	b.n	8007c60 <_printf_i+0x1ec>
 8007b20:	6820      	ldr	r0, [r4, #0]
 8007b22:	682b      	ldr	r3, [r5, #0]
 8007b24:	0607      	lsls	r7, r0, #24
 8007b26:	f103 0104 	add.w	r1, r3, #4
 8007b2a:	6029      	str	r1, [r5, #0]
 8007b2c:	d501      	bpl.n	8007b32 <_printf_i+0xbe>
 8007b2e:	681e      	ldr	r6, [r3, #0]
 8007b30:	e003      	b.n	8007b3a <_printf_i+0xc6>
 8007b32:	0646      	lsls	r6, r0, #25
 8007b34:	d5fb      	bpl.n	8007b2e <_printf_i+0xba>
 8007b36:	f9b3 6000 	ldrsh.w	r6, [r3]
 8007b3a:	2e00      	cmp	r6, #0
 8007b3c:	da03      	bge.n	8007b46 <_printf_i+0xd2>
 8007b3e:	232d      	movs	r3, #45	; 0x2d
 8007b40:	4276      	negs	r6, r6
 8007b42:	f884 3043 	strb.w	r3, [r4, #67]	; 0x43
 8007b46:	485a      	ldr	r0, [pc, #360]	; (8007cb0 <_printf_i+0x23c>)
 8007b48:	230a      	movs	r3, #10
 8007b4a:	e012      	b.n	8007b72 <_printf_i+0xfe>
 8007b4c:	682b      	ldr	r3, [r5, #0]
 8007b4e:	6820      	ldr	r0, [r4, #0]
 8007b50:	1d19      	adds	r1, r3, #4
 8007b52:	6029      	str	r1, [r5, #0]
 8007b54:	0605      	lsls	r5, r0, #24
 8007b56:	d501      	bpl.n	8007b5c <_printf_i+0xe8>
 8007b58:	681e      	ldr	r6, [r3, #0]
 8007b5a:	e002      	b.n	8007b62 <_printf_i+0xee>
 8007b5c:	0641      	lsls	r1, r0, #25
 8007b5e:	d5fb      	bpl.n	8007b58 <_printf_i+0xe4>
 8007b60:	881e      	ldrh	r6, [r3, #0]
 8007b62:	4853      	ldr	r0, [pc, #332]	; (8007cb0 <_printf_i+0x23c>)
 8007b64:	2f6f      	cmp	r7, #111	; 0x6f
 8007b66:	bf0c      	ite	eq
 8007b68:	2308      	moveq	r3, #8
 8007b6a:	230a      	movne	r3, #10
 8007b6c:	2100      	movs	r1, #0
 8007b6e:	f884 1043 	strb.w	r1, [r4, #67]	; 0x43
 8007b72:	6865      	ldr	r5, [r4, #4]
 8007b74:	60a5      	str	r5, [r4, #8]
 8007b76:	2d00      	cmp	r5, #0
 8007b78:	bfa2      	ittt	ge
 8007b7a:	6821      	ldrge	r1, [r4, #0]
 8007b7c:	f021 0104 	bicge.w	r1, r1, #4
 8007b80:	6021      	strge	r1, [r4, #0]
 8007b82:	b90e      	cbnz	r6, 8007b88 <_printf_i+0x114>
 8007b84:	2d00      	cmp	r5, #0
 8007b86:	d04b      	beq.n	8007c20 <_printf_i+0x1ac>
 8007b88:	4615      	mov	r5, r2
 8007b8a:	fbb6 f1f3 	udiv	r1, r6, r3
 8007b8e:	fb03 6711 	mls	r7, r3, r1, r6
 8007b92:	5dc7      	ldrb	r7, [r0, r7]
 8007b94:	f805 7d01 	strb.w	r7, [r5, #-1]!
 8007b98:	4637      	mov	r7, r6
 8007b9a:	42bb      	cmp	r3, r7
 8007b9c:	460e      	mov	r6, r1
 8007b9e:	d9f4      	bls.n	8007b8a <_printf_i+0x116>
 8007ba0:	2b08      	cmp	r3, #8
 8007ba2:	d10b      	bne.n	8007bbc <_printf_i+0x148>
 8007ba4:	6823      	ldr	r3, [r4, #0]
 8007ba6:	07de      	lsls	r6, r3, #31
 8007ba8:	d508      	bpl.n	8007bbc <_printf_i+0x148>
 8007baa:	6923      	ldr	r3, [r4, #16]
 8007bac:	6861      	ldr	r1, [r4, #4]
 8007bae:	4299      	cmp	r1, r3
 8007bb0:	bfde      	ittt	le
 8007bb2:	2330      	movle	r3, #48	; 0x30
 8007bb4:	f805 3c01 	strble.w	r3, [r5, #-1]
 8007bb8:	f105 35ff 	addle.w	r5, r5, #4294967295
 8007bbc:	1b52      	subs	r2, r2, r5
 8007bbe:	6122      	str	r2, [r4, #16]
 8007bc0:	f8cd a000 	str.w	sl, [sp]
 8007bc4:	464b      	mov	r3, r9
 8007bc6:	aa03      	add	r2, sp, #12
 8007bc8:	4621      	mov	r1, r4
 8007bca:	4640      	mov	r0, r8
 8007bcc:	f7ff fee4 	bl	8007998 <_printf_common>
 8007bd0:	3001      	adds	r0, #1
 8007bd2:	d14a      	bne.n	8007c6a <_printf_i+0x1f6>
 8007bd4:	f04f 30ff 	mov.w	r0, #4294967295
 8007bd8:	b004      	add	sp, #16
 8007bda:	e8bd 87f0 	ldmia.w	sp!, {r4, r5, r6, r7, r8, r9, sl, pc}
 8007bde:	6823      	ldr	r3, [r4, #0]
 8007be0:	f043 0320 	orr.w	r3, r3, #32
 8007be4:	6023      	str	r3, [r4, #0]
 8007be6:	4833      	ldr	r0, [pc, #204]	; (8007cb4 <_printf_i+0x240>)
 8007be8:	2778      	movs	r7, #120	; 0x78
 8007bea:	f884 7045 	strb.w	r7, [r4, #69]	; 0x45
 8007bee:	6823      	ldr	r3, [r4, #0]
 8007bf0:	6829      	ldr	r1, [r5, #0]
 8007bf2:	061f      	lsls	r7, r3, #24
 8007bf4:	f851 6b04 	ldr.w	r6, [r1], #4
 8007bf8:	d402      	bmi.n	8007c00 <_printf_i+0x18c>
 8007bfa:	065f      	lsls	r7, r3, #25
 8007bfc:	bf48      	it	mi
 8007bfe:	b2b6      	uxthmi	r6, r6
 8007c00:	07df      	lsls	r7, r3, #31
 8007c02:	bf48      	it	mi
 8007c04:	f043 0320 	orrmi.w	r3, r3, #32
 8007c08:	6029      	str	r1, [r5, #0]
 8007c0a:	bf48      	it	mi
 8007c0c:	6023      	strmi	r3, [r4, #0]
 8007c0e:	b91e      	cbnz	r6, 8007c18 <_printf_i+0x1a4>
 8007c10:	6823      	ldr	r3, [r4, #0]
 8007c12:	f023 0320 	bic.w	r3, r3, #32
 8007c16:	6023      	str	r3, [r4, #0]
 8007c18:	2310      	movs	r3, #16
 8007c1a:	e7a7      	b.n	8007b6c <_printf_i+0xf8>
 8007c1c:	4824      	ldr	r0, [pc, #144]	; (8007cb0 <_printf_i+0x23c>)
 8007c1e:	e7e4      	b.n	8007bea <_printf_i+0x176>
 8007c20:	4615      	mov	r5, r2
 8007c22:	e7bd      	b.n	8007ba0 <_printf_i+0x12c>
 8007c24:	682b      	ldr	r3, [r5, #0]
 8007c26:	6826      	ldr	r6, [r4, #0]
 8007c28:	6961      	ldr	r1, [r4, #20]
 8007c2a:	1d18      	adds	r0, r3, #4
 8007c2c:	6028      	str	r0, [r5, #0]
 8007c2e:	0635      	lsls	r5, r6, #24
 8007c30:	681b      	ldr	r3, [r3, #0]
 8007c32:	d501      	bpl.n	8007c38 <_printf_i+0x1c4>
 8007c34:	6019      	str	r1, [r3, #0]
 8007c36:	e002      	b.n	8007c3e <_printf_i+0x1ca>
 8007c38:	0670      	lsls	r0, r6, #25
 8007c3a:	d5fb      	bpl.n	8007c34 <_printf_i+0x1c0>
 8007c3c:	8019      	strh	r1, [r3, #0]
 8007c3e:	2300      	movs	r3, #0
 8007c40:	6123      	str	r3, [r4, #16]
 8007c42:	4615      	mov	r5, r2
 8007c44:	e7bc      	b.n	8007bc0 <_printf_i+0x14c>
 8007c46:	682b      	ldr	r3, [r5, #0]
 8007c48:	1d1a      	adds	r2, r3, #4
 8007c4a:	602a      	str	r2, [r5, #0]
 8007c4c:	681d      	ldr	r5, [r3, #0]
 8007c4e:	6862      	ldr	r2, [r4, #4]
 8007c50:	2100      	movs	r1, #0
 8007c52:	4628      	mov	r0, r5
 8007c54:	f7f8 fadc 	bl	8000210 <memchr>
 8007c58:	b108      	cbz	r0, 8007c5e <_printf_i+0x1ea>
 8007c5a:	1b40      	subs	r0, r0, r5
 8007c5c:	6060      	str	r0, [r4, #4]
 8007c5e:	6863      	ldr	r3, [r4, #4]
 8007c60:	6123      	str	r3, [r4, #16]
 8007c62:	2300      	movs	r3, #0
 8007c64:	f884 3043 	strb.w	r3, [r4, #67]	; 0x43
 8007c68:	e7aa      	b.n	8007bc0 <_printf_i+0x14c>
 8007c6a:	6923      	ldr	r3, [r4, #16]
 8007c6c:	462a      	mov	r2, r5
 8007c6e:	4649      	mov	r1, r9
 8007c70:	4640      	mov	r0, r8
 8007c72:	47d0      	blx	sl
 8007c74:	3001      	adds	r0, #1
 8007c76:	d0ad      	beq.n	8007bd4 <_printf_i+0x160>
 8007c78:	6823      	ldr	r3, [r4, #0]
 8007c7a:	079b      	lsls	r3, r3, #30
 8007c7c:	d413      	bmi.n	8007ca6 <_printf_i+0x232>
 8007c7e:	68e0      	ldr	r0, [r4, #12]
 8007c80:	9b03      	ldr	r3, [sp, #12]
 8007c82:	4298      	cmp	r0, r3
 8007c84:	bfb8      	it	lt
 8007c86:	4618      	movlt	r0, r3
 8007c88:	e7a6      	b.n	8007bd8 <_printf_i+0x164>
 8007c8a:	2301      	movs	r3, #1
 8007c8c:	4632      	mov	r2, r6
 8007c8e:	4649      	mov	r1, r9
 8007c90:	4640      	mov	r0, r8
 8007c92:	47d0      	blx	sl
 8007c94:	3001      	adds	r0, #1
 8007c96:	d09d      	beq.n	8007bd4 <_printf_i+0x160>
 8007c98:	3501      	adds	r5, #1
 8007c9a:	68e3      	ldr	r3, [r4, #12]
 8007c9c:	9903      	ldr	r1, [sp, #12]
 8007c9e:	1a5b      	subs	r3, r3, r1
 8007ca0:	42ab      	cmp	r3, r5
 8007ca2:	dcf2      	bgt.n	8007c8a <_printf_i+0x216>
 8007ca4:	e7eb      	b.n	8007c7e <_printf_i+0x20a>
 8007ca6:	2500      	movs	r5, #0
 8007ca8:	f104 0619 	add.w	r6, r4, #25
 8007cac:	e7f5      	b.n	8007c9a <_printf_i+0x226>
 8007cae:	bf00      	nop
 8007cb0:	0803d250 	.word	0x0803d250
 8007cb4:	0803d261 	.word	0x0803d261

08007cb8 <std>:
 8007cb8:	2300      	movs	r3, #0
 8007cba:	b510      	push	{r4, lr}
 8007cbc:	4604      	mov	r4, r0
 8007cbe:	e9c0 3300 	strd	r3, r3, [r0]
 8007cc2:	e9c0 3304 	strd	r3, r3, [r0, #16]
 8007cc6:	6083      	str	r3, [r0, #8]
 8007cc8:	8181      	strh	r1, [r0, #12]
 8007cca:	6643      	str	r3, [r0, #100]	; 0x64
 8007ccc:	81c2      	strh	r2, [r0, #14]
 8007cce:	6183      	str	r3, [r0, #24]
 8007cd0:	4619      	mov	r1, r3
 8007cd2:	2208      	movs	r2, #8
 8007cd4:	305c      	adds	r0, #92	; 0x5c
 8007cd6:	f000 f914 	bl	8007f02 <memset>
 8007cda:	4b0d      	ldr	r3, [pc, #52]	; (8007d10 <std+0x58>)
 8007cdc:	6263      	str	r3, [r4, #36]	; 0x24
 8007cde:	4b0d      	ldr	r3, [pc, #52]	; (8007d14 <std+0x5c>)
 8007ce0:	62a3      	str	r3, [r4, #40]	; 0x28
 8007ce2:	4b0d      	ldr	r3, [pc, #52]	; (8007d18 <std+0x60>)
 8007ce4:	62e3      	str	r3, [r4, #44]	; 0x2c
 8007ce6:	4b0d      	ldr	r3, [pc, #52]	; (8007d1c <std+0x64>)
 8007ce8:	6323      	str	r3, [r4, #48]	; 0x30
 8007cea:	4b0d      	ldr	r3, [pc, #52]	; (8007d20 <std+0x68>)
 8007cec:	6224      	str	r4, [r4, #32]
 8007cee:	429c      	cmp	r4, r3
 8007cf0:	d006      	beq.n	8007d00 <std+0x48>
 8007cf2:	f103 0268 	add.w	r2, r3, #104	; 0x68
 8007cf6:	4294      	cmp	r4, r2
 8007cf8:	d002      	beq.n	8007d00 <std+0x48>
 8007cfa:	33d0      	adds	r3, #208	; 0xd0
 8007cfc:	429c      	cmp	r4, r3
 8007cfe:	d105      	bne.n	8007d0c <std+0x54>
 8007d00:	f104 0058 	add.w	r0, r4, #88	; 0x58
 8007d04:	e8bd 4010 	ldmia.w	sp!, {r4, lr}
 8007d08:	f000 b988 	b.w	800801c <__retarget_lock_init_recursive>
 8007d0c:	bd10      	pop	{r4, pc}
 8007d0e:	bf00      	nop
 8007d10:	08007e7d 	.word	0x08007e7d
 8007d14:	08007e9f 	.word	0x08007e9f
 8007d18:	08007ed7 	.word	0x08007ed7
 8007d1c:	08007efb 	.word	0x08007efb
 8007d20:	20001754 	.word	0x20001754

08007d24 <stdio_exit_handler>:
 8007d24:	4a02      	ldr	r2, [pc, #8]	; (8007d30 <stdio_exit_handler+0xc>)
 8007d26:	4903      	ldr	r1, [pc, #12]	; (8007d34 <stdio_exit_handler+0x10>)
 8007d28:	4803      	ldr	r0, [pc, #12]	; (8007d38 <stdio_exit_handler+0x14>)
 8007d2a:	f000 b869 	b.w	8007e00 <_fwalk_sglue>
 8007d2e:	bf00      	nop
 8007d30:	20000c04 	.word	0x20000c04
 8007d34:	08009891 	.word	0x08009891
 8007d38:	20000c10 	.word	0x20000c10

08007d3c <cleanup_stdio>:
 8007d3c:	6841      	ldr	r1, [r0, #4]
 8007d3e:	4b0c      	ldr	r3, [pc, #48]	; (8007d70 <cleanup_stdio+0x34>)
 8007d40:	4299      	cmp	r1, r3
 8007d42:	b510      	push	{r4, lr}
 8007d44:	4604      	mov	r4, r0
 8007d46:	d001      	beq.n	8007d4c <cleanup_stdio+0x10>
 8007d48:	f001 fda2 	bl	8009890 <_fflush_r>
 8007d4c:	68a1      	ldr	r1, [r4, #8]
 8007d4e:	4b09      	ldr	r3, [pc, #36]	; (8007d74 <cleanup_stdio+0x38>)
 8007d50:	4299      	cmp	r1, r3
 8007d52:	d002      	beq.n	8007d5a <cleanup_stdio+0x1e>
 8007d54:	4620      	mov	r0, r4
 8007d56:	f001 fd9b 	bl	8009890 <_fflush_r>
 8007d5a:	68e1      	ldr	r1, [r4, #12]
 8007d5c:	4b06      	ldr	r3, [pc, #24]	; (8007d78 <cleanup_stdio+0x3c>)
 8007d5e:	4299      	cmp	r1, r3
 8007d60:	d004      	beq.n	8007d6c <cleanup_stdio+0x30>
 8007d62:	4620      	mov	r0, r4
 8007d64:	e8bd 4010 	ldmia.w	sp!, {r4, lr}
 8007d68:	f001 bd92 	b.w	8009890 <_fflush_r>
 8007d6c:	bd10      	pop	{r4, pc}
 8007d6e:	bf00      	nop
 8007d70:	20001754 	.word	0x20001754
 8007d74:	200017bc 	.word	0x200017bc
 8007d78:	20001824 	.word	0x20001824

08007d7c <global_stdio_init.part.0>:
 8007d7c:	b510      	push	{r4, lr}
 8007d7e:	4b0b      	ldr	r3, [pc, #44]	; (8007dac <global_stdio_init.part.0+0x30>)
 8007d80:	4c0b      	ldr	r4, [pc, #44]	; (8007db0 <global_stdio_init.part.0+0x34>)
 8007d82:	4a0c      	ldr	r2, [pc, #48]	; (8007db4 <global_stdio_init.part.0+0x38>)
 8007d84:	601a      	str	r2, [r3, #0]
 8007d86:	4620      	mov	r0, r4
 8007d88:	2200      	movs	r2, #0
 8007d8a:	2104      	movs	r1, #4
 8007d8c:	f7ff ff94 	bl	8007cb8 <std>
 8007d90:	f104 0068 	add.w	r0, r4, #104	; 0x68
 8007d94:	2201      	movs	r2, #1
 8007d96:	2109      	movs	r1, #9
 8007d98:	f7ff ff8e 	bl	8007cb8 <std>
 8007d9c:	f104 00d0 	add.w	r0, r4, #208	; 0xd0
 8007da0:	2202      	movs	r2, #2
 8007da2:	e8bd 4010 	ldmia.w	sp!, {r4, lr}
 8007da6:	2112      	movs	r1, #18
 8007da8:	f7ff bf86 	b.w	8007cb8 <std>
 8007dac:	2000188c 	.word	0x2000188c
 8007db0:	20001754 	.word	0x20001754
 8007db4:	08007d25 	.word	0x08007d25

08007db8 <__sfp_lock_acquire>:
 8007db8:	4801      	ldr	r0, [pc, #4]	; (8007dc0 <__sfp_lock_acquire+0x8>)
 8007dba:	f000 b930 	b.w	800801e <__retarget_lock_acquire_recursive>
 8007dbe:	bf00      	nop
 8007dc0:	20001895 	.word	0x20001895

08007dc4 <__sfp_lock_release>:
 8007dc4:	4801      	ldr	r0, [pc, #4]	; (8007dcc <__sfp_lock_release+0x8>)
 8007dc6:	f000 b92b 	b.w	8008020 <__retarget_lock_release_recursive>
 8007dca:	bf00      	nop
 8007dcc:	20001895 	.word	0x20001895

08007dd0 <__sinit>:
 8007dd0:	b510      	push	{r4, lr}
 8007dd2:	4604      	mov	r4, r0
 8007dd4:	f7ff fff0 	bl	8007db8 <__sfp_lock_acquire>
 8007dd8:	6a23      	ldr	r3, [r4, #32]
 8007dda:	b11b      	cbz	r3, 8007de4 <__sinit+0x14>
 8007ddc:	e8bd 4010 	ldmia.w	sp!, {r4, lr}
 8007de0:	f7ff bff0 	b.w	8007dc4 <__sfp_lock_release>
 8007de4:	4b04      	ldr	r3, [pc, #16]	; (8007df8 <__sinit+0x28>)
 8007de6:	6223      	str	r3, [r4, #32]
 8007de8:	4b04      	ldr	r3, [pc, #16]	; (8007dfc <__sinit+0x2c>)
 8007dea:	681b      	ldr	r3, [r3, #0]
 8007dec:	2b00      	cmp	r3, #0
 8007dee:	d1f5      	bne.n	8007ddc <__sinit+0xc>
 8007df0:	f7ff ffc4 	bl	8007d7c <global_stdio_init.part.0>
 8007df4:	e7f2      	b.n	8007ddc <__sinit+0xc>
 8007df6:	bf00      	nop
 8007df8:	08007d3d 	.word	0x08007d3d
 8007dfc:	2000188c 	.word	0x2000188c

08007e00 <_fwalk_sglue>:
 8007e00:	e92d 43f8 	stmdb	sp!, {r3, r4, r5, r6, r7, r8, r9, lr}
 8007e04:	4607      	mov	r7, r0
 8007e06:	4688      	mov	r8, r1
 8007e08:	4614      	mov	r4, r2
 8007e0a:	2600      	movs	r6, #0
 8007e0c:	e9d4 9501 	ldrd	r9, r5, [r4, #4]
 8007e10:	f1b9 0901 	subs.w	r9, r9, #1
 8007e14:	d505      	bpl.n	8007e22 <_fwalk_sglue+0x22>
 8007e16:	6824      	ldr	r4, [r4, #0]
 8007e18:	2c00      	cmp	r4, #0
 8007e1a:	d1f7      	bne.n	8007e0c <_fwalk_sglue+0xc>
 8007e1c:	4630      	mov	r0, r6
 8007e1e:	e8bd 83f8 	ldmia.w	sp!, {r3, r4, r5, r6, r7, r8, r9, pc}
 8007e22:	89ab      	ldrh	r3, [r5, #12]
 8007e24:	2b01      	cmp	r3, #1
 8007e26:	d907      	bls.n	8007e38 <_fwalk_sglue+0x38>
 8007e28:	f9b5 300e 	ldrsh.w	r3, [r5, #14]
 8007e2c:	3301      	adds	r3, #1
 8007e2e:	d003      	beq.n	8007e38 <_fwalk_sglue+0x38>
 8007e30:	4629      	mov	r1, r5
 8007e32:	4638      	mov	r0, r7
 8007e34:	47c0      	blx	r8
 8007e36:	4306      	orrs	r6, r0
 8007e38:	3568      	adds	r5, #104	; 0x68
 8007e3a:	e7e9      	b.n	8007e10 <_fwalk_sglue+0x10>

08007e3c <siprintf>:
 8007e3c:	b40e      	push	{r1, r2, r3}
 8007e3e:	b500      	push	{lr}
 8007e40:	b09c      	sub	sp, #112	; 0x70
 8007e42:	ab1d      	add	r3, sp, #116	; 0x74
 8007e44:	9002      	str	r0, [sp, #8]
 8007e46:	9006      	str	r0, [sp, #24]
 8007e48:	f06f 4100 	mvn.w	r1, #2147483648	; 0x80000000
 8007e4c:	4809      	ldr	r0, [pc, #36]	; (8007e74 <siprintf+0x38>)
 8007e4e:	9107      	str	r1, [sp, #28]
 8007e50:	9104      	str	r1, [sp, #16]
 8007e52:	4909      	ldr	r1, [pc, #36]	; (8007e78 <siprintf+0x3c>)
 8007e54:	f853 2b04 	ldr.w	r2, [r3], #4
 8007e58:	9105      	str	r1, [sp, #20]
 8007e5a:	6800      	ldr	r0, [r0, #0]
 8007e5c:	9301      	str	r3, [sp, #4]
 8007e5e:	a902      	add	r1, sp, #8
 8007e60:	f001 fb92 	bl	8009588 <_svfiprintf_r>
 8007e64:	9b02      	ldr	r3, [sp, #8]
 8007e66:	2200      	movs	r2, #0
 8007e68:	701a      	strb	r2, [r3, #0]
 8007e6a:	b01c      	add	sp, #112	; 0x70
 8007e6c:	f85d eb04 	ldr.w	lr, [sp], #4
 8007e70:	b003      	add	sp, #12
 8007e72:	4770      	bx	lr
 8007e74:	20000c5c 	.word	0x20000c5c
 8007e78:	ffff0208 	.word	0xffff0208

08007e7c <__sread>:
 8007e7c:	b510      	push	{r4, lr}
 8007e7e:	460c      	mov	r4, r1
 8007e80:	f9b1 100e 	ldrsh.w	r1, [r1, #14]
 8007e84:	f000 f86c 	bl	8007f60 <_read_r>
 8007e88:	2800      	cmp	r0, #0
 8007e8a:	bfab      	itete	ge
 8007e8c:	6d63      	ldrge	r3, [r4, #84]	; 0x54
 8007e8e:	89a3      	ldrhlt	r3, [r4, #12]
 8007e90:	181b      	addge	r3, r3, r0
 8007e92:	f423 5380 	biclt.w	r3, r3, #4096	; 0x1000
 8007e96:	bfac      	ite	ge
 8007e98:	6563      	strge	r3, [r4, #84]	; 0x54
 8007e9a:	81a3      	strhlt	r3, [r4, #12]
 8007e9c:	bd10      	pop	{r4, pc}

08007e9e <__swrite>:
 8007e9e:	e92d 41f0 	stmdb	sp!, {r4, r5, r6, r7, r8, lr}
 8007ea2:	461f      	mov	r7, r3
 8007ea4:	898b      	ldrh	r3, [r1, #12]
 8007ea6:	05db      	lsls	r3, r3, #23
 8007ea8:	4605      	mov	r5, r0
 8007eaa:	460c      	mov	r4, r1
 8007eac:	4616      	mov	r6, r2
 8007eae:	d505      	bpl.n	8007ebc <__swrite+0x1e>
 8007eb0:	f9b1 100e 	ldrsh.w	r1, [r1, #14]
 8007eb4:	2302      	movs	r3, #2
 8007eb6:	2200      	movs	r2, #0
 8007eb8:	f000 f840 	bl	8007f3c <_lseek_r>
 8007ebc:	89a3      	ldrh	r3, [r4, #12]
 8007ebe:	f9b4 100e 	ldrsh.w	r1, [r4, #14]
 8007ec2:	f423 5380 	bic.w	r3, r3, #4096	; 0x1000
 8007ec6:	81a3      	strh	r3, [r4, #12]
 8007ec8:	4632      	mov	r2, r6
 8007eca:	463b      	mov	r3, r7
 8007ecc:	4628      	mov	r0, r5
 8007ece:	e8bd 41f0 	ldmia.w	sp!, {r4, r5, r6, r7, r8, lr}
 8007ed2:	f000 b867 	b.w	8007fa4 <_write_r>

08007ed6 <__sseek>:
 8007ed6:	b510      	push	{r4, lr}
 8007ed8:	460c      	mov	r4, r1
 8007eda:	f9b1 100e 	ldrsh.w	r1, [r1, #14]
 8007ede:	f000 f82d 	bl	8007f3c <_lseek_r>
 8007ee2:	1c43      	adds	r3, r0, #1
 8007ee4:	89a3      	ldrh	r3, [r4, #12]
 8007ee6:	bf15      	itete	ne
 8007ee8:	6560      	strne	r0, [r4, #84]	; 0x54
 8007eea:	f423 5380 	biceq.w	r3, r3, #4096	; 0x1000
 8007eee:	f443 5380 	orrne.w	r3, r3, #4096	; 0x1000
 8007ef2:	81a3      	strheq	r3, [r4, #12]
 8007ef4:	bf18      	it	ne
 8007ef6:	81a3      	strhne	r3, [r4, #12]
 8007ef8:	bd10      	pop	{r4, pc}

08007efa <__sclose>:
 8007efa:	f9b1 100e 	ldrsh.w	r1, [r1, #14]
 8007efe:	f000 b80d 	b.w	8007f1c <_close_r>

08007f02 <memset>:
 8007f02:	4402      	add	r2, r0
 8007f04:	4603      	mov	r3, r0
 8007f06:	4293      	cmp	r3, r2
 8007f08:	d100      	bne.n	8007f0c <memset+0xa>
 8007f0a:	4770      	bx	lr
 8007f0c:	f803 1b01 	strb.w	r1, [r3], #1
 8007f10:	e7f9      	b.n	8007f06 <memset+0x4>
	...

08007f14 <_localeconv_r>:
 8007f14:	4800      	ldr	r0, [pc, #0]	; (8007f18 <_localeconv_r+0x4>)
 8007f16:	4770      	bx	lr
 8007f18:	20000d50 	.word	0x20000d50

08007f1c <_close_r>:
 8007f1c:	b538      	push	{r3, r4, r5, lr}
 8007f1e:	4d06      	ldr	r5, [pc, #24]	; (8007f38 <_close_r+0x1c>)
 8007f20:	2300      	movs	r3, #0
 8007f22:	4604      	mov	r4, r0
 8007f24:	4608      	mov	r0, r1
 8007f26:	602b      	str	r3, [r5, #0]
 8007f28:	f002 fac4 	bl	800a4b4 <_close>
 8007f2c:	1c43      	adds	r3, r0, #1
 8007f2e:	d102      	bne.n	8007f36 <_close_r+0x1a>
 8007f30:	682b      	ldr	r3, [r5, #0]
 8007f32:	b103      	cbz	r3, 8007f36 <_close_r+0x1a>
 8007f34:	6023      	str	r3, [r4, #0]
 8007f36:	bd38      	pop	{r3, r4, r5, pc}
 8007f38:	20001890 	.word	0x20001890

08007f3c <_lseek_r>:
 8007f3c:	b538      	push	{r3, r4, r5, lr}
 8007f3e:	4d07      	ldr	r5, [pc, #28]	; (8007f5c <_lseek_r+0x20>)
 8007f40:	4604      	mov	r4, r0
 8007f42:	4608      	mov	r0, r1
 8007f44:	4611      	mov	r1, r2
 8007f46:	2200      	movs	r2, #0
 8007f48:	602a      	str	r2, [r5, #0]
 8007f4a:	461a      	mov	r2, r3
 8007f4c:	f002 fada 	bl	800a504 <_lseek>
 8007f50:	1c43      	adds	r3, r0, #1
 8007f52:	d102      	bne.n	8007f5a <_lseek_r+0x1e>
 8007f54:	682b      	ldr	r3, [r5, #0]
 8007f56:	b103      	cbz	r3, 8007f5a <_lseek_r+0x1e>
 8007f58:	6023      	str	r3, [r4, #0]
 8007f5a:	bd38      	pop	{r3, r4, r5, pc}
 8007f5c:	20001890 	.word	0x20001890

08007f60 <_read_r>:
 8007f60:	b538      	push	{r3, r4, r5, lr}
 8007f62:	4d07      	ldr	r5, [pc, #28]	; (8007f80 <_read_r+0x20>)
 8007f64:	4604      	mov	r4, r0
 8007f66:	4608      	mov	r0, r1
 8007f68:	4611      	mov	r1, r2
 8007f6a:	2200      	movs	r2, #0
 8007f6c:	602a      	str	r2, [r5, #0]
 8007f6e:	461a      	mov	r2, r3
 8007f70:	f002 fad0 	bl	800a514 <_read>
 8007f74:	1c43      	adds	r3, r0, #1
 8007f76:	d102      	bne.n	8007f7e <_read_r+0x1e>
 8007f78:	682b      	ldr	r3, [r5, #0]
 8007f7a:	b103      	cbz	r3, 8007f7e <_read_r+0x1e>
 8007f7c:	6023      	str	r3, [r4, #0]
 8007f7e:	bd38      	pop	{r3, r4, r5, pc}
 8007f80:	20001890 	.word	0x20001890

08007f84 <_sbrk_r>:
 8007f84:	b538      	push	{r3, r4, r5, lr}
 8007f86:	4d06      	ldr	r5, [pc, #24]	; (8007fa0 <_sbrk_r+0x1c>)
 8007f88:	2300      	movs	r3, #0
 8007f8a:	4604      	mov	r4, r0
 8007f8c:	4608      	mov	r0, r1
 8007f8e:	602b      	str	r3, [r5, #0]
 8007f90:	f7f9 fcfe 	bl	8001990 <_sbrk>
 8007f94:	1c43      	adds	r3, r0, #1
 8007f96:	d102      	bne.n	8007f9e <_sbrk_r+0x1a>
 8007f98:	682b      	ldr	r3, [r5, #0]
 8007f9a:	b103      	cbz	r3, 8007f9e <_sbrk_r+0x1a>
 8007f9c:	6023      	str	r3, [r4, #0]
 8007f9e:	bd38      	pop	{r3, r4, r5, pc}
 8007fa0:	20001890 	.word	0x20001890

08007fa4 <_write_r>:
 8007fa4:	b538      	push	{r3, r4, r5, lr}
 8007fa6:	4d07      	ldr	r5, [pc, #28]	; (8007fc4 <_write_r+0x20>)
 8007fa8:	4604      	mov	r4, r0
 8007faa:	4608      	mov	r0, r1
 8007fac:	4611      	mov	r1, r2
 8007fae:	2200      	movs	r2, #0
 8007fb0:	602a      	str	r2, [r5, #0]
 8007fb2:	461a      	mov	r2, r3
 8007fb4:	f7fb fa24 	bl	8003400 <_write>
 8007fb8:	1c43      	adds	r3, r0, #1
 8007fba:	d102      	bne.n	8007fc2 <_write_r+0x1e>
 8007fbc:	682b      	ldr	r3, [r5, #0]
 8007fbe:	b103      	cbz	r3, 8007fc2 <_write_r+0x1e>
 8007fc0:	6023      	str	r3, [r4, #0]
 8007fc2:	bd38      	pop	{r3, r4, r5, pc}
 8007fc4:	20001890 	.word	0x20001890

08007fc8 <__errno>:
 8007fc8:	4b01      	ldr	r3, [pc, #4]	; (8007fd0 <__errno+0x8>)
 8007fca:	6818      	ldr	r0, [r3, #0]
 8007fcc:	4770      	bx	lr
 8007fce:	bf00      	nop
 8007fd0:	20000c5c 	.word	0x20000c5c

08007fd4 <__libc_init_array>:
 8007fd4:	b570      	push	{r4, r5, r6, lr}
 8007fd6:	4d0d      	ldr	r5, [pc, #52]	; (800800c <__libc_init_array+0x38>)
 8007fd8:	4c0d      	ldr	r4, [pc, #52]	; (8008010 <__libc_init_array+0x3c>)
 8007fda:	1b64      	subs	r4, r4, r5
 8007fdc:	10a4      	asrs	r4, r4, #2
 8007fde:	2600      	movs	r6, #0
 8007fe0:	42a6      	cmp	r6, r4
 8007fe2:	d109      	bne.n	8007ff8 <__libc_init_array+0x24>
 8007fe4:	4d0b      	ldr	r5, [pc, #44]	; (8008014 <__libc_init_array+0x40>)
 8007fe6:	4c0c      	ldr	r4, [pc, #48]	; (8008018 <__libc_init_array+0x44>)
 8007fe8:	f002 fa9e 	bl	800a528 <_init>
 8007fec:	1b64      	subs	r4, r4, r5
 8007fee:	10a4      	asrs	r4, r4, #2
 8007ff0:	2600      	movs	r6, #0
 8007ff2:	42a6      	cmp	r6, r4
 8007ff4:	d105      	bne.n	8008002 <__libc_init_array+0x2e>
 8007ff6:	bd70      	pop	{r4, r5, r6, pc}
 8007ff8:	f855 3b04 	ldr.w	r3, [r5], #4
 8007ffc:	4798      	blx	r3
 8007ffe:	3601      	adds	r6, #1
 8008000:	e7ee      	b.n	8007fe0 <__libc_init_array+0xc>
 8008002:	f855 3b04 	ldr.w	r3, [r5], #4
 8008006:	4798      	blx	r3
 8008008:	3601      	adds	r6, #1
 800800a:	e7f2      	b.n	8007ff2 <__libc_init_array+0x1e>
 800800c:	0803d5cc 	.word	0x0803d5cc
 8008010:	0803d5cc 	.word	0x0803d5cc
 8008014:	0803d5cc 	.word	0x0803d5cc
 8008018:	0803d5d0 	.word	0x0803d5d0

0800801c <__retarget_lock_init_recursive>:
 800801c:	4770      	bx	lr

0800801e <__retarget_lock_acquire_recursive>:
 800801e:	4770      	bx	lr

08008020 <__retarget_lock_release_recursive>:
 8008020:	4770      	bx	lr

08008022 <memcpy>:
 8008022:	440a      	add	r2, r1
 8008024:	4291      	cmp	r1, r2
 8008026:	f100 33ff 	add.w	r3, r0, #4294967295
 800802a:	d100      	bne.n	800802e <memcpy+0xc>
 800802c:	4770      	bx	lr
 800802e:	b510      	push	{r4, lr}
 8008030:	f811 4b01 	ldrb.w	r4, [r1], #1
 8008034:	f803 4f01 	strb.w	r4, [r3, #1]!
 8008038:	4291      	cmp	r1, r2
 800803a:	d1f9      	bne.n	8008030 <memcpy+0xe>
 800803c:	bd10      	pop	{r4, pc}

0800803e <quorem>:
 800803e:	e92d 4ff7 	stmdb	sp!, {r0, r1, r2, r4, r5, r6, r7, r8, r9, sl, fp, lr}
 8008042:	6903      	ldr	r3, [r0, #16]
 8008044:	690c      	ldr	r4, [r1, #16]
 8008046:	42a3      	cmp	r3, r4
 8008048:	4607      	mov	r7, r0
 800804a:	db7e      	blt.n	800814a <quorem+0x10c>
 800804c:	3c01      	subs	r4, #1
 800804e:	f101 0814 	add.w	r8, r1, #20
 8008052:	f100 0514 	add.w	r5, r0, #20
 8008056:	eb05 0384 	add.w	r3, r5, r4, lsl #2
 800805a:	9301      	str	r3, [sp, #4]
 800805c:	f858 3024 	ldr.w	r3, [r8, r4, lsl #2]
 8008060:	f855 2024 	ldr.w	r2, [r5, r4, lsl #2]
 8008064:	3301      	adds	r3, #1
 8008066:	429a      	cmp	r2, r3
 8008068:	ea4f 0b84 	mov.w	fp, r4, lsl #2
 800806c:	eb08 0984 	add.w	r9, r8, r4, lsl #2
 8008070:	fbb2 f6f3 	udiv	r6, r2, r3
 8008074:	d331      	bcc.n	80080da <quorem+0x9c>
 8008076:	f04f 0e00 	mov.w	lr, #0
 800807a:	4640      	mov	r0, r8
 800807c:	46ac      	mov	ip, r5
 800807e:	46f2      	mov	sl, lr
 8008080:	f850 2b04 	ldr.w	r2, [r0], #4
 8008084:	b293      	uxth	r3, r2
 8008086:	fb06 e303 	mla	r3, r6, r3, lr
 800808a:	ea4f 4e12 	mov.w	lr, r2, lsr #16
 800808e:	0c1a      	lsrs	r2, r3, #16
 8008090:	b29b      	uxth	r3, r3
 8008092:	ebaa 0303 	sub.w	r3, sl, r3
 8008096:	f8dc a000 	ldr.w	sl, [ip]
 800809a:	fa13 f38a 	uxtah	r3, r3, sl
 800809e:	fb06 220e 	mla	r2, r6, lr, r2
 80080a2:	9300      	str	r3, [sp, #0]
 80080a4:	9b00      	ldr	r3, [sp, #0]
 80080a6:	ea4f 4e12 	mov.w	lr, r2, lsr #16
 80080aa:	b292      	uxth	r2, r2
 80080ac:	ebc2 421a 	rsb	r2, r2, sl, lsr #16
 80080b0:	eb02 4223 	add.w	r2, r2, r3, asr #16
 80080b4:	f8bd 3000 	ldrh.w	r3, [sp]
 80080b8:	4581      	cmp	r9, r0
 80080ba:	ea43 4302 	orr.w	r3, r3, r2, lsl #16
 80080be:	f84c 3b04 	str.w	r3, [ip], #4
 80080c2:	ea4f 4a22 	mov.w	sl, r2, asr #16
 80080c6:	d2db      	bcs.n	8008080 <quorem+0x42>
 80080c8:	f855 300b 	ldr.w	r3, [r5, fp]
 80080cc:	b92b      	cbnz	r3, 80080da <quorem+0x9c>
 80080ce:	9b01      	ldr	r3, [sp, #4]
 80080d0:	3b04      	subs	r3, #4
 80080d2:	429d      	cmp	r5, r3
 80080d4:	461a      	mov	r2, r3
 80080d6:	d32c      	bcc.n	8008132 <quorem+0xf4>
 80080d8:	613c      	str	r4, [r7, #16]
 80080da:	4638      	mov	r0, r7
 80080dc:	f001 f8f2 	bl	80092c4 <__mcmp>
 80080e0:	2800      	cmp	r0, #0
 80080e2:	db22      	blt.n	800812a <quorem+0xec>
 80080e4:	3601      	adds	r6, #1
 80080e6:	4629      	mov	r1, r5
 80080e8:	2000      	movs	r0, #0
 80080ea:	f858 2b04 	ldr.w	r2, [r8], #4
 80080ee:	f8d1 c000 	ldr.w	ip, [r1]
 80080f2:	b293      	uxth	r3, r2
 80080f4:	1ac3      	subs	r3, r0, r3
 80080f6:	0c12      	lsrs	r2, r2, #16
 80080f8:	fa13 f38c 	uxtah	r3, r3, ip
 80080fc:	ebc2 421c 	rsb	r2, r2, ip, lsr #16
 8008100:	eb02 4223 	add.w	r2, r2, r3, asr #16
 8008104:	b29b      	uxth	r3, r3
 8008106:	ea43 4302 	orr.w	r3, r3, r2, lsl #16
 800810a:	45c1      	cmp	r9, r8
 800810c:	f841 3b04 	str.w	r3, [r1], #4
 8008110:	ea4f 4022 	mov.w	r0, r2, asr #16
 8008114:	d2e9      	bcs.n	80080ea <quorem+0xac>
 8008116:	f855 2024 	ldr.w	r2, [r5, r4, lsl #2]
 800811a:	eb05 0384 	add.w	r3, r5, r4, lsl #2
 800811e:	b922      	cbnz	r2, 800812a <quorem+0xec>
 8008120:	3b04      	subs	r3, #4
 8008122:	429d      	cmp	r5, r3
 8008124:	461a      	mov	r2, r3
 8008126:	d30a      	bcc.n	800813e <quorem+0x100>
 8008128:	613c      	str	r4, [r7, #16]
 800812a:	4630      	mov	r0, r6
 800812c:	b003      	add	sp, #12
 800812e:	e8bd 8ff0 	ldmia.w	sp!, {r4, r5, r6, r7, r8, r9, sl, fp, pc}
 8008132:	6812      	ldr	r2, [r2, #0]
 8008134:	3b04      	subs	r3, #4
 8008136:	2a00      	cmp	r2, #0
 8008138:	d1ce      	bne.n	80080d8 <quorem+0x9a>
 800813a:	3c01      	subs	r4, #1
 800813c:	e7c9      	b.n	80080d2 <quorem+0x94>
 800813e:	6812      	ldr	r2, [r2, #0]
 8008140:	3b04      	subs	r3, #4
 8008142:	2a00      	cmp	r2, #0
 8008144:	d1f0      	bne.n	8008128 <quorem+0xea>
 8008146:	3c01      	subs	r4, #1
 8008148:	e7eb      	b.n	8008122 <quorem+0xe4>
 800814a:	2000      	movs	r0, #0
 800814c:	e7ee      	b.n	800812c <quorem+0xee>
	...

08008150 <_dtoa_r>:
 8008150:	e92d 4ff0 	stmdb	sp!, {r4, r5, r6, r7, r8, r9, sl, fp, lr}
 8008154:	ed2d 8b04 	vpush	{d8-d9}
 8008158:	69c5      	ldr	r5, [r0, #28]
 800815a:	b093      	sub	sp, #76	; 0x4c
 800815c:	ed8d 0b02 	vstr	d0, [sp, #8]
 8008160:	ec57 6b10 	vmov	r6, r7, d0
 8008164:	f8dd 8080 	ldr.w	r8, [sp, #128]	; 0x80
 8008168:	9107      	str	r1, [sp, #28]
 800816a:	4604      	mov	r4, r0
 800816c:	920a      	str	r2, [sp, #40]	; 0x28
 800816e:	930d      	str	r3, [sp, #52]	; 0x34
 8008170:	b975      	cbnz	r5, 8008190 <_dtoa_r+0x40>
 8008172:	2010      	movs	r0, #16
 8008174:	f7fb f976 	bl	8003464 <__wrap_malloc>
 8008178:	4602      	mov	r2, r0
 800817a:	61e0      	str	r0, [r4, #28]
 800817c:	b920      	cbnz	r0, 8008188 <_dtoa_r+0x38>
 800817e:	4bae      	ldr	r3, [pc, #696]	; (8008438 <_dtoa_r+0x2e8>)
 8008180:	21ef      	movs	r1, #239	; 0xef
 8008182:	48ae      	ldr	r0, [pc, #696]	; (800843c <_dtoa_r+0x2ec>)
 8008184:	f001 fbc6 	bl	8009914 <__assert_func>
 8008188:	e9c0 5501 	strd	r5, r5, [r0, #4]
 800818c:	6005      	str	r5, [r0, #0]
 800818e:	60c5      	str	r5, [r0, #12]
 8008190:	69e3      	ldr	r3, [r4, #28]
 8008192:	6819      	ldr	r1, [r3, #0]
 8008194:	b151      	cbz	r1, 80081ac <_dtoa_r+0x5c>
 8008196:	685a      	ldr	r2, [r3, #4]
 8008198:	604a      	str	r2, [r1, #4]
 800819a:	2301      	movs	r3, #1
 800819c:	4093      	lsls	r3, r2
 800819e:	608b      	str	r3, [r1, #8]
 80081a0:	4620      	mov	r0, r4
 80081a2:	f000 fe53 	bl	8008e4c <_Bfree>
 80081a6:	69e3      	ldr	r3, [r4, #28]
 80081a8:	2200      	movs	r2, #0
 80081aa:	601a      	str	r2, [r3, #0]
 80081ac:	1e3b      	subs	r3, r7, #0
 80081ae:	bfbb      	ittet	lt
 80081b0:	f023 4300 	biclt.w	r3, r3, #2147483648	; 0x80000000
 80081b4:	9303      	strlt	r3, [sp, #12]
 80081b6:	2300      	movge	r3, #0
 80081b8:	2201      	movlt	r2, #1
 80081ba:	bfac      	ite	ge
 80081bc:	f8c8 3000 	strge.w	r3, [r8]
 80081c0:	f8c8 2000 	strlt.w	r2, [r8]
 80081c4:	4b9e      	ldr	r3, [pc, #632]	; (8008440 <_dtoa_r+0x2f0>)
 80081c6:	f8dd 800c 	ldr.w	r8, [sp, #12]
 80081ca:	ea33 0308 	bics.w	r3, r3, r8
 80081ce:	d11b      	bne.n	8008208 <_dtoa_r+0xb8>
 80081d0:	9a0d      	ldr	r2, [sp, #52]	; 0x34
 80081d2:	f242 730f 	movw	r3, #9999	; 0x270f
 80081d6:	6013      	str	r3, [r2, #0]
 80081d8:	f3c8 0313 	ubfx	r3, r8, #0, #20
 80081dc:	4333      	orrs	r3, r6
 80081de:	f000 8593 	beq.w	8008d08 <_dtoa_r+0xbb8>
 80081e2:	9b21      	ldr	r3, [sp, #132]	; 0x84
 80081e4:	b963      	cbnz	r3, 8008200 <_dtoa_r+0xb0>
 80081e6:	4b97      	ldr	r3, [pc, #604]	; (8008444 <_dtoa_r+0x2f4>)
 80081e8:	e027      	b.n	800823a <_dtoa_r+0xea>
 80081ea:	4b97      	ldr	r3, [pc, #604]	; (8008448 <_dtoa_r+0x2f8>)
 80081ec:	9300      	str	r3, [sp, #0]
 80081ee:	3308      	adds	r3, #8
 80081f0:	9a21      	ldr	r2, [sp, #132]	; 0x84
 80081f2:	6013      	str	r3, [r2, #0]
 80081f4:	9800      	ldr	r0, [sp, #0]
 80081f6:	b013      	add	sp, #76	; 0x4c
 80081f8:	ecbd 8b04 	vpop	{d8-d9}
 80081fc:	e8bd 8ff0 	ldmia.w	sp!, {r4, r5, r6, r7, r8, r9, sl, fp, pc}
 8008200:	4b90      	ldr	r3, [pc, #576]	; (8008444 <_dtoa_r+0x2f4>)
 8008202:	9300      	str	r3, [sp, #0]
 8008204:	3303      	adds	r3, #3
 8008206:	e7f3      	b.n	80081f0 <_dtoa_r+0xa0>
 8008208:	ed9d 7b02 	vldr	d7, [sp, #8]
 800820c:	2200      	movs	r2, #0
 800820e:	ec51 0b17 	vmov	r0, r1, d7
 8008212:	eeb0 8a47 	vmov.f32	s16, s14
 8008216:	eef0 8a67 	vmov.f32	s17, s15
 800821a:	2300      	movs	r3, #0
 800821c:	f7f8 fc74 	bl	8000b08 <__aeabi_dcmpeq>
 8008220:	4681      	mov	r9, r0
 8008222:	b160      	cbz	r0, 800823e <_dtoa_r+0xee>
 8008224:	9a0d      	ldr	r2, [sp, #52]	; 0x34
 8008226:	2301      	movs	r3, #1
 8008228:	6013      	str	r3, [r2, #0]
 800822a:	9b21      	ldr	r3, [sp, #132]	; 0x84
 800822c:	2b00      	cmp	r3, #0
 800822e:	f000 8568 	beq.w	8008d02 <_dtoa_r+0xbb2>
 8008232:	4b86      	ldr	r3, [pc, #536]	; (800844c <_dtoa_r+0x2fc>)
 8008234:	9a21      	ldr	r2, [sp, #132]	; 0x84
 8008236:	6013      	str	r3, [r2, #0]
 8008238:	3b01      	subs	r3, #1
 800823a:	9300      	str	r3, [sp, #0]
 800823c:	e7da      	b.n	80081f4 <_dtoa_r+0xa4>
 800823e:	aa10      	add	r2, sp, #64	; 0x40
 8008240:	a911      	add	r1, sp, #68	; 0x44
 8008242:	4620      	mov	r0, r4
 8008244:	eeb0 0a48 	vmov.f32	s0, s16
 8008248:	eef0 0a68 	vmov.f32	s1, s17
 800824c:	f001 f8e0 	bl	8009410 <__d2b>
 8008250:	f3c8 550a 	ubfx	r5, r8, #20, #11
 8008254:	4682      	mov	sl, r0
 8008256:	2d00      	cmp	r5, #0
 8008258:	d07f      	beq.n	800835a <_dtoa_r+0x20a>
 800825a:	ee18 3a90 	vmov	r3, s17
 800825e:	f3c3 0313 	ubfx	r3, r3, #0, #20
 8008262:	f043 537f 	orr.w	r3, r3, #1069547520	; 0x3fc00000
 8008266:	ec51 0b18 	vmov	r0, r1, d8
 800826a:	f443 1340 	orr.w	r3, r3, #3145728	; 0x300000
 800826e:	f2a5 35ff 	subw	r5, r5, #1023	; 0x3ff
 8008272:	f8cd 9038 	str.w	r9, [sp, #56]	; 0x38
 8008276:	4619      	mov	r1, r3
 8008278:	2200      	movs	r2, #0
 800827a:	4b75      	ldr	r3, [pc, #468]	; (8008450 <_dtoa_r+0x300>)
 800827c:	f7f8 f824 	bl	80002c8 <__aeabi_dsub>
 8008280:	a367      	add	r3, pc, #412	; (adr r3, 8008420 <_dtoa_r+0x2d0>)
 8008282:	e9d3 2300 	ldrd	r2, r3, [r3]
 8008286:	f7f8 f9d7 	bl	8000638 <__aeabi_dmul>
 800828a:	a367      	add	r3, pc, #412	; (adr r3, 8008428 <_dtoa_r+0x2d8>)
 800828c:	e9d3 2300 	ldrd	r2, r3, [r3]
 8008290:	f7f8 f81c 	bl	80002cc <__adddf3>
 8008294:	4606      	mov	r6, r0
 8008296:	4628      	mov	r0, r5
 8008298:	460f      	mov	r7, r1
 800829a:	f7f8 f963 	bl	8000564 <__aeabi_i2d>
 800829e:	a364      	add	r3, pc, #400	; (adr r3, 8008430 <_dtoa_r+0x2e0>)
 80082a0:	e9d3 2300 	ldrd	r2, r3, [r3]
 80082a4:	f7f8 f9c8 	bl	8000638 <__aeabi_dmul>
 80082a8:	4602      	mov	r2, r0
 80082aa:	460b      	mov	r3, r1
 80082ac:	4630      	mov	r0, r6
 80082ae:	4639      	mov	r1, r7
 80082b0:	f7f8 f80c 	bl	80002cc <__adddf3>
 80082b4:	4606      	mov	r6, r0
 80082b6:	460f      	mov	r7, r1
 80082b8:	f7f8 fc6e 	bl	8000b98 <__aeabi_d2iz>
 80082bc:	2200      	movs	r2, #0
 80082be:	4683      	mov	fp, r0
 80082c0:	2300      	movs	r3, #0
 80082c2:	4630      	mov	r0, r6
 80082c4:	4639      	mov	r1, r7
 80082c6:	f7f8 fc29 	bl	8000b1c <__aeabi_dcmplt>
 80082ca:	b148      	cbz	r0, 80082e0 <_dtoa_r+0x190>
 80082cc:	4658      	mov	r0, fp
 80082ce:	f7f8 f949 	bl	8000564 <__aeabi_i2d>
 80082d2:	4632      	mov	r2, r6
 80082d4:	463b      	mov	r3, r7
 80082d6:	f7f8 fc17 	bl	8000b08 <__aeabi_dcmpeq>
 80082da:	b908      	cbnz	r0, 80082e0 <_dtoa_r+0x190>
 80082dc:	f10b 3bff 	add.w	fp, fp, #4294967295
 80082e0:	f1bb 0f16 	cmp.w	fp, #22
 80082e4:	d857      	bhi.n	8008396 <_dtoa_r+0x246>
 80082e6:	4b5b      	ldr	r3, [pc, #364]	; (8008454 <_dtoa_r+0x304>)
 80082e8:	eb03 03cb 	add.w	r3, r3, fp, lsl #3
 80082ec:	e9d3 2300 	ldrd	r2, r3, [r3]
 80082f0:	ec51 0b18 	vmov	r0, r1, d8
 80082f4:	f7f8 fc12 	bl	8000b1c <__aeabi_dcmplt>
 80082f8:	2800      	cmp	r0, #0
 80082fa:	d04e      	beq.n	800839a <_dtoa_r+0x24a>
 80082fc:	f10b 3bff 	add.w	fp, fp, #4294967295
 8008300:	2300      	movs	r3, #0
 8008302:	930c      	str	r3, [sp, #48]	; 0x30
 8008304:	9b10      	ldr	r3, [sp, #64]	; 0x40
 8008306:	1b5b      	subs	r3, r3, r5
 8008308:	1e5a      	subs	r2, r3, #1
 800830a:	bf45      	ittet	mi
 800830c:	f1c3 0301 	rsbmi	r3, r3, #1
 8008310:	9305      	strmi	r3, [sp, #20]
 8008312:	2300      	movpl	r3, #0
 8008314:	2300      	movmi	r3, #0
 8008316:	9206      	str	r2, [sp, #24]
 8008318:	bf54      	ite	pl
 800831a:	9305      	strpl	r3, [sp, #20]
 800831c:	9306      	strmi	r3, [sp, #24]
 800831e:	f1bb 0f00 	cmp.w	fp, #0
 8008322:	db3c      	blt.n	800839e <_dtoa_r+0x24e>
 8008324:	9b06      	ldr	r3, [sp, #24]
 8008326:	f8cd b02c 	str.w	fp, [sp, #44]	; 0x2c
 800832a:	445b      	add	r3, fp
 800832c:	9306      	str	r3, [sp, #24]
 800832e:	2300      	movs	r3, #0
 8008330:	9308      	str	r3, [sp, #32]
 8008332:	9b07      	ldr	r3, [sp, #28]
 8008334:	2b09      	cmp	r3, #9
 8008336:	d868      	bhi.n	800840a <_dtoa_r+0x2ba>
 8008338:	2b05      	cmp	r3, #5
 800833a:	bfc4      	itt	gt
 800833c:	3b04      	subgt	r3, #4
 800833e:	9307      	strgt	r3, [sp, #28]
 8008340:	9b07      	ldr	r3, [sp, #28]
 8008342:	f1a3 0302 	sub.w	r3, r3, #2
 8008346:	bfcc      	ite	gt
 8008348:	2500      	movgt	r5, #0
 800834a:	2501      	movle	r5, #1
 800834c:	2b03      	cmp	r3, #3
 800834e:	f200 8085 	bhi.w	800845c <_dtoa_r+0x30c>
 8008352:	e8df f003 	tbb	[pc, r3]
 8008356:	3b2e      	.short	0x3b2e
 8008358:	5839      	.short	0x5839
 800835a:	e9dd 5310 	ldrd	r5, r3, [sp, #64]	; 0x40
 800835e:	441d      	add	r5, r3
 8008360:	f205 4332 	addw	r3, r5, #1074	; 0x432
 8008364:	2b20      	cmp	r3, #32
 8008366:	bfc1      	itttt	gt
 8008368:	f1c3 0340 	rsbgt	r3, r3, #64	; 0x40
 800836c:	fa08 f803 	lslgt.w	r8, r8, r3
 8008370:	f205 4312 	addwgt	r3, r5, #1042	; 0x412
 8008374:	fa26 f303 	lsrgt.w	r3, r6, r3
 8008378:	bfd6      	itet	le
 800837a:	f1c3 0320 	rsble	r3, r3, #32
 800837e:	ea48 0003 	orrgt.w	r0, r8, r3
 8008382:	fa06 f003 	lslle.w	r0, r6, r3
 8008386:	f7f8 f8dd 	bl	8000544 <__aeabi_ui2d>
 800838a:	2201      	movs	r2, #1
 800838c:	f1a1 73f8 	sub.w	r3, r1, #32505856	; 0x1f00000
 8008390:	3d01      	subs	r5, #1
 8008392:	920e      	str	r2, [sp, #56]	; 0x38
 8008394:	e76f      	b.n	8008276 <_dtoa_r+0x126>
 8008396:	2301      	movs	r3, #1
 8008398:	e7b3      	b.n	8008302 <_dtoa_r+0x1b2>
 800839a:	900c      	str	r0, [sp, #48]	; 0x30
 800839c:	e7b2      	b.n	8008304 <_dtoa_r+0x1b4>
 800839e:	9b05      	ldr	r3, [sp, #20]
 80083a0:	eba3 030b 	sub.w	r3, r3, fp
 80083a4:	9305      	str	r3, [sp, #20]
 80083a6:	f1cb 0300 	rsb	r3, fp, #0
 80083aa:	9308      	str	r3, [sp, #32]
 80083ac:	2300      	movs	r3, #0
 80083ae:	930b      	str	r3, [sp, #44]	; 0x2c
 80083b0:	e7bf      	b.n	8008332 <_dtoa_r+0x1e2>
 80083b2:	2300      	movs	r3, #0
 80083b4:	9309      	str	r3, [sp, #36]	; 0x24
 80083b6:	9b0a      	ldr	r3, [sp, #40]	; 0x28
 80083b8:	2b00      	cmp	r3, #0
 80083ba:	dc52      	bgt.n	8008462 <_dtoa_r+0x312>
 80083bc:	2301      	movs	r3, #1
 80083be:	9301      	str	r3, [sp, #4]
 80083c0:	9304      	str	r3, [sp, #16]
 80083c2:	461a      	mov	r2, r3
 80083c4:	920a      	str	r2, [sp, #40]	; 0x28
 80083c6:	e00b      	b.n	80083e0 <_dtoa_r+0x290>
 80083c8:	2301      	movs	r3, #1
 80083ca:	e7f3      	b.n	80083b4 <_dtoa_r+0x264>
 80083cc:	2300      	movs	r3, #0
 80083ce:	9309      	str	r3, [sp, #36]	; 0x24
 80083d0:	9b0a      	ldr	r3, [sp, #40]	; 0x28
 80083d2:	445b      	add	r3, fp
 80083d4:	9301      	str	r3, [sp, #4]
 80083d6:	3301      	adds	r3, #1
 80083d8:	2b01      	cmp	r3, #1
 80083da:	9304      	str	r3, [sp, #16]
 80083dc:	bfb8      	it	lt
 80083de:	2301      	movlt	r3, #1
 80083e0:	69e0      	ldr	r0, [r4, #28]
 80083e2:	2100      	movs	r1, #0
 80083e4:	2204      	movs	r2, #4
 80083e6:	f102 0614 	add.w	r6, r2, #20
 80083ea:	429e      	cmp	r6, r3
 80083ec:	d93d      	bls.n	800846a <_dtoa_r+0x31a>
 80083ee:	6041      	str	r1, [r0, #4]
 80083f0:	4620      	mov	r0, r4
 80083f2:	f000 fceb 	bl	8008dcc <_Balloc>
 80083f6:	9000      	str	r0, [sp, #0]
 80083f8:	2800      	cmp	r0, #0
 80083fa:	d139      	bne.n	8008470 <_dtoa_r+0x320>
 80083fc:	4b16      	ldr	r3, [pc, #88]	; (8008458 <_dtoa_r+0x308>)
 80083fe:	4602      	mov	r2, r0
 8008400:	f240 11af 	movw	r1, #431	; 0x1af
 8008404:	e6bd      	b.n	8008182 <_dtoa_r+0x32>
 8008406:	2301      	movs	r3, #1
 8008408:	e7e1      	b.n	80083ce <_dtoa_r+0x27e>
 800840a:	2501      	movs	r5, #1
 800840c:	2300      	movs	r3, #0
 800840e:	9307      	str	r3, [sp, #28]
 8008410:	9509      	str	r5, [sp, #36]	; 0x24
 8008412:	f04f 33ff 	mov.w	r3, #4294967295
 8008416:	9301      	str	r3, [sp, #4]
 8008418:	9304      	str	r3, [sp, #16]
 800841a:	2200      	movs	r2, #0
 800841c:	2312      	movs	r3, #18
 800841e:	e7d1      	b.n	80083c4 <_dtoa_r+0x274>
 8008420:	636f4361 	.word	0x636f4361
 8008424:	3fd287a7 	.word	0x3fd287a7
 8008428:	8b60c8b3 	.word	0x8b60c8b3
 800842c:	3fc68a28 	.word	0x3fc68a28
 8008430:	509f79fb 	.word	0x509f79fb
 8008434:	3fd34413 	.word	0x3fd34413
 8008438:	0803d27f 	.word	0x0803d27f
 800843c:	0803d296 	.word	0x0803d296
 8008440:	7ff00000 	.word	0x7ff00000
 8008444:	0803d27b 	.word	0x0803d27b
 8008448:	0803d272 	.word	0x0803d272
 800844c:	0800aab2 	.word	0x0800aab2
 8008450:	3ff80000 	.word	0x3ff80000
 8008454:	0803d380 	.word	0x0803d380
 8008458:	0803d2ee 	.word	0x0803d2ee
 800845c:	2301      	movs	r3, #1
 800845e:	9309      	str	r3, [sp, #36]	; 0x24
 8008460:	e7d7      	b.n	8008412 <_dtoa_r+0x2c2>
 8008462:	9b0a      	ldr	r3, [sp, #40]	; 0x28
 8008464:	9301      	str	r3, [sp, #4]
 8008466:	9304      	str	r3, [sp, #16]
 8008468:	e7ba      	b.n	80083e0 <_dtoa_r+0x290>
 800846a:	3101      	adds	r1, #1
 800846c:	0052      	lsls	r2, r2, #1
 800846e:	e7ba      	b.n	80083e6 <_dtoa_r+0x296>
 8008470:	69e3      	ldr	r3, [r4, #28]
 8008472:	9a00      	ldr	r2, [sp, #0]
 8008474:	601a      	str	r2, [r3, #0]
 8008476:	9b04      	ldr	r3, [sp, #16]
 8008478:	2b0e      	cmp	r3, #14
 800847a:	f200 80a8 	bhi.w	80085ce <_dtoa_r+0x47e>
 800847e:	2d00      	cmp	r5, #0
 8008480:	f000 80a5 	beq.w	80085ce <_dtoa_r+0x47e>
 8008484:	f1bb 0f00 	cmp.w	fp, #0
 8008488:	dd38      	ble.n	80084fc <_dtoa_r+0x3ac>
 800848a:	4bc0      	ldr	r3, [pc, #768]	; (800878c <_dtoa_r+0x63c>)
 800848c:	f00b 020f 	and.w	r2, fp, #15
 8008490:	eb03 03c2 	add.w	r3, r3, r2, lsl #3
 8008494:	f41b 7f80 	tst.w	fp, #256	; 0x100
 8008498:	e9d3 6700 	ldrd	r6, r7, [r3]
 800849c:	ea4f 182b 	mov.w	r8, fp, asr #4
 80084a0:	d019      	beq.n	80084d6 <_dtoa_r+0x386>
 80084a2:	4bbb      	ldr	r3, [pc, #748]	; (8008790 <_dtoa_r+0x640>)
 80084a4:	ec51 0b18 	vmov	r0, r1, d8
 80084a8:	e9d3 2308 	ldrd	r2, r3, [r3, #32]
 80084ac:	f7f8 f9ee 	bl	800088c <__aeabi_ddiv>
 80084b0:	e9cd 0102 	strd	r0, r1, [sp, #8]
 80084b4:	f008 080f 	and.w	r8, r8, #15
 80084b8:	2503      	movs	r5, #3
 80084ba:	f8df 92d4 	ldr.w	r9, [pc, #724]	; 8008790 <_dtoa_r+0x640>
 80084be:	f1b8 0f00 	cmp.w	r8, #0
 80084c2:	d10a      	bne.n	80084da <_dtoa_r+0x38a>
 80084c4:	e9dd 0102 	ldrd	r0, r1, [sp, #8]
 80084c8:	4632      	mov	r2, r6
 80084ca:	463b      	mov	r3, r7
 80084cc:	f7f8 f9de 	bl	800088c <__aeabi_ddiv>
 80084d0:	e9cd 0102 	strd	r0, r1, [sp, #8]
 80084d4:	e02b      	b.n	800852e <_dtoa_r+0x3de>
 80084d6:	2502      	movs	r5, #2
 80084d8:	e7ef      	b.n	80084ba <_dtoa_r+0x36a>
 80084da:	f018 0f01 	tst.w	r8, #1
 80084de:	d008      	beq.n	80084f2 <_dtoa_r+0x3a2>
 80084e0:	4630      	mov	r0, r6
 80084e2:	4639      	mov	r1, r7
 80084e4:	e9d9 2300 	ldrd	r2, r3, [r9]
 80084e8:	f7f8 f8a6 	bl	8000638 <__aeabi_dmul>
 80084ec:	3501      	adds	r5, #1
 80084ee:	4606      	mov	r6, r0
 80084f0:	460f      	mov	r7, r1
 80084f2:	ea4f 0868 	mov.w	r8, r8, asr #1
 80084f6:	f109 0908 	add.w	r9, r9, #8
 80084fa:	e7e0      	b.n	80084be <_dtoa_r+0x36e>
 80084fc:	f000 809f 	beq.w	800863e <_dtoa_r+0x4ee>
 8008500:	f1cb 0600 	rsb	r6, fp, #0
 8008504:	4ba1      	ldr	r3, [pc, #644]	; (800878c <_dtoa_r+0x63c>)
 8008506:	4fa2      	ldr	r7, [pc, #648]	; (8008790 <_dtoa_r+0x640>)
 8008508:	f006 020f 	and.w	r2, r6, #15
 800850c:	eb03 03c2 	add.w	r3, r3, r2, lsl #3
 8008510:	e9d3 2300 	ldrd	r2, r3, [r3]
 8008514:	ec51 0b18 	vmov	r0, r1, d8
 8008518:	f7f8 f88e 	bl	8000638 <__aeabi_dmul>
 800851c:	e9cd 0102 	strd	r0, r1, [sp, #8]
 8008520:	1136      	asrs	r6, r6, #4
 8008522:	2300      	movs	r3, #0
 8008524:	2502      	movs	r5, #2
 8008526:	2e00      	cmp	r6, #0
 8008528:	d17e      	bne.n	8008628 <_dtoa_r+0x4d8>
 800852a:	2b00      	cmp	r3, #0
 800852c:	d1d0      	bne.n	80084d0 <_dtoa_r+0x380>
 800852e:	9b0c      	ldr	r3, [sp, #48]	; 0x30
 8008530:	e9dd 8902 	ldrd	r8, r9, [sp, #8]
 8008534:	2b00      	cmp	r3, #0
 8008536:	f000 8084 	beq.w	8008642 <_dtoa_r+0x4f2>
 800853a:	4b96      	ldr	r3, [pc, #600]	; (8008794 <_dtoa_r+0x644>)
 800853c:	2200      	movs	r2, #0
 800853e:	4640      	mov	r0, r8
 8008540:	4649      	mov	r1, r9
 8008542:	f7f8 faeb 	bl	8000b1c <__aeabi_dcmplt>
 8008546:	2800      	cmp	r0, #0
 8008548:	d07b      	beq.n	8008642 <_dtoa_r+0x4f2>
 800854a:	9b04      	ldr	r3, [sp, #16]
 800854c:	2b00      	cmp	r3, #0
 800854e:	d078      	beq.n	8008642 <_dtoa_r+0x4f2>
 8008550:	9b01      	ldr	r3, [sp, #4]
 8008552:	2b00      	cmp	r3, #0
 8008554:	dd39      	ble.n	80085ca <_dtoa_r+0x47a>
 8008556:	4b90      	ldr	r3, [pc, #576]	; (8008798 <_dtoa_r+0x648>)
 8008558:	2200      	movs	r2, #0
 800855a:	4640      	mov	r0, r8
 800855c:	4649      	mov	r1, r9
 800855e:	f7f8 f86b 	bl	8000638 <__aeabi_dmul>
 8008562:	e9cd 0102 	strd	r0, r1, [sp, #8]
 8008566:	9e01      	ldr	r6, [sp, #4]
 8008568:	f10b 37ff 	add.w	r7, fp, #4294967295
 800856c:	3501      	adds	r5, #1
 800856e:	e9dd 8902 	ldrd	r8, r9, [sp, #8]
 8008572:	4628      	mov	r0, r5
 8008574:	f7f7 fff6 	bl	8000564 <__aeabi_i2d>
 8008578:	4642      	mov	r2, r8
 800857a:	464b      	mov	r3, r9
 800857c:	f7f8 f85c 	bl	8000638 <__aeabi_dmul>
 8008580:	4b86      	ldr	r3, [pc, #536]	; (800879c <_dtoa_r+0x64c>)
 8008582:	2200      	movs	r2, #0
 8008584:	f7f7 fea2 	bl	80002cc <__adddf3>
 8008588:	f1a1 7350 	sub.w	r3, r1, #54525952	; 0x3400000
 800858c:	e9cd 0102 	strd	r0, r1, [sp, #8]
 8008590:	9303      	str	r3, [sp, #12]
 8008592:	2e00      	cmp	r6, #0
 8008594:	d158      	bne.n	8008648 <_dtoa_r+0x4f8>
 8008596:	4b82      	ldr	r3, [pc, #520]	; (80087a0 <_dtoa_r+0x650>)
 8008598:	2200      	movs	r2, #0
 800859a:	4640      	mov	r0, r8
 800859c:	4649      	mov	r1, r9
 800859e:	f7f7 fe93 	bl	80002c8 <__aeabi_dsub>
 80085a2:	e9dd 2302 	ldrd	r2, r3, [sp, #8]
 80085a6:	4680      	mov	r8, r0
 80085a8:	4689      	mov	r9, r1
 80085aa:	f7f8 fad5 	bl	8000b58 <__aeabi_dcmpgt>
 80085ae:	2800      	cmp	r0, #0
 80085b0:	f040 8296 	bne.w	8008ae0 <_dtoa_r+0x990>
 80085b4:	e9dd 2102 	ldrd	r2, r1, [sp, #8]
 80085b8:	4640      	mov	r0, r8
 80085ba:	f101 4300 	add.w	r3, r1, #2147483648	; 0x80000000
 80085be:	4649      	mov	r1, r9
 80085c0:	f7f8 faac 	bl	8000b1c <__aeabi_dcmplt>
 80085c4:	2800      	cmp	r0, #0
 80085c6:	f040 8289 	bne.w	8008adc <_dtoa_r+0x98c>
 80085ca:	ed8d 8b02 	vstr	d8, [sp, #8]
 80085ce:	9b11      	ldr	r3, [sp, #68]	; 0x44
 80085d0:	2b00      	cmp	r3, #0
 80085d2:	f2c0 814e 	blt.w	8008872 <_dtoa_r+0x722>
 80085d6:	f1bb 0f0e 	cmp.w	fp, #14
 80085da:	f300 814a 	bgt.w	8008872 <_dtoa_r+0x722>
 80085de:	4b6b      	ldr	r3, [pc, #428]	; (800878c <_dtoa_r+0x63c>)
 80085e0:	eb03 03cb 	add.w	r3, r3, fp, lsl #3
 80085e4:	e9d3 8900 	ldrd	r8, r9, [r3]
 80085e8:	9b0a      	ldr	r3, [sp, #40]	; 0x28
 80085ea:	2b00      	cmp	r3, #0
 80085ec:	f280 80dc 	bge.w	80087a8 <_dtoa_r+0x658>
 80085f0:	9b04      	ldr	r3, [sp, #16]
 80085f2:	2b00      	cmp	r3, #0
 80085f4:	f300 80d8 	bgt.w	80087a8 <_dtoa_r+0x658>
 80085f8:	f040 826f 	bne.w	8008ada <_dtoa_r+0x98a>
 80085fc:	4b68      	ldr	r3, [pc, #416]	; (80087a0 <_dtoa_r+0x650>)
 80085fe:	2200      	movs	r2, #0
 8008600:	4640      	mov	r0, r8
 8008602:	4649      	mov	r1, r9
 8008604:	f7f8 f818 	bl	8000638 <__aeabi_dmul>
 8008608:	e9dd 2302 	ldrd	r2, r3, [sp, #8]
 800860c:	f7f8 fa9a 	bl	8000b44 <__aeabi_dcmpge>
 8008610:	9e04      	ldr	r6, [sp, #16]
 8008612:	4637      	mov	r7, r6
 8008614:	2800      	cmp	r0, #0
 8008616:	f040 8245 	bne.w	8008aa4 <_dtoa_r+0x954>
 800861a:	9d00      	ldr	r5, [sp, #0]
 800861c:	2331      	movs	r3, #49	; 0x31
 800861e:	f805 3b01 	strb.w	r3, [r5], #1
 8008622:	f10b 0b01 	add.w	fp, fp, #1
 8008626:	e241      	b.n	8008aac <_dtoa_r+0x95c>
 8008628:	07f2      	lsls	r2, r6, #31
 800862a:	d505      	bpl.n	8008638 <_dtoa_r+0x4e8>
 800862c:	e9d7 2300 	ldrd	r2, r3, [r7]
 8008630:	f7f8 f802 	bl	8000638 <__aeabi_dmul>
 8008634:	3501      	adds	r5, #1
 8008636:	2301      	movs	r3, #1
 8008638:	1076      	asrs	r6, r6, #1
 800863a:	3708      	adds	r7, #8
 800863c:	e773      	b.n	8008526 <_dtoa_r+0x3d6>
 800863e:	2502      	movs	r5, #2
 8008640:	e775      	b.n	800852e <_dtoa_r+0x3de>
 8008642:	9e04      	ldr	r6, [sp, #16]
 8008644:	465f      	mov	r7, fp
 8008646:	e792      	b.n	800856e <_dtoa_r+0x41e>
 8008648:	9900      	ldr	r1, [sp, #0]
 800864a:	4b50      	ldr	r3, [pc, #320]	; (800878c <_dtoa_r+0x63c>)
 800864c:	ed9d 7b02 	vldr	d7, [sp, #8]
 8008650:	4431      	add	r1, r6
 8008652:	9102      	str	r1, [sp, #8]
 8008654:	9909      	ldr	r1, [sp, #36]	; 0x24
 8008656:	eeb0 9a47 	vmov.f32	s18, s14
 800865a:	eef0 9a67 	vmov.f32	s19, s15
 800865e:	eb03 03c6 	add.w	r3, r3, r6, lsl #3
 8008662:	e953 2302 	ldrd	r2, r3, [r3, #-8]
 8008666:	2900      	cmp	r1, #0
 8008668:	d044      	beq.n	80086f4 <_dtoa_r+0x5a4>
 800866a:	494e      	ldr	r1, [pc, #312]	; (80087a4 <_dtoa_r+0x654>)
 800866c:	2000      	movs	r0, #0
 800866e:	f7f8 f90d 	bl	800088c <__aeabi_ddiv>
 8008672:	ec53 2b19 	vmov	r2, r3, d9
 8008676:	f7f7 fe27 	bl	80002c8 <__aeabi_dsub>
 800867a:	9d00      	ldr	r5, [sp, #0]
 800867c:	ec41 0b19 	vmov	d9, r0, r1
 8008680:	4649      	mov	r1, r9
 8008682:	4640      	mov	r0, r8
 8008684:	f7f8 fa88 	bl	8000b98 <__aeabi_d2iz>
 8008688:	4606      	mov	r6, r0
 800868a:	f7f7 ff6b 	bl	8000564 <__aeabi_i2d>
 800868e:	4602      	mov	r2, r0
 8008690:	460b      	mov	r3, r1
 8008692:	4640      	mov	r0, r8
 8008694:	4649      	mov	r1, r9
 8008696:	f7f7 fe17 	bl	80002c8 <__aeabi_dsub>
 800869a:	3630      	adds	r6, #48	; 0x30
 800869c:	f805 6b01 	strb.w	r6, [r5], #1
 80086a0:	ec53 2b19 	vmov	r2, r3, d9
 80086a4:	4680      	mov	r8, r0
 80086a6:	4689      	mov	r9, r1
 80086a8:	f7f8 fa38 	bl	8000b1c <__aeabi_dcmplt>
 80086ac:	2800      	cmp	r0, #0
 80086ae:	d164      	bne.n	800877a <_dtoa_r+0x62a>
 80086b0:	4642      	mov	r2, r8
 80086b2:	464b      	mov	r3, r9
 80086b4:	4937      	ldr	r1, [pc, #220]	; (8008794 <_dtoa_r+0x644>)
 80086b6:	2000      	movs	r0, #0
 80086b8:	f7f7 fe06 	bl	80002c8 <__aeabi_dsub>
 80086bc:	ec53 2b19 	vmov	r2, r3, d9
 80086c0:	f7f8 fa2c 	bl	8000b1c <__aeabi_dcmplt>
 80086c4:	2800      	cmp	r0, #0
 80086c6:	f040 80b6 	bne.w	8008836 <_dtoa_r+0x6e6>
 80086ca:	9b02      	ldr	r3, [sp, #8]
 80086cc:	429d      	cmp	r5, r3
 80086ce:	f43f af7c 	beq.w	80085ca <_dtoa_r+0x47a>
 80086d2:	4b31      	ldr	r3, [pc, #196]	; (8008798 <_dtoa_r+0x648>)
 80086d4:	ec51 0b19 	vmov	r0, r1, d9
 80086d8:	2200      	movs	r2, #0
 80086da:	f7f7 ffad 	bl	8000638 <__aeabi_dmul>
 80086de:	4b2e      	ldr	r3, [pc, #184]	; (8008798 <_dtoa_r+0x648>)
 80086e0:	ec41 0b19 	vmov	d9, r0, r1
 80086e4:	2200      	movs	r2, #0
 80086e6:	4640      	mov	r0, r8
 80086e8:	4649      	mov	r1, r9
 80086ea:	f7f7 ffa5 	bl	8000638 <__aeabi_dmul>
 80086ee:	4680      	mov	r8, r0
 80086f0:	4689      	mov	r9, r1
 80086f2:	e7c5      	b.n	8008680 <_dtoa_r+0x530>
 80086f4:	ec51 0b17 	vmov	r0, r1, d7
 80086f8:	f7f7 ff9e 	bl	8000638 <__aeabi_dmul>
 80086fc:	9b02      	ldr	r3, [sp, #8]
 80086fe:	9d00      	ldr	r5, [sp, #0]
 8008700:	930f      	str	r3, [sp, #60]	; 0x3c
 8008702:	ec41 0b19 	vmov	d9, r0, r1
 8008706:	4649      	mov	r1, r9
 8008708:	4640      	mov	r0, r8
 800870a:	f7f8 fa45 	bl	8000b98 <__aeabi_d2iz>
 800870e:	4606      	mov	r6, r0
 8008710:	f7f7 ff28 	bl	8000564 <__aeabi_i2d>
 8008714:	3630      	adds	r6, #48	; 0x30
 8008716:	4602      	mov	r2, r0
 8008718:	460b      	mov	r3, r1
 800871a:	4640      	mov	r0, r8
 800871c:	4649      	mov	r1, r9
 800871e:	f7f7 fdd3 	bl	80002c8 <__aeabi_dsub>
 8008722:	f805 6b01 	strb.w	r6, [r5], #1
 8008726:	9b02      	ldr	r3, [sp, #8]
 8008728:	429d      	cmp	r5, r3
 800872a:	4680      	mov	r8, r0
 800872c:	4689      	mov	r9, r1
 800872e:	f04f 0200 	mov.w	r2, #0
 8008732:	d124      	bne.n	800877e <_dtoa_r+0x62e>
 8008734:	4b1b      	ldr	r3, [pc, #108]	; (80087a4 <_dtoa_r+0x654>)
 8008736:	ec51 0b19 	vmov	r0, r1, d9
 800873a:	f7f7 fdc7 	bl	80002cc <__adddf3>
 800873e:	4602      	mov	r2, r0
 8008740:	460b      	mov	r3, r1
 8008742:	4640      	mov	r0, r8
 8008744:	4649      	mov	r1, r9
 8008746:	f7f8 fa07 	bl	8000b58 <__aeabi_dcmpgt>
 800874a:	2800      	cmp	r0, #0
 800874c:	d173      	bne.n	8008836 <_dtoa_r+0x6e6>
 800874e:	ec53 2b19 	vmov	r2, r3, d9
 8008752:	4914      	ldr	r1, [pc, #80]	; (80087a4 <_dtoa_r+0x654>)
 8008754:	2000      	movs	r0, #0
 8008756:	f7f7 fdb7 	bl	80002c8 <__aeabi_dsub>
 800875a:	4602      	mov	r2, r0
 800875c:	460b      	mov	r3, r1
 800875e:	4640      	mov	r0, r8
 8008760:	4649      	mov	r1, r9
 8008762:	f7f8 f9db 	bl	8000b1c <__aeabi_dcmplt>
 8008766:	2800      	cmp	r0, #0
 8008768:	f43f af2f 	beq.w	80085ca <_dtoa_r+0x47a>
 800876c:	9d0f      	ldr	r5, [sp, #60]	; 0x3c
 800876e:	1e6b      	subs	r3, r5, #1
 8008770:	930f      	str	r3, [sp, #60]	; 0x3c
 8008772:	f815 3c01 	ldrb.w	r3, [r5, #-1]
 8008776:	2b30      	cmp	r3, #48	; 0x30
 8008778:	d0f8      	beq.n	800876c <_dtoa_r+0x61c>
 800877a:	46bb      	mov	fp, r7
 800877c:	e04a      	b.n	8008814 <_dtoa_r+0x6c4>
 800877e:	4b06      	ldr	r3, [pc, #24]	; (8008798 <_dtoa_r+0x648>)
 8008780:	f7f7 ff5a 	bl	8000638 <__aeabi_dmul>
 8008784:	4680      	mov	r8, r0
 8008786:	4689      	mov	r9, r1
 8008788:	e7bd      	b.n	8008706 <_dtoa_r+0x5b6>
 800878a:	bf00      	nop
 800878c:	0803d380 	.word	0x0803d380
 8008790:	0803d358 	.word	0x0803d358
 8008794:	3ff00000 	.word	0x3ff00000
 8008798:	40240000 	.word	0x40240000
 800879c:	401c0000 	.word	0x401c0000
 80087a0:	40140000 	.word	0x40140000
 80087a4:	3fe00000 	.word	0x3fe00000
 80087a8:	e9dd 6702 	ldrd	r6, r7, [sp, #8]
 80087ac:	9d00      	ldr	r5, [sp, #0]
 80087ae:	4642      	mov	r2, r8
 80087b0:	464b      	mov	r3, r9
 80087b2:	4630      	mov	r0, r6
 80087b4:	4639      	mov	r1, r7
 80087b6:	f7f8 f869 	bl	800088c <__aeabi_ddiv>
 80087ba:	f7f8 f9ed 	bl	8000b98 <__aeabi_d2iz>
 80087be:	9001      	str	r0, [sp, #4]
 80087c0:	f7f7 fed0 	bl	8000564 <__aeabi_i2d>
 80087c4:	4642      	mov	r2, r8
 80087c6:	464b      	mov	r3, r9
 80087c8:	f7f7 ff36 	bl	8000638 <__aeabi_dmul>
 80087cc:	4602      	mov	r2, r0
 80087ce:	460b      	mov	r3, r1
 80087d0:	4630      	mov	r0, r6
 80087d2:	4639      	mov	r1, r7
 80087d4:	f7f7 fd78 	bl	80002c8 <__aeabi_dsub>
 80087d8:	9e01      	ldr	r6, [sp, #4]
 80087da:	9f04      	ldr	r7, [sp, #16]
 80087dc:	3630      	adds	r6, #48	; 0x30
 80087de:	f805 6b01 	strb.w	r6, [r5], #1
 80087e2:	9e00      	ldr	r6, [sp, #0]
 80087e4:	1bae      	subs	r6, r5, r6
 80087e6:	42b7      	cmp	r7, r6
 80087e8:	4602      	mov	r2, r0
 80087ea:	460b      	mov	r3, r1
 80087ec:	d134      	bne.n	8008858 <_dtoa_r+0x708>
 80087ee:	f7f7 fd6d 	bl	80002cc <__adddf3>
 80087f2:	4642      	mov	r2, r8
 80087f4:	464b      	mov	r3, r9
 80087f6:	4606      	mov	r6, r0
 80087f8:	460f      	mov	r7, r1
 80087fa:	f7f8 f9ad 	bl	8000b58 <__aeabi_dcmpgt>
 80087fe:	b9c8      	cbnz	r0, 8008834 <_dtoa_r+0x6e4>
 8008800:	4642      	mov	r2, r8
 8008802:	464b      	mov	r3, r9
 8008804:	4630      	mov	r0, r6
 8008806:	4639      	mov	r1, r7
 8008808:	f7f8 f97e 	bl	8000b08 <__aeabi_dcmpeq>
 800880c:	b110      	cbz	r0, 8008814 <_dtoa_r+0x6c4>
 800880e:	9b01      	ldr	r3, [sp, #4]
 8008810:	07db      	lsls	r3, r3, #31
 8008812:	d40f      	bmi.n	8008834 <_dtoa_r+0x6e4>
 8008814:	4651      	mov	r1, sl
 8008816:	4620      	mov	r0, r4
 8008818:	f000 fb18 	bl	8008e4c <_Bfree>
 800881c:	2300      	movs	r3, #0
 800881e:	9a0d      	ldr	r2, [sp, #52]	; 0x34
 8008820:	702b      	strb	r3, [r5, #0]
 8008822:	f10b 0301 	add.w	r3, fp, #1
 8008826:	6013      	str	r3, [r2, #0]
 8008828:	9b21      	ldr	r3, [sp, #132]	; 0x84
 800882a:	2b00      	cmp	r3, #0
 800882c:	f43f ace2 	beq.w	80081f4 <_dtoa_r+0xa4>
 8008830:	601d      	str	r5, [r3, #0]
 8008832:	e4df      	b.n	80081f4 <_dtoa_r+0xa4>
 8008834:	465f      	mov	r7, fp
 8008836:	462b      	mov	r3, r5
 8008838:	461d      	mov	r5, r3
 800883a:	f813 2d01 	ldrb.w	r2, [r3, #-1]!
 800883e:	2a39      	cmp	r2, #57	; 0x39
 8008840:	d106      	bne.n	8008850 <_dtoa_r+0x700>
 8008842:	9a00      	ldr	r2, [sp, #0]
 8008844:	429a      	cmp	r2, r3
 8008846:	d1f7      	bne.n	8008838 <_dtoa_r+0x6e8>
 8008848:	9900      	ldr	r1, [sp, #0]
 800884a:	2230      	movs	r2, #48	; 0x30
 800884c:	3701      	adds	r7, #1
 800884e:	700a      	strb	r2, [r1, #0]
 8008850:	781a      	ldrb	r2, [r3, #0]
 8008852:	3201      	adds	r2, #1
 8008854:	701a      	strb	r2, [r3, #0]
 8008856:	e790      	b.n	800877a <_dtoa_r+0x62a>
 8008858:	4ba3      	ldr	r3, [pc, #652]	; (8008ae8 <_dtoa_r+0x998>)
 800885a:	2200      	movs	r2, #0
 800885c:	f7f7 feec 	bl	8000638 <__aeabi_dmul>
 8008860:	2200      	movs	r2, #0
 8008862:	2300      	movs	r3, #0
 8008864:	4606      	mov	r6, r0
 8008866:	460f      	mov	r7, r1
 8008868:	f7f8 f94e 	bl	8000b08 <__aeabi_dcmpeq>
 800886c:	2800      	cmp	r0, #0
 800886e:	d09e      	beq.n	80087ae <_dtoa_r+0x65e>
 8008870:	e7d0      	b.n	8008814 <_dtoa_r+0x6c4>
 8008872:	9a09      	ldr	r2, [sp, #36]	; 0x24
 8008874:	2a00      	cmp	r2, #0
 8008876:	f000 80ca 	beq.w	8008a0e <_dtoa_r+0x8be>
 800887a:	9a07      	ldr	r2, [sp, #28]
 800887c:	2a01      	cmp	r2, #1
 800887e:	f300 80ad 	bgt.w	80089dc <_dtoa_r+0x88c>
 8008882:	9a0e      	ldr	r2, [sp, #56]	; 0x38
 8008884:	2a00      	cmp	r2, #0
 8008886:	f000 80a5 	beq.w	80089d4 <_dtoa_r+0x884>
 800888a:	f203 4333 	addw	r3, r3, #1075	; 0x433
 800888e:	9e08      	ldr	r6, [sp, #32]
 8008890:	9d05      	ldr	r5, [sp, #20]
 8008892:	9a05      	ldr	r2, [sp, #20]
 8008894:	441a      	add	r2, r3
 8008896:	9205      	str	r2, [sp, #20]
 8008898:	9a06      	ldr	r2, [sp, #24]
 800889a:	2101      	movs	r1, #1
 800889c:	441a      	add	r2, r3
 800889e:	4620      	mov	r0, r4
 80088a0:	9206      	str	r2, [sp, #24]
 80088a2:	f000 fb89 	bl	8008fb8 <__i2b>
 80088a6:	4607      	mov	r7, r0
 80088a8:	b165      	cbz	r5, 80088c4 <_dtoa_r+0x774>
 80088aa:	9b06      	ldr	r3, [sp, #24]
 80088ac:	2b00      	cmp	r3, #0
 80088ae:	dd09      	ble.n	80088c4 <_dtoa_r+0x774>
 80088b0:	42ab      	cmp	r3, r5
 80088b2:	9a05      	ldr	r2, [sp, #20]
 80088b4:	bfa8      	it	ge
 80088b6:	462b      	movge	r3, r5
 80088b8:	1ad2      	subs	r2, r2, r3
 80088ba:	9205      	str	r2, [sp, #20]
 80088bc:	9a06      	ldr	r2, [sp, #24]
 80088be:	1aed      	subs	r5, r5, r3
 80088c0:	1ad3      	subs	r3, r2, r3
 80088c2:	9306      	str	r3, [sp, #24]
 80088c4:	9b08      	ldr	r3, [sp, #32]
 80088c6:	b1f3      	cbz	r3, 8008906 <_dtoa_r+0x7b6>
 80088c8:	9b09      	ldr	r3, [sp, #36]	; 0x24
 80088ca:	2b00      	cmp	r3, #0
 80088cc:	f000 80a3 	beq.w	8008a16 <_dtoa_r+0x8c6>
 80088d0:	2e00      	cmp	r6, #0
 80088d2:	dd10      	ble.n	80088f6 <_dtoa_r+0x7a6>
 80088d4:	4639      	mov	r1, r7
 80088d6:	4632      	mov	r2, r6
 80088d8:	4620      	mov	r0, r4
 80088da:	f000 fc2d 	bl	8009138 <__pow5mult>
 80088de:	4652      	mov	r2, sl
 80088e0:	4601      	mov	r1, r0
 80088e2:	4607      	mov	r7, r0
 80088e4:	4620      	mov	r0, r4
 80088e6:	f000 fb7d 	bl	8008fe4 <__multiply>
 80088ea:	4651      	mov	r1, sl
 80088ec:	4680      	mov	r8, r0
 80088ee:	4620      	mov	r0, r4
 80088f0:	f000 faac 	bl	8008e4c <_Bfree>
 80088f4:	46c2      	mov	sl, r8
 80088f6:	9b08      	ldr	r3, [sp, #32]
 80088f8:	1b9a      	subs	r2, r3, r6
 80088fa:	d004      	beq.n	8008906 <_dtoa_r+0x7b6>
 80088fc:	4651      	mov	r1, sl
 80088fe:	4620      	mov	r0, r4
 8008900:	f000 fc1a 	bl	8009138 <__pow5mult>
 8008904:	4682      	mov	sl, r0
 8008906:	2101      	movs	r1, #1
 8008908:	4620      	mov	r0, r4
 800890a:	f000 fb55 	bl	8008fb8 <__i2b>
 800890e:	9b0b      	ldr	r3, [sp, #44]	; 0x2c
 8008910:	2b00      	cmp	r3, #0
 8008912:	4606      	mov	r6, r0
 8008914:	f340 8081 	ble.w	8008a1a <_dtoa_r+0x8ca>
 8008918:	461a      	mov	r2, r3
 800891a:	4601      	mov	r1, r0
 800891c:	4620      	mov	r0, r4
 800891e:	f000 fc0b 	bl	8009138 <__pow5mult>
 8008922:	9b07      	ldr	r3, [sp, #28]
 8008924:	2b01      	cmp	r3, #1
 8008926:	4606      	mov	r6, r0
 8008928:	dd7a      	ble.n	8008a20 <_dtoa_r+0x8d0>
 800892a:	f04f 0800 	mov.w	r8, #0
 800892e:	6933      	ldr	r3, [r6, #16]
 8008930:	eb06 0383 	add.w	r3, r6, r3, lsl #2
 8008934:	6918      	ldr	r0, [r3, #16]
 8008936:	f000 faf1 	bl	8008f1c <__hi0bits>
 800893a:	f1c0 0020 	rsb	r0, r0, #32
 800893e:	9b06      	ldr	r3, [sp, #24]
 8008940:	4418      	add	r0, r3
 8008942:	f010 001f 	ands.w	r0, r0, #31
 8008946:	f000 8094 	beq.w	8008a72 <_dtoa_r+0x922>
 800894a:	f1c0 0320 	rsb	r3, r0, #32
 800894e:	2b04      	cmp	r3, #4
 8008950:	f340 8085 	ble.w	8008a5e <_dtoa_r+0x90e>
 8008954:	9b05      	ldr	r3, [sp, #20]
 8008956:	f1c0 001c 	rsb	r0, r0, #28
 800895a:	4403      	add	r3, r0
 800895c:	9305      	str	r3, [sp, #20]
 800895e:	9b06      	ldr	r3, [sp, #24]
 8008960:	4403      	add	r3, r0
 8008962:	4405      	add	r5, r0
 8008964:	9306      	str	r3, [sp, #24]
 8008966:	9b05      	ldr	r3, [sp, #20]
 8008968:	2b00      	cmp	r3, #0
 800896a:	dd05      	ble.n	8008978 <_dtoa_r+0x828>
 800896c:	4651      	mov	r1, sl
 800896e:	461a      	mov	r2, r3
 8008970:	4620      	mov	r0, r4
 8008972:	f000 fc3b 	bl	80091ec <__lshift>
 8008976:	4682      	mov	sl, r0
 8008978:	9b06      	ldr	r3, [sp, #24]
 800897a:	2b00      	cmp	r3, #0
 800897c:	dd05      	ble.n	800898a <_dtoa_r+0x83a>
 800897e:	4631      	mov	r1, r6
 8008980:	461a      	mov	r2, r3
 8008982:	4620      	mov	r0, r4
 8008984:	f000 fc32 	bl	80091ec <__lshift>
 8008988:	4606      	mov	r6, r0
 800898a:	9b0c      	ldr	r3, [sp, #48]	; 0x30
 800898c:	2b00      	cmp	r3, #0
 800898e:	d072      	beq.n	8008a76 <_dtoa_r+0x926>
 8008990:	4631      	mov	r1, r6
 8008992:	4650      	mov	r0, sl
 8008994:	f000 fc96 	bl	80092c4 <__mcmp>
 8008998:	2800      	cmp	r0, #0
 800899a:	da6c      	bge.n	8008a76 <_dtoa_r+0x926>
 800899c:	2300      	movs	r3, #0
 800899e:	4651      	mov	r1, sl
 80089a0:	220a      	movs	r2, #10
 80089a2:	4620      	mov	r0, r4
 80089a4:	f000 fa74 	bl	8008e90 <__multadd>
 80089a8:	9b09      	ldr	r3, [sp, #36]	; 0x24
 80089aa:	f10b 3bff 	add.w	fp, fp, #4294967295
 80089ae:	4682      	mov	sl, r0
 80089b0:	2b00      	cmp	r3, #0
 80089b2:	f000 81b0 	beq.w	8008d16 <_dtoa_r+0xbc6>
 80089b6:	2300      	movs	r3, #0
 80089b8:	4639      	mov	r1, r7
 80089ba:	220a      	movs	r2, #10
 80089bc:	4620      	mov	r0, r4
 80089be:	f000 fa67 	bl	8008e90 <__multadd>
 80089c2:	9b01      	ldr	r3, [sp, #4]
 80089c4:	2b00      	cmp	r3, #0
 80089c6:	4607      	mov	r7, r0
 80089c8:	f300 8096 	bgt.w	8008af8 <_dtoa_r+0x9a8>
 80089cc:	9b07      	ldr	r3, [sp, #28]
 80089ce:	2b02      	cmp	r3, #2
 80089d0:	dc59      	bgt.n	8008a86 <_dtoa_r+0x936>
 80089d2:	e091      	b.n	8008af8 <_dtoa_r+0x9a8>
 80089d4:	9b10      	ldr	r3, [sp, #64]	; 0x40
 80089d6:	f1c3 0336 	rsb	r3, r3, #54	; 0x36
 80089da:	e758      	b.n	800888e <_dtoa_r+0x73e>
 80089dc:	9b04      	ldr	r3, [sp, #16]
 80089de:	1e5e      	subs	r6, r3, #1
 80089e0:	9b08      	ldr	r3, [sp, #32]
 80089e2:	42b3      	cmp	r3, r6
 80089e4:	bfbf      	itttt	lt
 80089e6:	9b08      	ldrlt	r3, [sp, #32]
 80089e8:	9a0b      	ldrlt	r2, [sp, #44]	; 0x2c
 80089ea:	9608      	strlt	r6, [sp, #32]
 80089ec:	1af3      	sublt	r3, r6, r3
 80089ee:	bfb4      	ite	lt
 80089f0:	18d2      	addlt	r2, r2, r3
 80089f2:	1b9e      	subge	r6, r3, r6
 80089f4:	9b04      	ldr	r3, [sp, #16]
 80089f6:	bfbc      	itt	lt
 80089f8:	920b      	strlt	r2, [sp, #44]	; 0x2c
 80089fa:	2600      	movlt	r6, #0
 80089fc:	2b00      	cmp	r3, #0
 80089fe:	bfb7      	itett	lt
 8008a00:	e9dd 2304 	ldrdlt	r2, r3, [sp, #16]
 8008a04:	e9dd 3504 	ldrdge	r3, r5, [sp, #16]
 8008a08:	1a9d      	sublt	r5, r3, r2
 8008a0a:	2300      	movlt	r3, #0
 8008a0c:	e741      	b.n	8008892 <_dtoa_r+0x742>
 8008a0e:	9e08      	ldr	r6, [sp, #32]
 8008a10:	9d05      	ldr	r5, [sp, #20]
 8008a12:	9f09      	ldr	r7, [sp, #36]	; 0x24
 8008a14:	e748      	b.n	80088a8 <_dtoa_r+0x758>
 8008a16:	9a08      	ldr	r2, [sp, #32]
 8008a18:	e770      	b.n	80088fc <_dtoa_r+0x7ac>
 8008a1a:	9b07      	ldr	r3, [sp, #28]
 8008a1c:	2b01      	cmp	r3, #1
 8008a1e:	dc19      	bgt.n	8008a54 <_dtoa_r+0x904>
 8008a20:	9b02      	ldr	r3, [sp, #8]
 8008a22:	b9bb      	cbnz	r3, 8008a54 <_dtoa_r+0x904>
 8008a24:	9b03      	ldr	r3, [sp, #12]
 8008a26:	f3c3 0313 	ubfx	r3, r3, #0, #20
 8008a2a:	b99b      	cbnz	r3, 8008a54 <_dtoa_r+0x904>
 8008a2c:	9b03      	ldr	r3, [sp, #12]
 8008a2e:	f023 4300 	bic.w	r3, r3, #2147483648	; 0x80000000
 8008a32:	0d1b      	lsrs	r3, r3, #20
 8008a34:	051b      	lsls	r3, r3, #20
 8008a36:	b183      	cbz	r3, 8008a5a <_dtoa_r+0x90a>
 8008a38:	9b05      	ldr	r3, [sp, #20]
 8008a3a:	3301      	adds	r3, #1
 8008a3c:	9305      	str	r3, [sp, #20]
 8008a3e:	9b06      	ldr	r3, [sp, #24]
 8008a40:	3301      	adds	r3, #1
 8008a42:	9306      	str	r3, [sp, #24]
 8008a44:	f04f 0801 	mov.w	r8, #1
 8008a48:	9b0b      	ldr	r3, [sp, #44]	; 0x2c
 8008a4a:	2b00      	cmp	r3, #0
 8008a4c:	f47f af6f 	bne.w	800892e <_dtoa_r+0x7de>
 8008a50:	2001      	movs	r0, #1
 8008a52:	e774      	b.n	800893e <_dtoa_r+0x7ee>
 8008a54:	f04f 0800 	mov.w	r8, #0
 8008a58:	e7f6      	b.n	8008a48 <_dtoa_r+0x8f8>
 8008a5a:	4698      	mov	r8, r3
 8008a5c:	e7f4      	b.n	8008a48 <_dtoa_r+0x8f8>
 8008a5e:	d082      	beq.n	8008966 <_dtoa_r+0x816>
 8008a60:	9a05      	ldr	r2, [sp, #20]
 8008a62:	331c      	adds	r3, #28
 8008a64:	441a      	add	r2, r3
 8008a66:	9205      	str	r2, [sp, #20]
 8008a68:	9a06      	ldr	r2, [sp, #24]
 8008a6a:	441a      	add	r2, r3
 8008a6c:	441d      	add	r5, r3
 8008a6e:	9206      	str	r2, [sp, #24]
 8008a70:	e779      	b.n	8008966 <_dtoa_r+0x816>
 8008a72:	4603      	mov	r3, r0
 8008a74:	e7f4      	b.n	8008a60 <_dtoa_r+0x910>
 8008a76:	9b04      	ldr	r3, [sp, #16]
 8008a78:	2b00      	cmp	r3, #0
 8008a7a:	dc37      	bgt.n	8008aec <_dtoa_r+0x99c>
 8008a7c:	9b07      	ldr	r3, [sp, #28]
 8008a7e:	2b02      	cmp	r3, #2
 8008a80:	dd34      	ble.n	8008aec <_dtoa_r+0x99c>
 8008a82:	9b04      	ldr	r3, [sp, #16]
 8008a84:	9301      	str	r3, [sp, #4]
 8008a86:	9b01      	ldr	r3, [sp, #4]
 8008a88:	b963      	cbnz	r3, 8008aa4 <_dtoa_r+0x954>
 8008a8a:	4631      	mov	r1, r6
 8008a8c:	2205      	movs	r2, #5
 8008a8e:	4620      	mov	r0, r4
 8008a90:	f000 f9fe 	bl	8008e90 <__multadd>
 8008a94:	4601      	mov	r1, r0
 8008a96:	4606      	mov	r6, r0
 8008a98:	4650      	mov	r0, sl
 8008a9a:	f000 fc13 	bl	80092c4 <__mcmp>
 8008a9e:	2800      	cmp	r0, #0
 8008aa0:	f73f adbb 	bgt.w	800861a <_dtoa_r+0x4ca>
 8008aa4:	9b0a      	ldr	r3, [sp, #40]	; 0x28
 8008aa6:	9d00      	ldr	r5, [sp, #0]
 8008aa8:	ea6f 0b03 	mvn.w	fp, r3
 8008aac:	f04f 0800 	mov.w	r8, #0
 8008ab0:	4631      	mov	r1, r6
 8008ab2:	4620      	mov	r0, r4
 8008ab4:	f000 f9ca 	bl	8008e4c <_Bfree>
 8008ab8:	2f00      	cmp	r7, #0
 8008aba:	f43f aeab 	beq.w	8008814 <_dtoa_r+0x6c4>
 8008abe:	f1b8 0f00 	cmp.w	r8, #0
 8008ac2:	d005      	beq.n	8008ad0 <_dtoa_r+0x980>
 8008ac4:	45b8      	cmp	r8, r7
 8008ac6:	d003      	beq.n	8008ad0 <_dtoa_r+0x980>
 8008ac8:	4641      	mov	r1, r8
 8008aca:	4620      	mov	r0, r4
 8008acc:	f000 f9be 	bl	8008e4c <_Bfree>
 8008ad0:	4639      	mov	r1, r7
 8008ad2:	4620      	mov	r0, r4
 8008ad4:	f000 f9ba 	bl	8008e4c <_Bfree>
 8008ad8:	e69c      	b.n	8008814 <_dtoa_r+0x6c4>
 8008ada:	2600      	movs	r6, #0
 8008adc:	4637      	mov	r7, r6
 8008ade:	e7e1      	b.n	8008aa4 <_dtoa_r+0x954>
 8008ae0:	46bb      	mov	fp, r7
 8008ae2:	4637      	mov	r7, r6
 8008ae4:	e599      	b.n	800861a <_dtoa_r+0x4ca>
 8008ae6:	bf00      	nop
 8008ae8:	40240000 	.word	0x40240000
 8008aec:	9b09      	ldr	r3, [sp, #36]	; 0x24
 8008aee:	2b00      	cmp	r3, #0
 8008af0:	f000 80c8 	beq.w	8008c84 <_dtoa_r+0xb34>
 8008af4:	9b04      	ldr	r3, [sp, #16]
 8008af6:	9301      	str	r3, [sp, #4]
 8008af8:	2d00      	cmp	r5, #0
 8008afa:	dd05      	ble.n	8008b08 <_dtoa_r+0x9b8>
 8008afc:	4639      	mov	r1, r7
 8008afe:	462a      	mov	r2, r5
 8008b00:	4620      	mov	r0, r4
 8008b02:	f000 fb73 	bl	80091ec <__lshift>
 8008b06:	4607      	mov	r7, r0
 8008b08:	f1b8 0f00 	cmp.w	r8, #0
 8008b0c:	d05b      	beq.n	8008bc6 <_dtoa_r+0xa76>
 8008b0e:	6879      	ldr	r1, [r7, #4]
 8008b10:	4620      	mov	r0, r4
 8008b12:	f000 f95b 	bl	8008dcc <_Balloc>
 8008b16:	4605      	mov	r5, r0
 8008b18:	b928      	cbnz	r0, 8008b26 <_dtoa_r+0x9d6>
 8008b1a:	4b83      	ldr	r3, [pc, #524]	; (8008d28 <_dtoa_r+0xbd8>)
 8008b1c:	4602      	mov	r2, r0
 8008b1e:	f240 21ef 	movw	r1, #751	; 0x2ef
 8008b22:	f7ff bb2e 	b.w	8008182 <_dtoa_r+0x32>
 8008b26:	693a      	ldr	r2, [r7, #16]
 8008b28:	3202      	adds	r2, #2
 8008b2a:	0092      	lsls	r2, r2, #2
 8008b2c:	f107 010c 	add.w	r1, r7, #12
 8008b30:	300c      	adds	r0, #12
 8008b32:	f7ff fa76 	bl	8008022 <memcpy>
 8008b36:	2201      	movs	r2, #1
 8008b38:	4629      	mov	r1, r5
 8008b3a:	4620      	mov	r0, r4
 8008b3c:	f000 fb56 	bl	80091ec <__lshift>
 8008b40:	9b00      	ldr	r3, [sp, #0]
 8008b42:	3301      	adds	r3, #1
 8008b44:	9304      	str	r3, [sp, #16]
 8008b46:	e9dd 2300 	ldrd	r2, r3, [sp]
 8008b4a:	4413      	add	r3, r2
 8008b4c:	9308      	str	r3, [sp, #32]
 8008b4e:	9b02      	ldr	r3, [sp, #8]
 8008b50:	f003 0301 	and.w	r3, r3, #1
 8008b54:	46b8      	mov	r8, r7
 8008b56:	9306      	str	r3, [sp, #24]
 8008b58:	4607      	mov	r7, r0
 8008b5a:	9b04      	ldr	r3, [sp, #16]
 8008b5c:	4631      	mov	r1, r6
 8008b5e:	3b01      	subs	r3, #1
 8008b60:	4650      	mov	r0, sl
 8008b62:	9301      	str	r3, [sp, #4]
 8008b64:	f7ff fa6b 	bl	800803e <quorem>
 8008b68:	4641      	mov	r1, r8
 8008b6a:	9002      	str	r0, [sp, #8]
 8008b6c:	f100 0930 	add.w	r9, r0, #48	; 0x30
 8008b70:	4650      	mov	r0, sl
 8008b72:	f000 fba7 	bl	80092c4 <__mcmp>
 8008b76:	463a      	mov	r2, r7
 8008b78:	9005      	str	r0, [sp, #20]
 8008b7a:	4631      	mov	r1, r6
 8008b7c:	4620      	mov	r0, r4
 8008b7e:	f000 fbbd 	bl	80092fc <__mdiff>
 8008b82:	68c2      	ldr	r2, [r0, #12]
 8008b84:	4605      	mov	r5, r0
 8008b86:	bb02      	cbnz	r2, 8008bca <_dtoa_r+0xa7a>
 8008b88:	4601      	mov	r1, r0
 8008b8a:	4650      	mov	r0, sl
 8008b8c:	f000 fb9a 	bl	80092c4 <__mcmp>
 8008b90:	4602      	mov	r2, r0
 8008b92:	4629      	mov	r1, r5
 8008b94:	4620      	mov	r0, r4
 8008b96:	9209      	str	r2, [sp, #36]	; 0x24
 8008b98:	f000 f958 	bl	8008e4c <_Bfree>
 8008b9c:	9b07      	ldr	r3, [sp, #28]
 8008b9e:	9a09      	ldr	r2, [sp, #36]	; 0x24
 8008ba0:	9d04      	ldr	r5, [sp, #16]
 8008ba2:	ea43 0102 	orr.w	r1, r3, r2
 8008ba6:	9b06      	ldr	r3, [sp, #24]
 8008ba8:	4319      	orrs	r1, r3
 8008baa:	d110      	bne.n	8008bce <_dtoa_r+0xa7e>
 8008bac:	f1b9 0f39 	cmp.w	r9, #57	; 0x39
 8008bb0:	d029      	beq.n	8008c06 <_dtoa_r+0xab6>
 8008bb2:	9b05      	ldr	r3, [sp, #20]
 8008bb4:	2b00      	cmp	r3, #0
 8008bb6:	dd02      	ble.n	8008bbe <_dtoa_r+0xa6e>
 8008bb8:	9b02      	ldr	r3, [sp, #8]
 8008bba:	f103 0931 	add.w	r9, r3, #49	; 0x31
 8008bbe:	9b01      	ldr	r3, [sp, #4]
 8008bc0:	f883 9000 	strb.w	r9, [r3]
 8008bc4:	e774      	b.n	8008ab0 <_dtoa_r+0x960>
 8008bc6:	4638      	mov	r0, r7
 8008bc8:	e7ba      	b.n	8008b40 <_dtoa_r+0x9f0>
 8008bca:	2201      	movs	r2, #1
 8008bcc:	e7e1      	b.n	8008b92 <_dtoa_r+0xa42>
 8008bce:	9b05      	ldr	r3, [sp, #20]
 8008bd0:	2b00      	cmp	r3, #0
 8008bd2:	db04      	blt.n	8008bde <_dtoa_r+0xa8e>
 8008bd4:	9907      	ldr	r1, [sp, #28]
 8008bd6:	430b      	orrs	r3, r1
 8008bd8:	9906      	ldr	r1, [sp, #24]
 8008bda:	430b      	orrs	r3, r1
 8008bdc:	d120      	bne.n	8008c20 <_dtoa_r+0xad0>
 8008bde:	2a00      	cmp	r2, #0
 8008be0:	dded      	ble.n	8008bbe <_dtoa_r+0xa6e>
 8008be2:	4651      	mov	r1, sl
 8008be4:	2201      	movs	r2, #1
 8008be6:	4620      	mov	r0, r4
 8008be8:	f000 fb00 	bl	80091ec <__lshift>
 8008bec:	4631      	mov	r1, r6
 8008bee:	4682      	mov	sl, r0
 8008bf0:	f000 fb68 	bl	80092c4 <__mcmp>
 8008bf4:	2800      	cmp	r0, #0
 8008bf6:	dc03      	bgt.n	8008c00 <_dtoa_r+0xab0>
 8008bf8:	d1e1      	bne.n	8008bbe <_dtoa_r+0xa6e>
 8008bfa:	f019 0f01 	tst.w	r9, #1
 8008bfe:	d0de      	beq.n	8008bbe <_dtoa_r+0xa6e>
 8008c00:	f1b9 0f39 	cmp.w	r9, #57	; 0x39
 8008c04:	d1d8      	bne.n	8008bb8 <_dtoa_r+0xa68>
 8008c06:	9a01      	ldr	r2, [sp, #4]
 8008c08:	2339      	movs	r3, #57	; 0x39
 8008c0a:	7013      	strb	r3, [r2, #0]
 8008c0c:	462b      	mov	r3, r5
 8008c0e:	461d      	mov	r5, r3
 8008c10:	3b01      	subs	r3, #1
 8008c12:	f815 2c01 	ldrb.w	r2, [r5, #-1]
 8008c16:	2a39      	cmp	r2, #57	; 0x39
 8008c18:	d06c      	beq.n	8008cf4 <_dtoa_r+0xba4>
 8008c1a:	3201      	adds	r2, #1
 8008c1c:	701a      	strb	r2, [r3, #0]
 8008c1e:	e747      	b.n	8008ab0 <_dtoa_r+0x960>
 8008c20:	2a00      	cmp	r2, #0
 8008c22:	dd07      	ble.n	8008c34 <_dtoa_r+0xae4>
 8008c24:	f1b9 0f39 	cmp.w	r9, #57	; 0x39
 8008c28:	d0ed      	beq.n	8008c06 <_dtoa_r+0xab6>
 8008c2a:	9a01      	ldr	r2, [sp, #4]
 8008c2c:	f109 0301 	add.w	r3, r9, #1
 8008c30:	7013      	strb	r3, [r2, #0]
 8008c32:	e73d      	b.n	8008ab0 <_dtoa_r+0x960>
 8008c34:	9b04      	ldr	r3, [sp, #16]
 8008c36:	9a08      	ldr	r2, [sp, #32]
 8008c38:	f803 9c01 	strb.w	r9, [r3, #-1]
 8008c3c:	4293      	cmp	r3, r2
 8008c3e:	d043      	beq.n	8008cc8 <_dtoa_r+0xb78>
 8008c40:	4651      	mov	r1, sl
 8008c42:	2300      	movs	r3, #0
 8008c44:	220a      	movs	r2, #10
 8008c46:	4620      	mov	r0, r4
 8008c48:	f000 f922 	bl	8008e90 <__multadd>
 8008c4c:	45b8      	cmp	r8, r7
 8008c4e:	4682      	mov	sl, r0
 8008c50:	f04f 0300 	mov.w	r3, #0
 8008c54:	f04f 020a 	mov.w	r2, #10
 8008c58:	4641      	mov	r1, r8
 8008c5a:	4620      	mov	r0, r4
 8008c5c:	d107      	bne.n	8008c6e <_dtoa_r+0xb1e>
 8008c5e:	f000 f917 	bl	8008e90 <__multadd>
 8008c62:	4680      	mov	r8, r0
 8008c64:	4607      	mov	r7, r0
 8008c66:	9b04      	ldr	r3, [sp, #16]
 8008c68:	3301      	adds	r3, #1
 8008c6a:	9304      	str	r3, [sp, #16]
 8008c6c:	e775      	b.n	8008b5a <_dtoa_r+0xa0a>
 8008c6e:	f000 f90f 	bl	8008e90 <__multadd>
 8008c72:	4639      	mov	r1, r7
 8008c74:	4680      	mov	r8, r0
 8008c76:	2300      	movs	r3, #0
 8008c78:	220a      	movs	r2, #10
 8008c7a:	4620      	mov	r0, r4
 8008c7c:	f000 f908 	bl	8008e90 <__multadd>
 8008c80:	4607      	mov	r7, r0
 8008c82:	e7f0      	b.n	8008c66 <_dtoa_r+0xb16>
 8008c84:	9b04      	ldr	r3, [sp, #16]
 8008c86:	9301      	str	r3, [sp, #4]
 8008c88:	9d00      	ldr	r5, [sp, #0]
 8008c8a:	4631      	mov	r1, r6
 8008c8c:	4650      	mov	r0, sl
 8008c8e:	f7ff f9d6 	bl	800803e <quorem>
 8008c92:	f100 0930 	add.w	r9, r0, #48	; 0x30
 8008c96:	9b00      	ldr	r3, [sp, #0]
 8008c98:	f805 9b01 	strb.w	r9, [r5], #1
 8008c9c:	1aea      	subs	r2, r5, r3
 8008c9e:	9b01      	ldr	r3, [sp, #4]
 8008ca0:	4293      	cmp	r3, r2
 8008ca2:	dd07      	ble.n	8008cb4 <_dtoa_r+0xb64>
 8008ca4:	4651      	mov	r1, sl
 8008ca6:	2300      	movs	r3, #0
 8008ca8:	220a      	movs	r2, #10
 8008caa:	4620      	mov	r0, r4
 8008cac:	f000 f8f0 	bl	8008e90 <__multadd>
 8008cb0:	4682      	mov	sl, r0
 8008cb2:	e7ea      	b.n	8008c8a <_dtoa_r+0xb3a>
 8008cb4:	9b01      	ldr	r3, [sp, #4]
 8008cb6:	2b00      	cmp	r3, #0
 8008cb8:	bfc8      	it	gt
 8008cba:	461d      	movgt	r5, r3
 8008cbc:	9b00      	ldr	r3, [sp, #0]
 8008cbe:	bfd8      	it	le
 8008cc0:	2501      	movle	r5, #1
 8008cc2:	441d      	add	r5, r3
 8008cc4:	f04f 0800 	mov.w	r8, #0
 8008cc8:	4651      	mov	r1, sl
 8008cca:	2201      	movs	r2, #1
 8008ccc:	4620      	mov	r0, r4
 8008cce:	f000 fa8d 	bl	80091ec <__lshift>
 8008cd2:	4631      	mov	r1, r6
 8008cd4:	4682      	mov	sl, r0
 8008cd6:	f000 faf5 	bl	80092c4 <__mcmp>
 8008cda:	2800      	cmp	r0, #0
 8008cdc:	dc96      	bgt.n	8008c0c <_dtoa_r+0xabc>
 8008cde:	d102      	bne.n	8008ce6 <_dtoa_r+0xb96>
 8008ce0:	f019 0f01 	tst.w	r9, #1
 8008ce4:	d192      	bne.n	8008c0c <_dtoa_r+0xabc>
 8008ce6:	462b      	mov	r3, r5
 8008ce8:	461d      	mov	r5, r3
 8008cea:	f813 2d01 	ldrb.w	r2, [r3, #-1]!
 8008cee:	2a30      	cmp	r2, #48	; 0x30
 8008cf0:	d0fa      	beq.n	8008ce8 <_dtoa_r+0xb98>
 8008cf2:	e6dd      	b.n	8008ab0 <_dtoa_r+0x960>
 8008cf4:	9a00      	ldr	r2, [sp, #0]
 8008cf6:	429a      	cmp	r2, r3
 8008cf8:	d189      	bne.n	8008c0e <_dtoa_r+0xabe>
 8008cfa:	f10b 0b01 	add.w	fp, fp, #1
 8008cfe:	2331      	movs	r3, #49	; 0x31
 8008d00:	e796      	b.n	8008c30 <_dtoa_r+0xae0>
 8008d02:	4b0a      	ldr	r3, [pc, #40]	; (8008d2c <_dtoa_r+0xbdc>)
 8008d04:	f7ff ba99 	b.w	800823a <_dtoa_r+0xea>
 8008d08:	9b21      	ldr	r3, [sp, #132]	; 0x84
 8008d0a:	2b00      	cmp	r3, #0
 8008d0c:	f47f aa6d 	bne.w	80081ea <_dtoa_r+0x9a>
 8008d10:	4b07      	ldr	r3, [pc, #28]	; (8008d30 <_dtoa_r+0xbe0>)
 8008d12:	f7ff ba92 	b.w	800823a <_dtoa_r+0xea>
 8008d16:	9b01      	ldr	r3, [sp, #4]
 8008d18:	2b00      	cmp	r3, #0
 8008d1a:	dcb5      	bgt.n	8008c88 <_dtoa_r+0xb38>
 8008d1c:	9b07      	ldr	r3, [sp, #28]
 8008d1e:	2b02      	cmp	r3, #2
 8008d20:	f73f aeb1 	bgt.w	8008a86 <_dtoa_r+0x936>
 8008d24:	e7b0      	b.n	8008c88 <_dtoa_r+0xb38>
 8008d26:	bf00      	nop
 8008d28:	0803d2ee 	.word	0x0803d2ee
 8008d2c:	0800aab1 	.word	0x0800aab1
 8008d30:	0803d272 	.word	0x0803d272

08008d34 <_free_r>:
 8008d34:	b537      	push	{r0, r1, r2, r4, r5, lr}
 8008d36:	2900      	cmp	r1, #0
 8008d38:	d044      	beq.n	8008dc4 <_free_r+0x90>
 8008d3a:	f851 3c04 	ldr.w	r3, [r1, #-4]
 8008d3e:	9001      	str	r0, [sp, #4]
 8008d40:	2b00      	cmp	r3, #0
 8008d42:	f1a1 0404 	sub.w	r4, r1, #4
 8008d46:	bfb8      	it	lt
 8008d48:	18e4      	addlt	r4, r4, r3
 8008d4a:	f7fe fb13 	bl	8007374 <__malloc_lock>
 8008d4e:	4a1e      	ldr	r2, [pc, #120]	; (8008dc8 <_free_r+0x94>)
 8008d50:	9801      	ldr	r0, [sp, #4]
 8008d52:	6813      	ldr	r3, [r2, #0]
 8008d54:	b933      	cbnz	r3, 8008d64 <_free_r+0x30>
 8008d56:	6063      	str	r3, [r4, #4]
 8008d58:	6014      	str	r4, [r2, #0]
 8008d5a:	b003      	add	sp, #12
 8008d5c:	e8bd 4030 	ldmia.w	sp!, {r4, r5, lr}
 8008d60:	f7fe bb0e 	b.w	8007380 <__malloc_unlock>
 8008d64:	42a3      	cmp	r3, r4
 8008d66:	d908      	bls.n	8008d7a <_free_r+0x46>
 8008d68:	6825      	ldr	r5, [r4, #0]
 8008d6a:	1961      	adds	r1, r4, r5
 8008d6c:	428b      	cmp	r3, r1
 8008d6e:	bf01      	itttt	eq
 8008d70:	6819      	ldreq	r1, [r3, #0]
 8008d72:	685b      	ldreq	r3, [r3, #4]
 8008d74:	1949      	addeq	r1, r1, r5
 8008d76:	6021      	streq	r1, [r4, #0]
 8008d78:	e7ed      	b.n	8008d56 <_free_r+0x22>
 8008d7a:	461a      	mov	r2, r3
 8008d7c:	685b      	ldr	r3, [r3, #4]
 8008d7e:	b10b      	cbz	r3, 8008d84 <_free_r+0x50>
 8008d80:	42a3      	cmp	r3, r4
 8008d82:	d9fa      	bls.n	8008d7a <_free_r+0x46>
 8008d84:	6811      	ldr	r1, [r2, #0]
 8008d86:	1855      	adds	r5, r2, r1
 8008d88:	42a5      	cmp	r5, r4
 8008d8a:	d10b      	bne.n	8008da4 <_free_r+0x70>
 8008d8c:	6824      	ldr	r4, [r4, #0]
 8008d8e:	4421      	add	r1, r4
 8008d90:	1854      	adds	r4, r2, r1
 8008d92:	42a3      	cmp	r3, r4
 8008d94:	6011      	str	r1, [r2, #0]
 8008d96:	d1e0      	bne.n	8008d5a <_free_r+0x26>
 8008d98:	681c      	ldr	r4, [r3, #0]
 8008d9a:	685b      	ldr	r3, [r3, #4]
 8008d9c:	6053      	str	r3, [r2, #4]
 8008d9e:	440c      	add	r4, r1
 8008da0:	6014      	str	r4, [r2, #0]
 8008da2:	e7da      	b.n	8008d5a <_free_r+0x26>
 8008da4:	d902      	bls.n	8008dac <_free_r+0x78>
 8008da6:	230c      	movs	r3, #12
 8008da8:	6003      	str	r3, [r0, #0]
 8008daa:	e7d6      	b.n	8008d5a <_free_r+0x26>
 8008dac:	6825      	ldr	r5, [r4, #0]
 8008dae:	1961      	adds	r1, r4, r5
 8008db0:	428b      	cmp	r3, r1
 8008db2:	bf04      	itt	eq
 8008db4:	6819      	ldreq	r1, [r3, #0]
 8008db6:	685b      	ldreq	r3, [r3, #4]
 8008db8:	6063      	str	r3, [r4, #4]
 8008dba:	bf04      	itt	eq
 8008dbc:	1949      	addeq	r1, r1, r5
 8008dbe:	6021      	streq	r1, [r4, #0]
 8008dc0:	6054      	str	r4, [r2, #4]
 8008dc2:	e7ca      	b.n	8008d5a <_free_r+0x26>
 8008dc4:	b003      	add	sp, #12
 8008dc6:	bd30      	pop	{r4, r5, pc}
 8008dc8:	2000174c 	.word	0x2000174c

08008dcc <_Balloc>:
 8008dcc:	b570      	push	{r4, r5, r6, lr}
 8008dce:	69c6      	ldr	r6, [r0, #28]
 8008dd0:	4604      	mov	r4, r0
 8008dd2:	460d      	mov	r5, r1
 8008dd4:	b976      	cbnz	r6, 8008df4 <_Balloc+0x28>
 8008dd6:	2010      	movs	r0, #16
 8008dd8:	f7fa fb44 	bl	8003464 <__wrap_malloc>
 8008ddc:	4602      	mov	r2, r0
 8008dde:	61e0      	str	r0, [r4, #28]
 8008de0:	b920      	cbnz	r0, 8008dec <_Balloc+0x20>
 8008de2:	4b18      	ldr	r3, [pc, #96]	; (8008e44 <_Balloc+0x78>)
 8008de4:	4818      	ldr	r0, [pc, #96]	; (8008e48 <_Balloc+0x7c>)
 8008de6:	216b      	movs	r1, #107	; 0x6b
 8008de8:	f000 fd94 	bl	8009914 <__assert_func>
 8008dec:	e9c0 6601 	strd	r6, r6, [r0, #4]
 8008df0:	6006      	str	r6, [r0, #0]
 8008df2:	60c6      	str	r6, [r0, #12]
 8008df4:	69e6      	ldr	r6, [r4, #28]
 8008df6:	68f3      	ldr	r3, [r6, #12]
 8008df8:	b183      	cbz	r3, 8008e1c <_Balloc+0x50>
 8008dfa:	69e3      	ldr	r3, [r4, #28]
 8008dfc:	68db      	ldr	r3, [r3, #12]
 8008dfe:	f853 0025 	ldr.w	r0, [r3, r5, lsl #2]
 8008e02:	b9b8      	cbnz	r0, 8008e34 <_Balloc+0x68>
 8008e04:	2101      	movs	r1, #1
 8008e06:	fa01 f605 	lsl.w	r6, r1, r5
 8008e0a:	1d72      	adds	r2, r6, #5
 8008e0c:	0092      	lsls	r2, r2, #2
 8008e0e:	4620      	mov	r0, r4
 8008e10:	f000 fd9e 	bl	8009950 <_calloc_r>
 8008e14:	b160      	cbz	r0, 8008e30 <_Balloc+0x64>
 8008e16:	e9c0 5601 	strd	r5, r6, [r0, #4]
 8008e1a:	e00e      	b.n	8008e3a <_Balloc+0x6e>
 8008e1c:	2221      	movs	r2, #33	; 0x21
 8008e1e:	2104      	movs	r1, #4
 8008e20:	4620      	mov	r0, r4
 8008e22:	f000 fd95 	bl	8009950 <_calloc_r>
 8008e26:	69e3      	ldr	r3, [r4, #28]
 8008e28:	60f0      	str	r0, [r6, #12]
 8008e2a:	68db      	ldr	r3, [r3, #12]
 8008e2c:	2b00      	cmp	r3, #0
 8008e2e:	d1e4      	bne.n	8008dfa <_Balloc+0x2e>
 8008e30:	2000      	movs	r0, #0
 8008e32:	bd70      	pop	{r4, r5, r6, pc}
 8008e34:	6802      	ldr	r2, [r0, #0]
 8008e36:	f843 2025 	str.w	r2, [r3, r5, lsl #2]
 8008e3a:	2300      	movs	r3, #0
 8008e3c:	e9c0 3303 	strd	r3, r3, [r0, #12]
 8008e40:	e7f7      	b.n	8008e32 <_Balloc+0x66>
 8008e42:	bf00      	nop
 8008e44:	0803d27f 	.word	0x0803d27f
 8008e48:	0803d2ff 	.word	0x0803d2ff

08008e4c <_Bfree>:
 8008e4c:	b570      	push	{r4, r5, r6, lr}
 8008e4e:	69c6      	ldr	r6, [r0, #28]
 8008e50:	4605      	mov	r5, r0
 8008e52:	460c      	mov	r4, r1
 8008e54:	b976      	cbnz	r6, 8008e74 <_Bfree+0x28>
 8008e56:	2010      	movs	r0, #16
 8008e58:	f7fa fb04 	bl	8003464 <__wrap_malloc>
 8008e5c:	4602      	mov	r2, r0
 8008e5e:	61e8      	str	r0, [r5, #28]
 8008e60:	b920      	cbnz	r0, 8008e6c <_Bfree+0x20>
 8008e62:	4b09      	ldr	r3, [pc, #36]	; (8008e88 <_Bfree+0x3c>)
 8008e64:	4809      	ldr	r0, [pc, #36]	; (8008e8c <_Bfree+0x40>)
 8008e66:	218f      	movs	r1, #143	; 0x8f
 8008e68:	f000 fd54 	bl	8009914 <__assert_func>
 8008e6c:	e9c0 6601 	strd	r6, r6, [r0, #4]
 8008e70:	6006      	str	r6, [r0, #0]
 8008e72:	60c6      	str	r6, [r0, #12]
 8008e74:	b13c      	cbz	r4, 8008e86 <_Bfree+0x3a>
 8008e76:	69eb      	ldr	r3, [r5, #28]
 8008e78:	6862      	ldr	r2, [r4, #4]
 8008e7a:	68db      	ldr	r3, [r3, #12]
 8008e7c:	f853 1022 	ldr.w	r1, [r3, r2, lsl #2]
 8008e80:	6021      	str	r1, [r4, #0]
 8008e82:	f843 4022 	str.w	r4, [r3, r2, lsl #2]
 8008e86:	bd70      	pop	{r4, r5, r6, pc}
 8008e88:	0803d27f 	.word	0x0803d27f
 8008e8c:	0803d2ff 	.word	0x0803d2ff

08008e90 <__multadd>:
 8008e90:	e92d 41f0 	stmdb	sp!, {r4, r5, r6, r7, r8, lr}
 8008e94:	690d      	ldr	r5, [r1, #16]
 8008e96:	4607      	mov	r7, r0
 8008e98:	460c      	mov	r4, r1
 8008e9a:	461e      	mov	r6, r3
 8008e9c:	f101 0c14 	add.w	ip, r1, #20
 8008ea0:	2000      	movs	r0, #0
 8008ea2:	f8dc 3000 	ldr.w	r3, [ip]
 8008ea6:	b299      	uxth	r1, r3
 8008ea8:	fb02 6101 	mla	r1, r2, r1, r6
 8008eac:	0c1e      	lsrs	r6, r3, #16
 8008eae:	0c0b      	lsrs	r3, r1, #16
 8008eb0:	fb02 3306 	mla	r3, r2, r6, r3
 8008eb4:	b289      	uxth	r1, r1
 8008eb6:	3001      	adds	r0, #1
 8008eb8:	eb01 4103 	add.w	r1, r1, r3, lsl #16
 8008ebc:	4285      	cmp	r5, r0
 8008ebe:	f84c 1b04 	str.w	r1, [ip], #4
 8008ec2:	ea4f 4613 	mov.w	r6, r3, lsr #16
 8008ec6:	dcec      	bgt.n	8008ea2 <__multadd+0x12>
 8008ec8:	b30e      	cbz	r6, 8008f0e <__multadd+0x7e>
 8008eca:	68a3      	ldr	r3, [r4, #8]
 8008ecc:	42ab      	cmp	r3, r5
 8008ece:	dc19      	bgt.n	8008f04 <__multadd+0x74>
 8008ed0:	6861      	ldr	r1, [r4, #4]
 8008ed2:	4638      	mov	r0, r7
 8008ed4:	3101      	adds	r1, #1
 8008ed6:	f7ff ff79 	bl	8008dcc <_Balloc>
 8008eda:	4680      	mov	r8, r0
 8008edc:	b928      	cbnz	r0, 8008eea <__multadd+0x5a>
 8008ede:	4602      	mov	r2, r0
 8008ee0:	4b0c      	ldr	r3, [pc, #48]	; (8008f14 <__multadd+0x84>)
 8008ee2:	480d      	ldr	r0, [pc, #52]	; (8008f18 <__multadd+0x88>)
 8008ee4:	21ba      	movs	r1, #186	; 0xba
 8008ee6:	f000 fd15 	bl	8009914 <__assert_func>
 8008eea:	6922      	ldr	r2, [r4, #16]
 8008eec:	3202      	adds	r2, #2
 8008eee:	f104 010c 	add.w	r1, r4, #12
 8008ef2:	0092      	lsls	r2, r2, #2
 8008ef4:	300c      	adds	r0, #12
 8008ef6:	f7ff f894 	bl	8008022 <memcpy>
 8008efa:	4621      	mov	r1, r4
 8008efc:	4638      	mov	r0, r7
 8008efe:	f7ff ffa5 	bl	8008e4c <_Bfree>
 8008f02:	4644      	mov	r4, r8
 8008f04:	eb04 0385 	add.w	r3, r4, r5, lsl #2
 8008f08:	3501      	adds	r5, #1
 8008f0a:	615e      	str	r6, [r3, #20]
 8008f0c:	6125      	str	r5, [r4, #16]
 8008f0e:	4620      	mov	r0, r4
 8008f10:	e8bd 81f0 	ldmia.w	sp!, {r4, r5, r6, r7, r8, pc}
 8008f14:	0803d2ee 	.word	0x0803d2ee
 8008f18:	0803d2ff 	.word	0x0803d2ff

08008f1c <__hi0bits>:
 8008f1c:	0c03      	lsrs	r3, r0, #16
 8008f1e:	041b      	lsls	r3, r3, #16
 8008f20:	b9d3      	cbnz	r3, 8008f58 <__hi0bits+0x3c>
 8008f22:	0400      	lsls	r0, r0, #16
 8008f24:	2310      	movs	r3, #16
 8008f26:	f010 4f7f 	tst.w	r0, #4278190080	; 0xff000000
 8008f2a:	bf04      	itt	eq
 8008f2c:	0200      	lsleq	r0, r0, #8
 8008f2e:	3308      	addeq	r3, #8
 8008f30:	f010 4f70 	tst.w	r0, #4026531840	; 0xf0000000
 8008f34:	bf04      	itt	eq
 8008f36:	0100      	lsleq	r0, r0, #4
 8008f38:	3304      	addeq	r3, #4
 8008f3a:	f010 4f40 	tst.w	r0, #3221225472	; 0xc0000000
 8008f3e:	bf04      	itt	eq
 8008f40:	0080      	lsleq	r0, r0, #2
 8008f42:	3302      	addeq	r3, #2
 8008f44:	2800      	cmp	r0, #0
 8008f46:	db05      	blt.n	8008f54 <__hi0bits+0x38>
 8008f48:	f010 4f80 	tst.w	r0, #1073741824	; 0x40000000
 8008f4c:	f103 0301 	add.w	r3, r3, #1
 8008f50:	bf08      	it	eq
 8008f52:	2320      	moveq	r3, #32
 8008f54:	4618      	mov	r0, r3
 8008f56:	4770      	bx	lr
 8008f58:	2300      	movs	r3, #0
 8008f5a:	e7e4      	b.n	8008f26 <__hi0bits+0xa>

08008f5c <__lo0bits>:
 8008f5c:	6803      	ldr	r3, [r0, #0]
 8008f5e:	f013 0207 	ands.w	r2, r3, #7
 8008f62:	d00c      	beq.n	8008f7e <__lo0bits+0x22>
 8008f64:	07d9      	lsls	r1, r3, #31
 8008f66:	d422      	bmi.n	8008fae <__lo0bits+0x52>
 8008f68:	079a      	lsls	r2, r3, #30
 8008f6a:	bf49      	itett	mi
 8008f6c:	085b      	lsrmi	r3, r3, #1
 8008f6e:	089b      	lsrpl	r3, r3, #2
 8008f70:	6003      	strmi	r3, [r0, #0]
 8008f72:	2201      	movmi	r2, #1
 8008f74:	bf5c      	itt	pl
 8008f76:	6003      	strpl	r3, [r0, #0]
 8008f78:	2202      	movpl	r2, #2
 8008f7a:	4610      	mov	r0, r2
 8008f7c:	4770      	bx	lr
 8008f7e:	b299      	uxth	r1, r3
 8008f80:	b909      	cbnz	r1, 8008f86 <__lo0bits+0x2a>
 8008f82:	0c1b      	lsrs	r3, r3, #16
 8008f84:	2210      	movs	r2, #16
 8008f86:	b2d9      	uxtb	r1, r3
 8008f88:	b909      	cbnz	r1, 8008f8e <__lo0bits+0x32>
 8008f8a:	3208      	adds	r2, #8
 8008f8c:	0a1b      	lsrs	r3, r3, #8
 8008f8e:	0719      	lsls	r1, r3, #28
 8008f90:	bf04      	itt	eq
 8008f92:	091b      	lsreq	r3, r3, #4
 8008f94:	3204      	addeq	r2, #4
 8008f96:	0799      	lsls	r1, r3, #30
 8008f98:	bf04      	itt	eq
 8008f9a:	089b      	lsreq	r3, r3, #2
 8008f9c:	3202      	addeq	r2, #2
 8008f9e:	07d9      	lsls	r1, r3, #31
 8008fa0:	d403      	bmi.n	8008faa <__lo0bits+0x4e>
 8008fa2:	085b      	lsrs	r3, r3, #1
 8008fa4:	f102 0201 	add.w	r2, r2, #1
 8008fa8:	d003      	beq.n	8008fb2 <__lo0bits+0x56>
 8008faa:	6003      	str	r3, [r0, #0]
 8008fac:	e7e5      	b.n	8008f7a <__lo0bits+0x1e>
 8008fae:	2200      	movs	r2, #0
 8008fb0:	e7e3      	b.n	8008f7a <__lo0bits+0x1e>
 8008fb2:	2220      	movs	r2, #32
 8008fb4:	e7e1      	b.n	8008f7a <__lo0bits+0x1e>
	...

08008fb8 <__i2b>:
 8008fb8:	b510      	push	{r4, lr}
 8008fba:	460c      	mov	r4, r1
 8008fbc:	2101      	movs	r1, #1
 8008fbe:	f7ff ff05 	bl	8008dcc <_Balloc>
 8008fc2:	4602      	mov	r2, r0
 8008fc4:	b928      	cbnz	r0, 8008fd2 <__i2b+0x1a>
 8008fc6:	4b05      	ldr	r3, [pc, #20]	; (8008fdc <__i2b+0x24>)
 8008fc8:	4805      	ldr	r0, [pc, #20]	; (8008fe0 <__i2b+0x28>)
 8008fca:	f240 1145 	movw	r1, #325	; 0x145
 8008fce:	f000 fca1 	bl	8009914 <__assert_func>
 8008fd2:	2301      	movs	r3, #1
 8008fd4:	6144      	str	r4, [r0, #20]
 8008fd6:	6103      	str	r3, [r0, #16]
 8008fd8:	bd10      	pop	{r4, pc}
 8008fda:	bf00      	nop
 8008fdc:	0803d2ee 	.word	0x0803d2ee
 8008fe0:	0803d2ff 	.word	0x0803d2ff

08008fe4 <__multiply>:
 8008fe4:	e92d 4ff0 	stmdb	sp!, {r4, r5, r6, r7, r8, r9, sl, fp, lr}
 8008fe8:	4691      	mov	r9, r2
 8008fea:	690a      	ldr	r2, [r1, #16]
 8008fec:	f8d9 3010 	ldr.w	r3, [r9, #16]
 8008ff0:	429a      	cmp	r2, r3
 8008ff2:	bfb8      	it	lt
 8008ff4:	460b      	movlt	r3, r1
 8008ff6:	460c      	mov	r4, r1
 8008ff8:	bfbc      	itt	lt
 8008ffa:	464c      	movlt	r4, r9
 8008ffc:	4699      	movlt	r9, r3
 8008ffe:	6927      	ldr	r7, [r4, #16]
 8009000:	f8d9 a010 	ldr.w	sl, [r9, #16]
 8009004:	68a3      	ldr	r3, [r4, #8]
 8009006:	6861      	ldr	r1, [r4, #4]
 8009008:	eb07 060a 	add.w	r6, r7, sl
 800900c:	42b3      	cmp	r3, r6
 800900e:	b085      	sub	sp, #20
 8009010:	bfb8      	it	lt
 8009012:	3101      	addlt	r1, #1
 8009014:	f7ff feda 	bl	8008dcc <_Balloc>
 8009018:	b930      	cbnz	r0, 8009028 <__multiply+0x44>
 800901a:	4602      	mov	r2, r0
 800901c:	4b44      	ldr	r3, [pc, #272]	; (8009130 <__multiply+0x14c>)
 800901e:	4845      	ldr	r0, [pc, #276]	; (8009134 <__multiply+0x150>)
 8009020:	f44f 71b1 	mov.w	r1, #354	; 0x162
 8009024:	f000 fc76 	bl	8009914 <__assert_func>
 8009028:	f100 0514 	add.w	r5, r0, #20
 800902c:	eb05 0886 	add.w	r8, r5, r6, lsl #2
 8009030:	462b      	mov	r3, r5
 8009032:	2200      	movs	r2, #0
 8009034:	4543      	cmp	r3, r8
 8009036:	d321      	bcc.n	800907c <__multiply+0x98>
 8009038:	f104 0314 	add.w	r3, r4, #20
 800903c:	eb03 0787 	add.w	r7, r3, r7, lsl #2
 8009040:	f109 0314 	add.w	r3, r9, #20
 8009044:	eb03 028a 	add.w	r2, r3, sl, lsl #2
 8009048:	9202      	str	r2, [sp, #8]
 800904a:	1b3a      	subs	r2, r7, r4
 800904c:	3a15      	subs	r2, #21
 800904e:	f022 0203 	bic.w	r2, r2, #3
 8009052:	3204      	adds	r2, #4
 8009054:	f104 0115 	add.w	r1, r4, #21
 8009058:	428f      	cmp	r7, r1
 800905a:	bf38      	it	cc
 800905c:	2204      	movcc	r2, #4
 800905e:	9201      	str	r2, [sp, #4]
 8009060:	9a02      	ldr	r2, [sp, #8]
 8009062:	9303      	str	r3, [sp, #12]
 8009064:	429a      	cmp	r2, r3
 8009066:	d80c      	bhi.n	8009082 <__multiply+0x9e>
 8009068:	2e00      	cmp	r6, #0
 800906a:	dd03      	ble.n	8009074 <__multiply+0x90>
 800906c:	f858 3d04 	ldr.w	r3, [r8, #-4]!
 8009070:	2b00      	cmp	r3, #0
 8009072:	d05b      	beq.n	800912c <__multiply+0x148>
 8009074:	6106      	str	r6, [r0, #16]
 8009076:	b005      	add	sp, #20
 8009078:	e8bd 8ff0 	ldmia.w	sp!, {r4, r5, r6, r7, r8, r9, sl, fp, pc}
 800907c:	f843 2b04 	str.w	r2, [r3], #4
 8009080:	e7d8      	b.n	8009034 <__multiply+0x50>
 8009082:	f8b3 a000 	ldrh.w	sl, [r3]
 8009086:	f1ba 0f00 	cmp.w	sl, #0
 800908a:	d024      	beq.n	80090d6 <__multiply+0xf2>
 800908c:	f104 0e14 	add.w	lr, r4, #20
 8009090:	46a9      	mov	r9, r5
 8009092:	f04f 0c00 	mov.w	ip, #0
 8009096:	f85e 2b04 	ldr.w	r2, [lr], #4
 800909a:	f8d9 1000 	ldr.w	r1, [r9]
 800909e:	fa1f fb82 	uxth.w	fp, r2
 80090a2:	b289      	uxth	r1, r1
 80090a4:	fb0a 110b 	mla	r1, sl, fp, r1
 80090a8:	ea4f 4b12 	mov.w	fp, r2, lsr #16
 80090ac:	f8d9 2000 	ldr.w	r2, [r9]
 80090b0:	4461      	add	r1, ip
 80090b2:	ea4f 4c12 	mov.w	ip, r2, lsr #16
 80090b6:	fb0a c20b 	mla	r2, sl, fp, ip
 80090ba:	eb02 4211 	add.w	r2, r2, r1, lsr #16
 80090be:	b289      	uxth	r1, r1
 80090c0:	ea41 4102 	orr.w	r1, r1, r2, lsl #16
 80090c4:	4577      	cmp	r7, lr
 80090c6:	f849 1b04 	str.w	r1, [r9], #4
 80090ca:	ea4f 4c12 	mov.w	ip, r2, lsr #16
 80090ce:	d8e2      	bhi.n	8009096 <__multiply+0xb2>
 80090d0:	9a01      	ldr	r2, [sp, #4]
 80090d2:	f845 c002 	str.w	ip, [r5, r2]
 80090d6:	9a03      	ldr	r2, [sp, #12]
 80090d8:	f8b2 9002 	ldrh.w	r9, [r2, #2]
 80090dc:	3304      	adds	r3, #4
 80090de:	f1b9 0f00 	cmp.w	r9, #0
 80090e2:	d021      	beq.n	8009128 <__multiply+0x144>
 80090e4:	6829      	ldr	r1, [r5, #0]
 80090e6:	f104 0c14 	add.w	ip, r4, #20
 80090ea:	46ae      	mov	lr, r5
 80090ec:	f04f 0a00 	mov.w	sl, #0
 80090f0:	f8bc b000 	ldrh.w	fp, [ip]
 80090f4:	f8be 2002 	ldrh.w	r2, [lr, #2]
 80090f8:	fb09 220b 	mla	r2, r9, fp, r2
 80090fc:	4452      	add	r2, sl
 80090fe:	b289      	uxth	r1, r1
 8009100:	ea41 4102 	orr.w	r1, r1, r2, lsl #16
 8009104:	f84e 1b04 	str.w	r1, [lr], #4
 8009108:	f85c 1b04 	ldr.w	r1, [ip], #4
 800910c:	ea4f 4a11 	mov.w	sl, r1, lsr #16
 8009110:	f8be 1000 	ldrh.w	r1, [lr]
 8009114:	fb09 110a 	mla	r1, r9, sl, r1
 8009118:	eb01 4112 	add.w	r1, r1, r2, lsr #16
 800911c:	4567      	cmp	r7, ip
 800911e:	ea4f 4a11 	mov.w	sl, r1, lsr #16
 8009122:	d8e5      	bhi.n	80090f0 <__multiply+0x10c>
 8009124:	9a01      	ldr	r2, [sp, #4]
 8009126:	50a9      	str	r1, [r5, r2]
 8009128:	3504      	adds	r5, #4
 800912a:	e799      	b.n	8009060 <__multiply+0x7c>
 800912c:	3e01      	subs	r6, #1
 800912e:	e79b      	b.n	8009068 <__multiply+0x84>
 8009130:	0803d2ee 	.word	0x0803d2ee
 8009134:	0803d2ff 	.word	0x0803d2ff

08009138 <__pow5mult>:
 8009138:	e92d 43f8 	stmdb	sp!, {r3, r4, r5, r6, r7, r8, r9, lr}
 800913c:	4615      	mov	r5, r2
 800913e:	f012 0203 	ands.w	r2, r2, #3
 8009142:	4606      	mov	r6, r0
 8009144:	460f      	mov	r7, r1
 8009146:	d007      	beq.n	8009158 <__pow5mult+0x20>
 8009148:	4c25      	ldr	r4, [pc, #148]	; (80091e0 <__pow5mult+0xa8>)
 800914a:	3a01      	subs	r2, #1
 800914c:	2300      	movs	r3, #0
 800914e:	f854 2022 	ldr.w	r2, [r4, r2, lsl #2]
 8009152:	f7ff fe9d 	bl	8008e90 <__multadd>
 8009156:	4607      	mov	r7, r0
 8009158:	10ad      	asrs	r5, r5, #2
 800915a:	d03d      	beq.n	80091d8 <__pow5mult+0xa0>
 800915c:	69f4      	ldr	r4, [r6, #28]
 800915e:	b97c      	cbnz	r4, 8009180 <__pow5mult+0x48>
 8009160:	2010      	movs	r0, #16
 8009162:	f7fa f97f 	bl	8003464 <__wrap_malloc>
 8009166:	4602      	mov	r2, r0
 8009168:	61f0      	str	r0, [r6, #28]
 800916a:	b928      	cbnz	r0, 8009178 <__pow5mult+0x40>
 800916c:	4b1d      	ldr	r3, [pc, #116]	; (80091e4 <__pow5mult+0xac>)
 800916e:	481e      	ldr	r0, [pc, #120]	; (80091e8 <__pow5mult+0xb0>)
 8009170:	f240 11b3 	movw	r1, #435	; 0x1b3
 8009174:	f000 fbce 	bl	8009914 <__assert_func>
 8009178:	e9c0 4401 	strd	r4, r4, [r0, #4]
 800917c:	6004      	str	r4, [r0, #0]
 800917e:	60c4      	str	r4, [r0, #12]
 8009180:	f8d6 801c 	ldr.w	r8, [r6, #28]
 8009184:	f8d8 4008 	ldr.w	r4, [r8, #8]
 8009188:	b94c      	cbnz	r4, 800919e <__pow5mult+0x66>
 800918a:	f240 2171 	movw	r1, #625	; 0x271
 800918e:	4630      	mov	r0, r6
 8009190:	f7ff ff12 	bl	8008fb8 <__i2b>
 8009194:	2300      	movs	r3, #0
 8009196:	f8c8 0008 	str.w	r0, [r8, #8]
 800919a:	4604      	mov	r4, r0
 800919c:	6003      	str	r3, [r0, #0]
 800919e:	f04f 0900 	mov.w	r9, #0
 80091a2:	07eb      	lsls	r3, r5, #31
 80091a4:	d50a      	bpl.n	80091bc <__pow5mult+0x84>
 80091a6:	4639      	mov	r1, r7
 80091a8:	4622      	mov	r2, r4
 80091aa:	4630      	mov	r0, r6
 80091ac:	f7ff ff1a 	bl	8008fe4 <__multiply>
 80091b0:	4639      	mov	r1, r7
 80091b2:	4680      	mov	r8, r0
 80091b4:	4630      	mov	r0, r6
 80091b6:	f7ff fe49 	bl	8008e4c <_Bfree>
 80091ba:	4647      	mov	r7, r8
 80091bc:	106d      	asrs	r5, r5, #1
 80091be:	d00b      	beq.n	80091d8 <__pow5mult+0xa0>
 80091c0:	6820      	ldr	r0, [r4, #0]
 80091c2:	b938      	cbnz	r0, 80091d4 <__pow5mult+0x9c>
 80091c4:	4622      	mov	r2, r4
 80091c6:	4621      	mov	r1, r4
 80091c8:	4630      	mov	r0, r6
 80091ca:	f7ff ff0b 	bl	8008fe4 <__multiply>
 80091ce:	6020      	str	r0, [r4, #0]
 80091d0:	f8c0 9000 	str.w	r9, [r0]
 80091d4:	4604      	mov	r4, r0
 80091d6:	e7e4      	b.n	80091a2 <__pow5mult+0x6a>
 80091d8:	4638      	mov	r0, r7
 80091da:	e8bd 83f8 	ldmia.w	sp!, {r3, r4, r5, r6, r7, r8, r9, pc}
 80091de:	bf00      	nop
 80091e0:	0803d448 	.word	0x0803d448
 80091e4:	0803d27f 	.word	0x0803d27f
 80091e8:	0803d2ff 	.word	0x0803d2ff

080091ec <__lshift>:
 80091ec:	e92d 47f0 	stmdb	sp!, {r4, r5, r6, r7, r8, r9, sl, lr}
 80091f0:	460c      	mov	r4, r1
 80091f2:	6849      	ldr	r1, [r1, #4]
 80091f4:	6923      	ldr	r3, [r4, #16]
 80091f6:	eb03 1862 	add.w	r8, r3, r2, asr #5
 80091fa:	68a3      	ldr	r3, [r4, #8]
 80091fc:	4607      	mov	r7, r0
 80091fe:	4691      	mov	r9, r2
 8009200:	ea4f 1a62 	mov.w	sl, r2, asr #5
 8009204:	f108 0601 	add.w	r6, r8, #1
 8009208:	42b3      	cmp	r3, r6
 800920a:	db0b      	blt.n	8009224 <__lshift+0x38>
 800920c:	4638      	mov	r0, r7
 800920e:	f7ff fddd 	bl	8008dcc <_Balloc>
 8009212:	4605      	mov	r5, r0
 8009214:	b948      	cbnz	r0, 800922a <__lshift+0x3e>
 8009216:	4602      	mov	r2, r0
 8009218:	4b28      	ldr	r3, [pc, #160]	; (80092bc <__lshift+0xd0>)
 800921a:	4829      	ldr	r0, [pc, #164]	; (80092c0 <__lshift+0xd4>)
 800921c:	f44f 71ef 	mov.w	r1, #478	; 0x1de
 8009220:	f000 fb78 	bl	8009914 <__assert_func>
 8009224:	3101      	adds	r1, #1
 8009226:	005b      	lsls	r3, r3, #1
 8009228:	e7ee      	b.n	8009208 <__lshift+0x1c>
 800922a:	2300      	movs	r3, #0
 800922c:	f100 0114 	add.w	r1, r0, #20
 8009230:	f100 0210 	add.w	r2, r0, #16
 8009234:	4618      	mov	r0, r3
 8009236:	4553      	cmp	r3, sl
 8009238:	db33      	blt.n	80092a2 <__lshift+0xb6>
 800923a:	6920      	ldr	r0, [r4, #16]
 800923c:	ea2a 7aea 	bic.w	sl, sl, sl, asr #31
 8009240:	f104 0314 	add.w	r3, r4, #20
 8009244:	f019 091f 	ands.w	r9, r9, #31
 8009248:	eb01 018a 	add.w	r1, r1, sl, lsl #2
 800924c:	eb03 0c80 	add.w	ip, r3, r0, lsl #2
 8009250:	d02b      	beq.n	80092aa <__lshift+0xbe>
 8009252:	f1c9 0e20 	rsb	lr, r9, #32
 8009256:	468a      	mov	sl, r1
 8009258:	2200      	movs	r2, #0
 800925a:	6818      	ldr	r0, [r3, #0]
 800925c:	fa00 f009 	lsl.w	r0, r0, r9
 8009260:	4310      	orrs	r0, r2
 8009262:	f84a 0b04 	str.w	r0, [sl], #4
 8009266:	f853 2b04 	ldr.w	r2, [r3], #4
 800926a:	459c      	cmp	ip, r3
 800926c:	fa22 f20e 	lsr.w	r2, r2, lr
 8009270:	d8f3      	bhi.n	800925a <__lshift+0x6e>
 8009272:	ebac 0304 	sub.w	r3, ip, r4
 8009276:	3b15      	subs	r3, #21
 8009278:	f023 0303 	bic.w	r3, r3, #3
 800927c:	3304      	adds	r3, #4
 800927e:	f104 0015 	add.w	r0, r4, #21
 8009282:	4584      	cmp	ip, r0
 8009284:	bf38      	it	cc
 8009286:	2304      	movcc	r3, #4
 8009288:	50ca      	str	r2, [r1, r3]
 800928a:	b10a      	cbz	r2, 8009290 <__lshift+0xa4>
 800928c:	f108 0602 	add.w	r6, r8, #2
 8009290:	3e01      	subs	r6, #1
 8009292:	4638      	mov	r0, r7
 8009294:	612e      	str	r6, [r5, #16]
 8009296:	4621      	mov	r1, r4
 8009298:	f7ff fdd8 	bl	8008e4c <_Bfree>
 800929c:	4628      	mov	r0, r5
 800929e:	e8bd 87f0 	ldmia.w	sp!, {r4, r5, r6, r7, r8, r9, sl, pc}
 80092a2:	f842 0f04 	str.w	r0, [r2, #4]!
 80092a6:	3301      	adds	r3, #1
 80092a8:	e7c5      	b.n	8009236 <__lshift+0x4a>
 80092aa:	3904      	subs	r1, #4
 80092ac:	f853 2b04 	ldr.w	r2, [r3], #4
 80092b0:	f841 2f04 	str.w	r2, [r1, #4]!
 80092b4:	459c      	cmp	ip, r3
 80092b6:	d8f9      	bhi.n	80092ac <__lshift+0xc0>
 80092b8:	e7ea      	b.n	8009290 <__lshift+0xa4>
 80092ba:	bf00      	nop
 80092bc:	0803d2ee 	.word	0x0803d2ee
 80092c0:	0803d2ff 	.word	0x0803d2ff

080092c4 <__mcmp>:
 80092c4:	b530      	push	{r4, r5, lr}
 80092c6:	6902      	ldr	r2, [r0, #16]
 80092c8:	690c      	ldr	r4, [r1, #16]
 80092ca:	1b12      	subs	r2, r2, r4
 80092cc:	d10e      	bne.n	80092ec <__mcmp+0x28>
 80092ce:	f100 0314 	add.w	r3, r0, #20
 80092d2:	3114      	adds	r1, #20
 80092d4:	eb03 0084 	add.w	r0, r3, r4, lsl #2
 80092d8:	eb01 0184 	add.w	r1, r1, r4, lsl #2
 80092dc:	f850 5d04 	ldr.w	r5, [r0, #-4]!
 80092e0:	f851 4d04 	ldr.w	r4, [r1, #-4]!
 80092e4:	42a5      	cmp	r5, r4
 80092e6:	d003      	beq.n	80092f0 <__mcmp+0x2c>
 80092e8:	d305      	bcc.n	80092f6 <__mcmp+0x32>
 80092ea:	2201      	movs	r2, #1
 80092ec:	4610      	mov	r0, r2
 80092ee:	bd30      	pop	{r4, r5, pc}
 80092f0:	4283      	cmp	r3, r0
 80092f2:	d3f3      	bcc.n	80092dc <__mcmp+0x18>
 80092f4:	e7fa      	b.n	80092ec <__mcmp+0x28>
 80092f6:	f04f 32ff 	mov.w	r2, #4294967295
 80092fa:	e7f7      	b.n	80092ec <__mcmp+0x28>

080092fc <__mdiff>:
 80092fc:	e92d 4ff8 	stmdb	sp!, {r3, r4, r5, r6, r7, r8, r9, sl, fp, lr}
 8009300:	460c      	mov	r4, r1
 8009302:	4606      	mov	r6, r0
 8009304:	4611      	mov	r1, r2
 8009306:	4620      	mov	r0, r4
 8009308:	4690      	mov	r8, r2
 800930a:	f7ff ffdb 	bl	80092c4 <__mcmp>
 800930e:	1e05      	subs	r5, r0, #0
 8009310:	d110      	bne.n	8009334 <__mdiff+0x38>
 8009312:	4629      	mov	r1, r5
 8009314:	4630      	mov	r0, r6
 8009316:	f7ff fd59 	bl	8008dcc <_Balloc>
 800931a:	b930      	cbnz	r0, 800932a <__mdiff+0x2e>
 800931c:	4b3a      	ldr	r3, [pc, #232]	; (8009408 <__mdiff+0x10c>)
 800931e:	4602      	mov	r2, r0
 8009320:	f240 2137 	movw	r1, #567	; 0x237
 8009324:	4839      	ldr	r0, [pc, #228]	; (800940c <__mdiff+0x110>)
 8009326:	f000 faf5 	bl	8009914 <__assert_func>
 800932a:	2301      	movs	r3, #1
 800932c:	e9c0 3504 	strd	r3, r5, [r0, #16]
 8009330:	e8bd 8ff8 	ldmia.w	sp!, {r3, r4, r5, r6, r7, r8, r9, sl, fp, pc}
 8009334:	bfa4      	itt	ge
 8009336:	4643      	movge	r3, r8
 8009338:	46a0      	movge	r8, r4
 800933a:	4630      	mov	r0, r6
 800933c:	f8d8 1004 	ldr.w	r1, [r8, #4]
 8009340:	bfa6      	itte	ge
 8009342:	461c      	movge	r4, r3
 8009344:	2500      	movge	r5, #0
 8009346:	2501      	movlt	r5, #1
 8009348:	f7ff fd40 	bl	8008dcc <_Balloc>
 800934c:	b920      	cbnz	r0, 8009358 <__mdiff+0x5c>
 800934e:	4b2e      	ldr	r3, [pc, #184]	; (8009408 <__mdiff+0x10c>)
 8009350:	4602      	mov	r2, r0
 8009352:	f240 2145 	movw	r1, #581	; 0x245
 8009356:	e7e5      	b.n	8009324 <__mdiff+0x28>
 8009358:	f8d8 7010 	ldr.w	r7, [r8, #16]
 800935c:	6926      	ldr	r6, [r4, #16]
 800935e:	60c5      	str	r5, [r0, #12]
 8009360:	f104 0914 	add.w	r9, r4, #20
 8009364:	f108 0514 	add.w	r5, r8, #20
 8009368:	f100 0e14 	add.w	lr, r0, #20
 800936c:	eb05 0c87 	add.w	ip, r5, r7, lsl #2
 8009370:	eb09 0686 	add.w	r6, r9, r6, lsl #2
 8009374:	f108 0210 	add.w	r2, r8, #16
 8009378:	46f2      	mov	sl, lr
 800937a:	2100      	movs	r1, #0
 800937c:	f859 3b04 	ldr.w	r3, [r9], #4
 8009380:	f852 bf04 	ldr.w	fp, [r2, #4]!
 8009384:	fa11 f88b 	uxtah	r8, r1, fp
 8009388:	b299      	uxth	r1, r3
 800938a:	0c1b      	lsrs	r3, r3, #16
 800938c:	eba8 0801 	sub.w	r8, r8, r1
 8009390:	ebc3 431b 	rsb	r3, r3, fp, lsr #16
 8009394:	eb03 4328 	add.w	r3, r3, r8, asr #16
 8009398:	fa1f f888 	uxth.w	r8, r8
 800939c:	1419      	asrs	r1, r3, #16
 800939e:	454e      	cmp	r6, r9
 80093a0:	ea48 4303 	orr.w	r3, r8, r3, lsl #16
 80093a4:	f84a 3b04 	str.w	r3, [sl], #4
 80093a8:	d8e8      	bhi.n	800937c <__mdiff+0x80>
 80093aa:	1b33      	subs	r3, r6, r4
 80093ac:	3b15      	subs	r3, #21
 80093ae:	f023 0303 	bic.w	r3, r3, #3
 80093b2:	3304      	adds	r3, #4
 80093b4:	3415      	adds	r4, #21
 80093b6:	42a6      	cmp	r6, r4
 80093b8:	bf38      	it	cc
 80093ba:	2304      	movcc	r3, #4
 80093bc:	441d      	add	r5, r3
 80093be:	4473      	add	r3, lr
 80093c0:	469e      	mov	lr, r3
 80093c2:	462e      	mov	r6, r5
 80093c4:	4566      	cmp	r6, ip
 80093c6:	d30e      	bcc.n	80093e6 <__mdiff+0xea>
 80093c8:	f10c 0203 	add.w	r2, ip, #3
 80093cc:	1b52      	subs	r2, r2, r5
 80093ce:	f022 0203 	bic.w	r2, r2, #3
 80093d2:	3d03      	subs	r5, #3
 80093d4:	45ac      	cmp	ip, r5
 80093d6:	bf38      	it	cc
 80093d8:	2200      	movcc	r2, #0
 80093da:	4413      	add	r3, r2
 80093dc:	f853 2d04 	ldr.w	r2, [r3, #-4]!
 80093e0:	b17a      	cbz	r2, 8009402 <__mdiff+0x106>
 80093e2:	6107      	str	r7, [r0, #16]
 80093e4:	e7a4      	b.n	8009330 <__mdiff+0x34>
 80093e6:	f856 8b04 	ldr.w	r8, [r6], #4
 80093ea:	fa11 f288 	uxtah	r2, r1, r8
 80093ee:	1414      	asrs	r4, r2, #16
 80093f0:	eb04 4418 	add.w	r4, r4, r8, lsr #16
 80093f4:	b292      	uxth	r2, r2
 80093f6:	ea42 4204 	orr.w	r2, r2, r4, lsl #16
 80093fa:	f84e 2b04 	str.w	r2, [lr], #4
 80093fe:	1421      	asrs	r1, r4, #16
 8009400:	e7e0      	b.n	80093c4 <__mdiff+0xc8>
 8009402:	3f01      	subs	r7, #1
 8009404:	e7ea      	b.n	80093dc <__mdiff+0xe0>
 8009406:	bf00      	nop
 8009408:	0803d2ee 	.word	0x0803d2ee
 800940c:	0803d2ff 	.word	0x0803d2ff

08009410 <__d2b>:
 8009410:	e92d 43f7 	stmdb	sp!, {r0, r1, r2, r4, r5, r6, r7, r8, r9, lr}
 8009414:	460f      	mov	r7, r1
 8009416:	2101      	movs	r1, #1
 8009418:	ec59 8b10 	vmov	r8, r9, d0
 800941c:	4616      	mov	r6, r2
 800941e:	f7ff fcd5 	bl	8008dcc <_Balloc>
 8009422:	4604      	mov	r4, r0
 8009424:	b930      	cbnz	r0, 8009434 <__d2b+0x24>
 8009426:	4602      	mov	r2, r0
 8009428:	4b24      	ldr	r3, [pc, #144]	; (80094bc <__d2b+0xac>)
 800942a:	4825      	ldr	r0, [pc, #148]	; (80094c0 <__d2b+0xb0>)
 800942c:	f240 310f 	movw	r1, #783	; 0x30f
 8009430:	f000 fa70 	bl	8009914 <__assert_func>
 8009434:	f3c9 550a 	ubfx	r5, r9, #20, #11
 8009438:	f3c9 0313 	ubfx	r3, r9, #0, #20
 800943c:	bb2d      	cbnz	r5, 800948a <__d2b+0x7a>
 800943e:	9301      	str	r3, [sp, #4]
 8009440:	f1b8 0300 	subs.w	r3, r8, #0
 8009444:	d026      	beq.n	8009494 <__d2b+0x84>
 8009446:	4668      	mov	r0, sp
 8009448:	9300      	str	r3, [sp, #0]
 800944a:	f7ff fd87 	bl	8008f5c <__lo0bits>
 800944e:	e9dd 1200 	ldrd	r1, r2, [sp]
 8009452:	b1e8      	cbz	r0, 8009490 <__d2b+0x80>
 8009454:	f1c0 0320 	rsb	r3, r0, #32
 8009458:	fa02 f303 	lsl.w	r3, r2, r3
 800945c:	430b      	orrs	r3, r1
 800945e:	40c2      	lsrs	r2, r0
 8009460:	6163      	str	r3, [r4, #20]
 8009462:	9201      	str	r2, [sp, #4]
 8009464:	9b01      	ldr	r3, [sp, #4]
 8009466:	61a3      	str	r3, [r4, #24]
 8009468:	2b00      	cmp	r3, #0
 800946a:	bf14      	ite	ne
 800946c:	2202      	movne	r2, #2
 800946e:	2201      	moveq	r2, #1
 8009470:	6122      	str	r2, [r4, #16]
 8009472:	b1bd      	cbz	r5, 80094a4 <__d2b+0x94>
 8009474:	f2a5 4533 	subw	r5, r5, #1075	; 0x433
 8009478:	4405      	add	r5, r0
 800947a:	603d      	str	r5, [r7, #0]
 800947c:	f1c0 0035 	rsb	r0, r0, #53	; 0x35
 8009480:	6030      	str	r0, [r6, #0]
 8009482:	4620      	mov	r0, r4
 8009484:	b003      	add	sp, #12
 8009486:	e8bd 83f0 	ldmia.w	sp!, {r4, r5, r6, r7, r8, r9, pc}
 800948a:	f443 1380 	orr.w	r3, r3, #1048576	; 0x100000
 800948e:	e7d6      	b.n	800943e <__d2b+0x2e>
 8009490:	6161      	str	r1, [r4, #20]
 8009492:	e7e7      	b.n	8009464 <__d2b+0x54>
 8009494:	a801      	add	r0, sp, #4
 8009496:	f7ff fd61 	bl	8008f5c <__lo0bits>
 800949a:	9b01      	ldr	r3, [sp, #4]
 800949c:	6163      	str	r3, [r4, #20]
 800949e:	3020      	adds	r0, #32
 80094a0:	2201      	movs	r2, #1
 80094a2:	e7e5      	b.n	8009470 <__d2b+0x60>
 80094a4:	eb04 0382 	add.w	r3, r4, r2, lsl #2
 80094a8:	f2a0 4032 	subw	r0, r0, #1074	; 0x432
 80094ac:	6038      	str	r0, [r7, #0]
 80094ae:	6918      	ldr	r0, [r3, #16]
 80094b0:	f7ff fd34 	bl	8008f1c <__hi0bits>
 80094b4:	ebc0 1042 	rsb	r0, r0, r2, lsl #5
 80094b8:	e7e2      	b.n	8009480 <__d2b+0x70>
 80094ba:	bf00      	nop
 80094bc:	0803d2ee 	.word	0x0803d2ee
 80094c0:	0803d2ff 	.word	0x0803d2ff

080094c4 <_malloc_usable_size_r>:
 80094c4:	f851 3c04 	ldr.w	r3, [r1, #-4]
 80094c8:	1f18      	subs	r0, r3, #4
 80094ca:	2b00      	cmp	r3, #0
 80094cc:	bfbc      	itt	lt
 80094ce:	580b      	ldrlt	r3, [r1, r0]
 80094d0:	18c0      	addlt	r0, r0, r3
 80094d2:	4770      	bx	lr

080094d4 <__ssputs_r>:
 80094d4:	e92d 47f0 	stmdb	sp!, {r4, r5, r6, r7, r8, r9, sl, lr}
 80094d8:	688e      	ldr	r6, [r1, #8]
 80094da:	461f      	mov	r7, r3
 80094dc:	42be      	cmp	r6, r7
 80094de:	680b      	ldr	r3, [r1, #0]
 80094e0:	4682      	mov	sl, r0
 80094e2:	460c      	mov	r4, r1
 80094e4:	4690      	mov	r8, r2
 80094e6:	d82c      	bhi.n	8009542 <__ssputs_r+0x6e>
 80094e8:	898a      	ldrh	r2, [r1, #12]
 80094ea:	f412 6f90 	tst.w	r2, #1152	; 0x480
 80094ee:	d026      	beq.n	800953e <__ssputs_r+0x6a>
 80094f0:	6965      	ldr	r5, [r4, #20]
 80094f2:	6909      	ldr	r1, [r1, #16]
 80094f4:	eb05 0545 	add.w	r5, r5, r5, lsl #1
 80094f8:	eba3 0901 	sub.w	r9, r3, r1
 80094fc:	eb05 75d5 	add.w	r5, r5, r5, lsr #31
 8009500:	1c7b      	adds	r3, r7, #1
 8009502:	444b      	add	r3, r9
 8009504:	106d      	asrs	r5, r5, #1
 8009506:	429d      	cmp	r5, r3
 8009508:	bf38      	it	cc
 800950a:	461d      	movcc	r5, r3
 800950c:	0553      	lsls	r3, r2, #21
 800950e:	d527      	bpl.n	8009560 <__ssputs_r+0x8c>
 8009510:	4629      	mov	r1, r5
 8009512:	f7fd feaf 	bl	8007274 <_malloc_r>
 8009516:	4606      	mov	r6, r0
 8009518:	b360      	cbz	r0, 8009574 <__ssputs_r+0xa0>
 800951a:	6921      	ldr	r1, [r4, #16]
 800951c:	464a      	mov	r2, r9
 800951e:	f7fe fd80 	bl	8008022 <memcpy>
 8009522:	89a3      	ldrh	r3, [r4, #12]
 8009524:	f423 6390 	bic.w	r3, r3, #1152	; 0x480
 8009528:	f043 0380 	orr.w	r3, r3, #128	; 0x80
 800952c:	81a3      	strh	r3, [r4, #12]
 800952e:	6126      	str	r6, [r4, #16]
 8009530:	6165      	str	r5, [r4, #20]
 8009532:	444e      	add	r6, r9
 8009534:	eba5 0509 	sub.w	r5, r5, r9
 8009538:	6026      	str	r6, [r4, #0]
 800953a:	60a5      	str	r5, [r4, #8]
 800953c:	463e      	mov	r6, r7
 800953e:	42be      	cmp	r6, r7
 8009540:	d900      	bls.n	8009544 <__ssputs_r+0x70>
 8009542:	463e      	mov	r6, r7
 8009544:	6820      	ldr	r0, [r4, #0]
 8009546:	4632      	mov	r2, r6
 8009548:	4641      	mov	r1, r8
 800954a:	f000 f9c9 	bl	80098e0 <memmove>
 800954e:	68a3      	ldr	r3, [r4, #8]
 8009550:	1b9b      	subs	r3, r3, r6
 8009552:	60a3      	str	r3, [r4, #8]
 8009554:	6823      	ldr	r3, [r4, #0]
 8009556:	4433      	add	r3, r6
 8009558:	6023      	str	r3, [r4, #0]
 800955a:	2000      	movs	r0, #0
 800955c:	e8bd 87f0 	ldmia.w	sp!, {r4, r5, r6, r7, r8, r9, sl, pc}
 8009560:	462a      	mov	r2, r5
 8009562:	f7fd ff13 	bl	800738c <_realloc_r>
 8009566:	4606      	mov	r6, r0
 8009568:	2800      	cmp	r0, #0
 800956a:	d1e0      	bne.n	800952e <__ssputs_r+0x5a>
 800956c:	6921      	ldr	r1, [r4, #16]
 800956e:	4650      	mov	r0, sl
 8009570:	f7ff fbe0 	bl	8008d34 <_free_r>
 8009574:	230c      	movs	r3, #12
 8009576:	f8ca 3000 	str.w	r3, [sl]
 800957a:	89a3      	ldrh	r3, [r4, #12]
 800957c:	f043 0340 	orr.w	r3, r3, #64	; 0x40
 8009580:	81a3      	strh	r3, [r4, #12]
 8009582:	f04f 30ff 	mov.w	r0, #4294967295
 8009586:	e7e9      	b.n	800955c <__ssputs_r+0x88>

08009588 <_svfiprintf_r>:
 8009588:	e92d 4ff0 	stmdb	sp!, {r4, r5, r6, r7, r8, r9, sl, fp, lr}
 800958c:	4698      	mov	r8, r3
 800958e:	898b      	ldrh	r3, [r1, #12]
 8009590:	061b      	lsls	r3, r3, #24
 8009592:	b09d      	sub	sp, #116	; 0x74
 8009594:	4607      	mov	r7, r0
 8009596:	460d      	mov	r5, r1
 8009598:	4614      	mov	r4, r2
 800959a:	d50e      	bpl.n	80095ba <_svfiprintf_r+0x32>
 800959c:	690b      	ldr	r3, [r1, #16]
 800959e:	b963      	cbnz	r3, 80095ba <_svfiprintf_r+0x32>
 80095a0:	2140      	movs	r1, #64	; 0x40
 80095a2:	f7fd fe67 	bl	8007274 <_malloc_r>
 80095a6:	6028      	str	r0, [r5, #0]
 80095a8:	6128      	str	r0, [r5, #16]
 80095aa:	b920      	cbnz	r0, 80095b6 <_svfiprintf_r+0x2e>
 80095ac:	230c      	movs	r3, #12
 80095ae:	603b      	str	r3, [r7, #0]
 80095b0:	f04f 30ff 	mov.w	r0, #4294967295
 80095b4:	e0d0      	b.n	8009758 <_svfiprintf_r+0x1d0>
 80095b6:	2340      	movs	r3, #64	; 0x40
 80095b8:	616b      	str	r3, [r5, #20]
 80095ba:	2300      	movs	r3, #0
 80095bc:	9309      	str	r3, [sp, #36]	; 0x24
 80095be:	2320      	movs	r3, #32
 80095c0:	f88d 3029 	strb.w	r3, [sp, #41]	; 0x29
 80095c4:	f8cd 800c 	str.w	r8, [sp, #12]
 80095c8:	2330      	movs	r3, #48	; 0x30
 80095ca:	f8df 81a4 	ldr.w	r8, [pc, #420]	; 8009770 <_svfiprintf_r+0x1e8>
 80095ce:	f88d 302a 	strb.w	r3, [sp, #42]	; 0x2a
 80095d2:	f04f 0901 	mov.w	r9, #1
 80095d6:	4623      	mov	r3, r4
 80095d8:	469a      	mov	sl, r3
 80095da:	f813 2b01 	ldrb.w	r2, [r3], #1
 80095de:	b10a      	cbz	r2, 80095e4 <_svfiprintf_r+0x5c>
 80095e0:	2a25      	cmp	r2, #37	; 0x25
 80095e2:	d1f9      	bne.n	80095d8 <_svfiprintf_r+0x50>
 80095e4:	ebba 0b04 	subs.w	fp, sl, r4
 80095e8:	d00b      	beq.n	8009602 <_svfiprintf_r+0x7a>
 80095ea:	465b      	mov	r3, fp
 80095ec:	4622      	mov	r2, r4
 80095ee:	4629      	mov	r1, r5
 80095f0:	4638      	mov	r0, r7
 80095f2:	f7ff ff6f 	bl	80094d4 <__ssputs_r>
 80095f6:	3001      	adds	r0, #1
 80095f8:	f000 80a9 	beq.w	800974e <_svfiprintf_r+0x1c6>
 80095fc:	9a09      	ldr	r2, [sp, #36]	; 0x24
 80095fe:	445a      	add	r2, fp
 8009600:	9209      	str	r2, [sp, #36]	; 0x24
 8009602:	f89a 3000 	ldrb.w	r3, [sl]
 8009606:	2b00      	cmp	r3, #0
 8009608:	f000 80a1 	beq.w	800974e <_svfiprintf_r+0x1c6>
 800960c:	2300      	movs	r3, #0
 800960e:	f04f 32ff 	mov.w	r2, #4294967295
 8009612:	e9cd 2305 	strd	r2, r3, [sp, #20]
 8009616:	f10a 0a01 	add.w	sl, sl, #1
 800961a:	9304      	str	r3, [sp, #16]
 800961c:	9307      	str	r3, [sp, #28]
 800961e:	f88d 3053 	strb.w	r3, [sp, #83]	; 0x53
 8009622:	931a      	str	r3, [sp, #104]	; 0x68
 8009624:	4654      	mov	r4, sl
 8009626:	2205      	movs	r2, #5
 8009628:	f814 1b01 	ldrb.w	r1, [r4], #1
 800962c:	4850      	ldr	r0, [pc, #320]	; (8009770 <_svfiprintf_r+0x1e8>)
 800962e:	f7f6 fdef 	bl	8000210 <memchr>
 8009632:	9a04      	ldr	r2, [sp, #16]
 8009634:	b9d8      	cbnz	r0, 800966e <_svfiprintf_r+0xe6>
 8009636:	06d0      	lsls	r0, r2, #27
 8009638:	bf44      	itt	mi
 800963a:	2320      	movmi	r3, #32
 800963c:	f88d 3053 	strbmi.w	r3, [sp, #83]	; 0x53
 8009640:	0711      	lsls	r1, r2, #28
 8009642:	bf44      	itt	mi
 8009644:	232b      	movmi	r3, #43	; 0x2b
 8009646:	f88d 3053 	strbmi.w	r3, [sp, #83]	; 0x53
 800964a:	f89a 3000 	ldrb.w	r3, [sl]
 800964e:	2b2a      	cmp	r3, #42	; 0x2a
 8009650:	d015      	beq.n	800967e <_svfiprintf_r+0xf6>
 8009652:	9a07      	ldr	r2, [sp, #28]
 8009654:	4654      	mov	r4, sl
 8009656:	2000      	movs	r0, #0
 8009658:	f04f 0c0a 	mov.w	ip, #10
 800965c:	4621      	mov	r1, r4
 800965e:	f811 3b01 	ldrb.w	r3, [r1], #1
 8009662:	3b30      	subs	r3, #48	; 0x30
 8009664:	2b09      	cmp	r3, #9
 8009666:	d94d      	bls.n	8009704 <_svfiprintf_r+0x17c>
 8009668:	b1b0      	cbz	r0, 8009698 <_svfiprintf_r+0x110>
 800966a:	9207      	str	r2, [sp, #28]
 800966c:	e014      	b.n	8009698 <_svfiprintf_r+0x110>
 800966e:	eba0 0308 	sub.w	r3, r0, r8
 8009672:	fa09 f303 	lsl.w	r3, r9, r3
 8009676:	4313      	orrs	r3, r2
 8009678:	9304      	str	r3, [sp, #16]
 800967a:	46a2      	mov	sl, r4
 800967c:	e7d2      	b.n	8009624 <_svfiprintf_r+0x9c>
 800967e:	9b03      	ldr	r3, [sp, #12]
 8009680:	1d19      	adds	r1, r3, #4
 8009682:	681b      	ldr	r3, [r3, #0]
 8009684:	9103      	str	r1, [sp, #12]
 8009686:	2b00      	cmp	r3, #0
 8009688:	bfbb      	ittet	lt
 800968a:	425b      	neglt	r3, r3
 800968c:	f042 0202 	orrlt.w	r2, r2, #2
 8009690:	9307      	strge	r3, [sp, #28]
 8009692:	9307      	strlt	r3, [sp, #28]
 8009694:	bfb8      	it	lt
 8009696:	9204      	strlt	r2, [sp, #16]
 8009698:	7823      	ldrb	r3, [r4, #0]
 800969a:	2b2e      	cmp	r3, #46	; 0x2e
 800969c:	d10c      	bne.n	80096b8 <_svfiprintf_r+0x130>
 800969e:	7863      	ldrb	r3, [r4, #1]
 80096a0:	2b2a      	cmp	r3, #42	; 0x2a
 80096a2:	d134      	bne.n	800970e <_svfiprintf_r+0x186>
 80096a4:	9b03      	ldr	r3, [sp, #12]
 80096a6:	1d1a      	adds	r2, r3, #4
 80096a8:	681b      	ldr	r3, [r3, #0]
 80096aa:	9203      	str	r2, [sp, #12]
 80096ac:	2b00      	cmp	r3, #0
 80096ae:	bfb8      	it	lt
 80096b0:	f04f 33ff 	movlt.w	r3, #4294967295
 80096b4:	3402      	adds	r4, #2
 80096b6:	9305      	str	r3, [sp, #20]
 80096b8:	f8df a0c4 	ldr.w	sl, [pc, #196]	; 8009780 <_svfiprintf_r+0x1f8>
 80096bc:	7821      	ldrb	r1, [r4, #0]
 80096be:	2203      	movs	r2, #3
 80096c0:	4650      	mov	r0, sl
 80096c2:	f7f6 fda5 	bl	8000210 <memchr>
 80096c6:	b138      	cbz	r0, 80096d8 <_svfiprintf_r+0x150>
 80096c8:	9b04      	ldr	r3, [sp, #16]
 80096ca:	eba0 000a 	sub.w	r0, r0, sl
 80096ce:	2240      	movs	r2, #64	; 0x40
 80096d0:	4082      	lsls	r2, r0
 80096d2:	4313      	orrs	r3, r2
 80096d4:	3401      	adds	r4, #1
 80096d6:	9304      	str	r3, [sp, #16]
 80096d8:	f814 1b01 	ldrb.w	r1, [r4], #1
 80096dc:	4825      	ldr	r0, [pc, #148]	; (8009774 <_svfiprintf_r+0x1ec>)
 80096de:	f88d 1028 	strb.w	r1, [sp, #40]	; 0x28
 80096e2:	2206      	movs	r2, #6
 80096e4:	f7f6 fd94 	bl	8000210 <memchr>
 80096e8:	2800      	cmp	r0, #0
 80096ea:	d038      	beq.n	800975e <_svfiprintf_r+0x1d6>
 80096ec:	4b22      	ldr	r3, [pc, #136]	; (8009778 <_svfiprintf_r+0x1f0>)
 80096ee:	bb1b      	cbnz	r3, 8009738 <_svfiprintf_r+0x1b0>
 80096f0:	9b03      	ldr	r3, [sp, #12]
 80096f2:	3307      	adds	r3, #7
 80096f4:	f023 0307 	bic.w	r3, r3, #7
 80096f8:	3308      	adds	r3, #8
 80096fa:	9303      	str	r3, [sp, #12]
 80096fc:	9b09      	ldr	r3, [sp, #36]	; 0x24
 80096fe:	4433      	add	r3, r6
 8009700:	9309      	str	r3, [sp, #36]	; 0x24
 8009702:	e768      	b.n	80095d6 <_svfiprintf_r+0x4e>
 8009704:	fb0c 3202 	mla	r2, ip, r2, r3
 8009708:	460c      	mov	r4, r1
 800970a:	2001      	movs	r0, #1
 800970c:	e7a6      	b.n	800965c <_svfiprintf_r+0xd4>
 800970e:	2300      	movs	r3, #0
 8009710:	3401      	adds	r4, #1
 8009712:	9305      	str	r3, [sp, #20]
 8009714:	4619      	mov	r1, r3
 8009716:	f04f 0c0a 	mov.w	ip, #10
 800971a:	4620      	mov	r0, r4
 800971c:	f810 2b01 	ldrb.w	r2, [r0], #1
 8009720:	3a30      	subs	r2, #48	; 0x30
 8009722:	2a09      	cmp	r2, #9
 8009724:	d903      	bls.n	800972e <_svfiprintf_r+0x1a6>
 8009726:	2b00      	cmp	r3, #0
 8009728:	d0c6      	beq.n	80096b8 <_svfiprintf_r+0x130>
 800972a:	9105      	str	r1, [sp, #20]
 800972c:	e7c4      	b.n	80096b8 <_svfiprintf_r+0x130>
 800972e:	fb0c 2101 	mla	r1, ip, r1, r2
 8009732:	4604      	mov	r4, r0
 8009734:	2301      	movs	r3, #1
 8009736:	e7f0      	b.n	800971a <_svfiprintf_r+0x192>
 8009738:	ab03      	add	r3, sp, #12
 800973a:	9300      	str	r3, [sp, #0]
 800973c:	462a      	mov	r2, r5
 800973e:	4b0f      	ldr	r3, [pc, #60]	; (800977c <_svfiprintf_r+0x1f4>)
 8009740:	a904      	add	r1, sp, #16
 8009742:	4638      	mov	r0, r7
 8009744:	f7fd fef2 	bl	800752c <_printf_float>
 8009748:	1c42      	adds	r2, r0, #1
 800974a:	4606      	mov	r6, r0
 800974c:	d1d6      	bne.n	80096fc <_svfiprintf_r+0x174>
 800974e:	89ab      	ldrh	r3, [r5, #12]
 8009750:	065b      	lsls	r3, r3, #25
 8009752:	f53f af2d 	bmi.w	80095b0 <_svfiprintf_r+0x28>
 8009756:	9809      	ldr	r0, [sp, #36]	; 0x24
 8009758:	b01d      	add	sp, #116	; 0x74
 800975a:	e8bd 8ff0 	ldmia.w	sp!, {r4, r5, r6, r7, r8, r9, sl, fp, pc}
 800975e:	ab03      	add	r3, sp, #12
 8009760:	9300      	str	r3, [sp, #0]
 8009762:	462a      	mov	r2, r5
 8009764:	4b05      	ldr	r3, [pc, #20]	; (800977c <_svfiprintf_r+0x1f4>)
 8009766:	a904      	add	r1, sp, #16
 8009768:	4638      	mov	r0, r7
 800976a:	f7fe f983 	bl	8007a74 <_printf_i>
 800976e:	e7eb      	b.n	8009748 <_svfiprintf_r+0x1c0>
 8009770:	0803d454 	.word	0x0803d454
 8009774:	0803d45e 	.word	0x0803d45e
 8009778:	0800752d 	.word	0x0800752d
 800977c:	080094d5 	.word	0x080094d5
 8009780:	0803d45a 	.word	0x0803d45a

08009784 <__sflush_r>:
 8009784:	898a      	ldrh	r2, [r1, #12]
 8009786:	e92d 41f0 	stmdb	sp!, {r4, r5, r6, r7, r8, lr}
 800978a:	4605      	mov	r5, r0
 800978c:	0710      	lsls	r0, r2, #28
 800978e:	460c      	mov	r4, r1
 8009790:	d458      	bmi.n	8009844 <__sflush_r+0xc0>
 8009792:	684b      	ldr	r3, [r1, #4]
 8009794:	2b00      	cmp	r3, #0
 8009796:	dc05      	bgt.n	80097a4 <__sflush_r+0x20>
 8009798:	6c0b      	ldr	r3, [r1, #64]	; 0x40
 800979a:	2b00      	cmp	r3, #0
 800979c:	dc02      	bgt.n	80097a4 <__sflush_r+0x20>
 800979e:	2000      	movs	r0, #0
 80097a0:	e8bd 81f0 	ldmia.w	sp!, {r4, r5, r6, r7, r8, pc}
 80097a4:	6ae6      	ldr	r6, [r4, #44]	; 0x2c
 80097a6:	2e00      	cmp	r6, #0
 80097a8:	d0f9      	beq.n	800979e <__sflush_r+0x1a>
 80097aa:	2300      	movs	r3, #0
 80097ac:	f412 5280 	ands.w	r2, r2, #4096	; 0x1000
 80097b0:	682f      	ldr	r7, [r5, #0]
 80097b2:	6a21      	ldr	r1, [r4, #32]
 80097b4:	602b      	str	r3, [r5, #0]
 80097b6:	d032      	beq.n	800981e <__sflush_r+0x9a>
 80097b8:	6d60      	ldr	r0, [r4, #84]	; 0x54
 80097ba:	89a3      	ldrh	r3, [r4, #12]
 80097bc:	075a      	lsls	r2, r3, #29
 80097be:	d505      	bpl.n	80097cc <__sflush_r+0x48>
 80097c0:	6863      	ldr	r3, [r4, #4]
 80097c2:	1ac0      	subs	r0, r0, r3
 80097c4:	6b63      	ldr	r3, [r4, #52]	; 0x34
 80097c6:	b10b      	cbz	r3, 80097cc <__sflush_r+0x48>
 80097c8:	6c23      	ldr	r3, [r4, #64]	; 0x40
 80097ca:	1ac0      	subs	r0, r0, r3
 80097cc:	2300      	movs	r3, #0
 80097ce:	4602      	mov	r2, r0
 80097d0:	6ae6      	ldr	r6, [r4, #44]	; 0x2c
 80097d2:	6a21      	ldr	r1, [r4, #32]
 80097d4:	4628      	mov	r0, r5
 80097d6:	47b0      	blx	r6
 80097d8:	1c43      	adds	r3, r0, #1
 80097da:	89a3      	ldrh	r3, [r4, #12]
 80097dc:	d106      	bne.n	80097ec <__sflush_r+0x68>
 80097de:	6829      	ldr	r1, [r5, #0]
 80097e0:	291d      	cmp	r1, #29
 80097e2:	d82b      	bhi.n	800983c <__sflush_r+0xb8>
 80097e4:	4a29      	ldr	r2, [pc, #164]	; (800988c <__sflush_r+0x108>)
 80097e6:	410a      	asrs	r2, r1
 80097e8:	07d6      	lsls	r6, r2, #31
 80097ea:	d427      	bmi.n	800983c <__sflush_r+0xb8>
 80097ec:	2200      	movs	r2, #0
 80097ee:	6062      	str	r2, [r4, #4]
 80097f0:	04d9      	lsls	r1, r3, #19
 80097f2:	6922      	ldr	r2, [r4, #16]
 80097f4:	6022      	str	r2, [r4, #0]
 80097f6:	d504      	bpl.n	8009802 <__sflush_r+0x7e>
 80097f8:	1c42      	adds	r2, r0, #1
 80097fa:	d101      	bne.n	8009800 <__sflush_r+0x7c>
 80097fc:	682b      	ldr	r3, [r5, #0]
 80097fe:	b903      	cbnz	r3, 8009802 <__sflush_r+0x7e>
 8009800:	6560      	str	r0, [r4, #84]	; 0x54
 8009802:	6b61      	ldr	r1, [r4, #52]	; 0x34
 8009804:	602f      	str	r7, [r5, #0]
 8009806:	2900      	cmp	r1, #0
 8009808:	d0c9      	beq.n	800979e <__sflush_r+0x1a>
 800980a:	f104 0344 	add.w	r3, r4, #68	; 0x44
 800980e:	4299      	cmp	r1, r3
 8009810:	d002      	beq.n	8009818 <__sflush_r+0x94>
 8009812:	4628      	mov	r0, r5
 8009814:	f7ff fa8e 	bl	8008d34 <_free_r>
 8009818:	2000      	movs	r0, #0
 800981a:	6360      	str	r0, [r4, #52]	; 0x34
 800981c:	e7c0      	b.n	80097a0 <__sflush_r+0x1c>
 800981e:	2301      	movs	r3, #1
 8009820:	4628      	mov	r0, r5
 8009822:	47b0      	blx	r6
 8009824:	1c41      	adds	r1, r0, #1
 8009826:	d1c8      	bne.n	80097ba <__sflush_r+0x36>
 8009828:	682b      	ldr	r3, [r5, #0]
 800982a:	2b00      	cmp	r3, #0
 800982c:	d0c5      	beq.n	80097ba <__sflush_r+0x36>
 800982e:	2b1d      	cmp	r3, #29
 8009830:	d001      	beq.n	8009836 <__sflush_r+0xb2>
 8009832:	2b16      	cmp	r3, #22
 8009834:	d101      	bne.n	800983a <__sflush_r+0xb6>
 8009836:	602f      	str	r7, [r5, #0]
 8009838:	e7b1      	b.n	800979e <__sflush_r+0x1a>
 800983a:	89a3      	ldrh	r3, [r4, #12]
 800983c:	f043 0340 	orr.w	r3, r3, #64	; 0x40
 8009840:	81a3      	strh	r3, [r4, #12]
 8009842:	e7ad      	b.n	80097a0 <__sflush_r+0x1c>
 8009844:	690f      	ldr	r7, [r1, #16]
 8009846:	2f00      	cmp	r7, #0
 8009848:	d0a9      	beq.n	800979e <__sflush_r+0x1a>
 800984a:	0793      	lsls	r3, r2, #30
 800984c:	680e      	ldr	r6, [r1, #0]
 800984e:	bf08      	it	eq
 8009850:	694b      	ldreq	r3, [r1, #20]
 8009852:	600f      	str	r7, [r1, #0]
 8009854:	bf18      	it	ne
 8009856:	2300      	movne	r3, #0
 8009858:	eba6 0807 	sub.w	r8, r6, r7
 800985c:	608b      	str	r3, [r1, #8]
 800985e:	f1b8 0f00 	cmp.w	r8, #0
 8009862:	dd9c      	ble.n	800979e <__sflush_r+0x1a>
 8009864:	6a21      	ldr	r1, [r4, #32]
 8009866:	6aa6      	ldr	r6, [r4, #40]	; 0x28
 8009868:	4643      	mov	r3, r8
 800986a:	463a      	mov	r2, r7
 800986c:	4628      	mov	r0, r5
 800986e:	47b0      	blx	r6
 8009870:	2800      	cmp	r0, #0
 8009872:	dc06      	bgt.n	8009882 <__sflush_r+0xfe>
 8009874:	89a3      	ldrh	r3, [r4, #12]
 8009876:	f043 0340 	orr.w	r3, r3, #64	; 0x40
 800987a:	81a3      	strh	r3, [r4, #12]
 800987c:	f04f 30ff 	mov.w	r0, #4294967295
 8009880:	e78e      	b.n	80097a0 <__sflush_r+0x1c>
 8009882:	4407      	add	r7, r0
 8009884:	eba8 0800 	sub.w	r8, r8, r0
 8009888:	e7e9      	b.n	800985e <__sflush_r+0xda>
 800988a:	bf00      	nop
 800988c:	dfbffffe 	.word	0xdfbffffe

08009890 <_fflush_r>:
 8009890:	b538      	push	{r3, r4, r5, lr}
 8009892:	690b      	ldr	r3, [r1, #16]
 8009894:	4605      	mov	r5, r0
 8009896:	460c      	mov	r4, r1
 8009898:	b913      	cbnz	r3, 80098a0 <_fflush_r+0x10>
 800989a:	2500      	movs	r5, #0
 800989c:	4628      	mov	r0, r5
 800989e:	bd38      	pop	{r3, r4, r5, pc}
 80098a0:	b118      	cbz	r0, 80098aa <_fflush_r+0x1a>
 80098a2:	6a03      	ldr	r3, [r0, #32]
 80098a4:	b90b      	cbnz	r3, 80098aa <_fflush_r+0x1a>
 80098a6:	f7fe fa93 	bl	8007dd0 <__sinit>
 80098aa:	f9b4 300c 	ldrsh.w	r3, [r4, #12]
 80098ae:	2b00      	cmp	r3, #0
 80098b0:	d0f3      	beq.n	800989a <_fflush_r+0xa>
 80098b2:	6e62      	ldr	r2, [r4, #100]	; 0x64
 80098b4:	07d0      	lsls	r0, r2, #31
 80098b6:	d404      	bmi.n	80098c2 <_fflush_r+0x32>
 80098b8:	0599      	lsls	r1, r3, #22
 80098ba:	d402      	bmi.n	80098c2 <_fflush_r+0x32>
 80098bc:	6da0      	ldr	r0, [r4, #88]	; 0x58
 80098be:	f7fe fbae 	bl	800801e <__retarget_lock_acquire_recursive>
 80098c2:	4628      	mov	r0, r5
 80098c4:	4621      	mov	r1, r4
 80098c6:	f7ff ff5d 	bl	8009784 <__sflush_r>
 80098ca:	6e63      	ldr	r3, [r4, #100]	; 0x64
 80098cc:	07da      	lsls	r2, r3, #31
 80098ce:	4605      	mov	r5, r0
 80098d0:	d4e4      	bmi.n	800989c <_fflush_r+0xc>
 80098d2:	89a3      	ldrh	r3, [r4, #12]
 80098d4:	059b      	lsls	r3, r3, #22
 80098d6:	d4e1      	bmi.n	800989c <_fflush_r+0xc>
 80098d8:	6da0      	ldr	r0, [r4, #88]	; 0x58
 80098da:	f7fe fba1 	bl	8008020 <__retarget_lock_release_recursive>
 80098de:	e7dd      	b.n	800989c <_fflush_r+0xc>

080098e0 <memmove>:
 80098e0:	4288      	cmp	r0, r1
 80098e2:	b510      	push	{r4, lr}
 80098e4:	eb01 0402 	add.w	r4, r1, r2
 80098e8:	d902      	bls.n	80098f0 <memmove+0x10>
 80098ea:	4284      	cmp	r4, r0
 80098ec:	4623      	mov	r3, r4
 80098ee:	d807      	bhi.n	8009900 <memmove+0x20>
 80098f0:	1e43      	subs	r3, r0, #1
 80098f2:	42a1      	cmp	r1, r4
 80098f4:	d008      	beq.n	8009908 <memmove+0x28>
 80098f6:	f811 2b01 	ldrb.w	r2, [r1], #1
 80098fa:	f803 2f01 	strb.w	r2, [r3, #1]!
 80098fe:	e7f8      	b.n	80098f2 <memmove+0x12>
 8009900:	4402      	add	r2, r0
 8009902:	4601      	mov	r1, r0
 8009904:	428a      	cmp	r2, r1
 8009906:	d100      	bne.n	800990a <memmove+0x2a>
 8009908:	bd10      	pop	{r4, pc}
 800990a:	f813 4d01 	ldrb.w	r4, [r3, #-1]!
 800990e:	f802 4d01 	strb.w	r4, [r2, #-1]!
 8009912:	e7f7      	b.n	8009904 <memmove+0x24>

08009914 <__assert_func>:
 8009914:	b51f      	push	{r0, r1, r2, r3, r4, lr}
 8009916:	4614      	mov	r4, r2
 8009918:	461a      	mov	r2, r3
 800991a:	4b09      	ldr	r3, [pc, #36]	; (8009940 <__assert_func+0x2c>)
 800991c:	681b      	ldr	r3, [r3, #0]
 800991e:	4605      	mov	r5, r0
 8009920:	68d8      	ldr	r0, [r3, #12]
 8009922:	b14c      	cbz	r4, 8009938 <__assert_func+0x24>
 8009924:	4b07      	ldr	r3, [pc, #28]	; (8009944 <__assert_func+0x30>)
 8009926:	9100      	str	r1, [sp, #0]
 8009928:	e9cd 3401 	strd	r3, r4, [sp, #4]
 800992c:	4906      	ldr	r1, [pc, #24]	; (8009948 <__assert_func+0x34>)
 800992e:	462b      	mov	r3, r5
 8009930:	f000 f844 	bl	80099bc <fiprintf>
 8009934:	f000 f854 	bl	80099e0 <abort>
 8009938:	4b04      	ldr	r3, [pc, #16]	; (800994c <__assert_func+0x38>)
 800993a:	461c      	mov	r4, r3
 800993c:	e7f3      	b.n	8009926 <__assert_func+0x12>
 800993e:	bf00      	nop
 8009940:	20000c5c 	.word	0x20000c5c
 8009944:	0803d46f 	.word	0x0803d46f
 8009948:	0803d47c 	.word	0x0803d47c
 800994c:	0800aa74 	.word	0x0800aa74

08009950 <_calloc_r>:
 8009950:	b537      	push	{r0, r1, r2, r4, r5, lr}
 8009952:	fba1 2402 	umull	r2, r4, r1, r2
 8009956:	b94c      	cbnz	r4, 800996c <_calloc_r+0x1c>
 8009958:	4611      	mov	r1, r2
 800995a:	9201      	str	r2, [sp, #4]
 800995c:	f7fd fc8a 	bl	8007274 <_malloc_r>
 8009960:	9a01      	ldr	r2, [sp, #4]
 8009962:	4605      	mov	r5, r0
 8009964:	b930      	cbnz	r0, 8009974 <_calloc_r+0x24>
 8009966:	4628      	mov	r0, r5
 8009968:	b003      	add	sp, #12
 800996a:	bd30      	pop	{r4, r5, pc}
 800996c:	220c      	movs	r2, #12
 800996e:	6002      	str	r2, [r0, #0]
 8009970:	2500      	movs	r5, #0
 8009972:	e7f8      	b.n	8009966 <_calloc_r+0x16>
 8009974:	4621      	mov	r1, r4
 8009976:	f7fe fac4 	bl	8007f02 <memset>
 800997a:	e7f4      	b.n	8009966 <_calloc_r+0x16>

0800997c <__ascii_mbtowc>:
 800997c:	b082      	sub	sp, #8
 800997e:	b901      	cbnz	r1, 8009982 <__ascii_mbtowc+0x6>
 8009980:	a901      	add	r1, sp, #4
 8009982:	b142      	cbz	r2, 8009996 <__ascii_mbtowc+0x1a>
 8009984:	b14b      	cbz	r3, 800999a <__ascii_mbtowc+0x1e>
 8009986:	7813      	ldrb	r3, [r2, #0]
 8009988:	600b      	str	r3, [r1, #0]
 800998a:	7812      	ldrb	r2, [r2, #0]
 800998c:	1e10      	subs	r0, r2, #0
 800998e:	bf18      	it	ne
 8009990:	2001      	movne	r0, #1
 8009992:	b002      	add	sp, #8
 8009994:	4770      	bx	lr
 8009996:	4610      	mov	r0, r2
 8009998:	e7fb      	b.n	8009992 <__ascii_mbtowc+0x16>
 800999a:	f06f 0001 	mvn.w	r0, #1
 800999e:	e7f8      	b.n	8009992 <__ascii_mbtowc+0x16>

080099a0 <__ascii_wctomb>:
 80099a0:	b149      	cbz	r1, 80099b6 <__ascii_wctomb+0x16>
 80099a2:	2aff      	cmp	r2, #255	; 0xff
 80099a4:	bf85      	ittet	hi
 80099a6:	238a      	movhi	r3, #138	; 0x8a
 80099a8:	6003      	strhi	r3, [r0, #0]
 80099aa:	700a      	strbls	r2, [r1, #0]
 80099ac:	f04f 30ff 	movhi.w	r0, #4294967295
 80099b0:	bf98      	it	ls
 80099b2:	2001      	movls	r0, #1
 80099b4:	4770      	bx	lr
 80099b6:	4608      	mov	r0, r1
 80099b8:	4770      	bx	lr
	...

080099bc <fiprintf>:
 80099bc:	b40e      	push	{r1, r2, r3}
 80099be:	b503      	push	{r0, r1, lr}
 80099c0:	4601      	mov	r1, r0
 80099c2:	ab03      	add	r3, sp, #12
 80099c4:	4805      	ldr	r0, [pc, #20]	; (80099dc <fiprintf+0x20>)
 80099c6:	f853 2b04 	ldr.w	r2, [r3], #4
 80099ca:	6800      	ldr	r0, [r0, #0]
 80099cc:	9301      	str	r3, [sp, #4]
 80099ce:	f000 f837 	bl	8009a40 <_vfiprintf_r>
 80099d2:	b002      	add	sp, #8
 80099d4:	f85d eb04 	ldr.w	lr, [sp], #4
 80099d8:	b003      	add	sp, #12
 80099da:	4770      	bx	lr
 80099dc:	20000c5c 	.word	0x20000c5c

080099e0 <abort>:
 80099e0:	b508      	push	{r3, lr}
 80099e2:	2006      	movs	r0, #6
 80099e4:	f000 fa04 	bl	8009df0 <raise>
 80099e8:	2001      	movs	r0, #1
 80099ea:	f000 fd9b 	bl	800a524 <_exit>

080099ee <__sfputc_r>:
 80099ee:	6893      	ldr	r3, [r2, #8]
 80099f0:	3b01      	subs	r3, #1
 80099f2:	2b00      	cmp	r3, #0
 80099f4:	b410      	push	{r4}
 80099f6:	6093      	str	r3, [r2, #8]
 80099f8:	da08      	bge.n	8009a0c <__sfputc_r+0x1e>
 80099fa:	6994      	ldr	r4, [r2, #24]
 80099fc:	42a3      	cmp	r3, r4
 80099fe:	db01      	blt.n	8009a04 <__sfputc_r+0x16>
 8009a00:	290a      	cmp	r1, #10
 8009a02:	d103      	bne.n	8009a0c <__sfputc_r+0x1e>
 8009a04:	f85d 4b04 	ldr.w	r4, [sp], #4
 8009a08:	f000 b934 	b.w	8009c74 <__swbuf_r>
 8009a0c:	6813      	ldr	r3, [r2, #0]
 8009a0e:	1c58      	adds	r0, r3, #1
 8009a10:	6010      	str	r0, [r2, #0]
 8009a12:	7019      	strb	r1, [r3, #0]
 8009a14:	4608      	mov	r0, r1
 8009a16:	f85d 4b04 	ldr.w	r4, [sp], #4
 8009a1a:	4770      	bx	lr

08009a1c <__sfputs_r>:
 8009a1c:	b5f8      	push	{r3, r4, r5, r6, r7, lr}
 8009a1e:	4606      	mov	r6, r0
 8009a20:	460f      	mov	r7, r1
 8009a22:	4614      	mov	r4, r2
 8009a24:	18d5      	adds	r5, r2, r3
 8009a26:	42ac      	cmp	r4, r5
 8009a28:	d101      	bne.n	8009a2e <__sfputs_r+0x12>
 8009a2a:	2000      	movs	r0, #0
 8009a2c:	e007      	b.n	8009a3e <__sfputs_r+0x22>
 8009a2e:	f814 1b01 	ldrb.w	r1, [r4], #1
 8009a32:	463a      	mov	r2, r7
 8009a34:	4630      	mov	r0, r6
 8009a36:	f7ff ffda 	bl	80099ee <__sfputc_r>
 8009a3a:	1c43      	adds	r3, r0, #1
 8009a3c:	d1f3      	bne.n	8009a26 <__sfputs_r+0xa>
 8009a3e:	bdf8      	pop	{r3, r4, r5, r6, r7, pc}

08009a40 <_vfiprintf_r>:
 8009a40:	e92d 4ff0 	stmdb	sp!, {r4, r5, r6, r7, r8, r9, sl, fp, lr}
 8009a44:	460d      	mov	r5, r1
 8009a46:	b09d      	sub	sp, #116	; 0x74
 8009a48:	4614      	mov	r4, r2
 8009a4a:	4698      	mov	r8, r3
 8009a4c:	4606      	mov	r6, r0
 8009a4e:	b118      	cbz	r0, 8009a58 <_vfiprintf_r+0x18>
 8009a50:	6a03      	ldr	r3, [r0, #32]
 8009a52:	b90b      	cbnz	r3, 8009a58 <_vfiprintf_r+0x18>
 8009a54:	f7fe f9bc 	bl	8007dd0 <__sinit>
 8009a58:	6e6b      	ldr	r3, [r5, #100]	; 0x64
 8009a5a:	07d9      	lsls	r1, r3, #31
 8009a5c:	d405      	bmi.n	8009a6a <_vfiprintf_r+0x2a>
 8009a5e:	89ab      	ldrh	r3, [r5, #12]
 8009a60:	059a      	lsls	r2, r3, #22
 8009a62:	d402      	bmi.n	8009a6a <_vfiprintf_r+0x2a>
 8009a64:	6da8      	ldr	r0, [r5, #88]	; 0x58
 8009a66:	f7fe fada 	bl	800801e <__retarget_lock_acquire_recursive>
 8009a6a:	89ab      	ldrh	r3, [r5, #12]
 8009a6c:	071b      	lsls	r3, r3, #28
 8009a6e:	d501      	bpl.n	8009a74 <_vfiprintf_r+0x34>
 8009a70:	692b      	ldr	r3, [r5, #16]
 8009a72:	b99b      	cbnz	r3, 8009a9c <_vfiprintf_r+0x5c>
 8009a74:	4629      	mov	r1, r5
 8009a76:	4630      	mov	r0, r6
 8009a78:	f000 f93a 	bl	8009cf0 <__swsetup_r>
 8009a7c:	b170      	cbz	r0, 8009a9c <_vfiprintf_r+0x5c>
 8009a7e:	6e6b      	ldr	r3, [r5, #100]	; 0x64
 8009a80:	07dc      	lsls	r4, r3, #31
 8009a82:	d504      	bpl.n	8009a8e <_vfiprintf_r+0x4e>
 8009a84:	f04f 30ff 	mov.w	r0, #4294967295
 8009a88:	b01d      	add	sp, #116	; 0x74
 8009a8a:	e8bd 8ff0 	ldmia.w	sp!, {r4, r5, r6, r7, r8, r9, sl, fp, pc}
 8009a8e:	89ab      	ldrh	r3, [r5, #12]
 8009a90:	0598      	lsls	r0, r3, #22
 8009a92:	d4f7      	bmi.n	8009a84 <_vfiprintf_r+0x44>
 8009a94:	6da8      	ldr	r0, [r5, #88]	; 0x58
 8009a96:	f7fe fac3 	bl	8008020 <__retarget_lock_release_recursive>
 8009a9a:	e7f3      	b.n	8009a84 <_vfiprintf_r+0x44>
 8009a9c:	2300      	movs	r3, #0
 8009a9e:	9309      	str	r3, [sp, #36]	; 0x24
 8009aa0:	2320      	movs	r3, #32
 8009aa2:	f88d 3029 	strb.w	r3, [sp, #41]	; 0x29
 8009aa6:	f8cd 800c 	str.w	r8, [sp, #12]
 8009aaa:	2330      	movs	r3, #48	; 0x30
 8009aac:	f8df 81b0 	ldr.w	r8, [pc, #432]	; 8009c60 <_vfiprintf_r+0x220>
 8009ab0:	f88d 302a 	strb.w	r3, [sp, #42]	; 0x2a
 8009ab4:	f04f 0901 	mov.w	r9, #1
 8009ab8:	4623      	mov	r3, r4
 8009aba:	469a      	mov	sl, r3
 8009abc:	f813 2b01 	ldrb.w	r2, [r3], #1
 8009ac0:	b10a      	cbz	r2, 8009ac6 <_vfiprintf_r+0x86>
 8009ac2:	2a25      	cmp	r2, #37	; 0x25
 8009ac4:	d1f9      	bne.n	8009aba <_vfiprintf_r+0x7a>
 8009ac6:	ebba 0b04 	subs.w	fp, sl, r4
 8009aca:	d00b      	beq.n	8009ae4 <_vfiprintf_r+0xa4>
 8009acc:	465b      	mov	r3, fp
 8009ace:	4622      	mov	r2, r4
 8009ad0:	4629      	mov	r1, r5
 8009ad2:	4630      	mov	r0, r6
 8009ad4:	f7ff ffa2 	bl	8009a1c <__sfputs_r>
 8009ad8:	3001      	adds	r0, #1
 8009ada:	f000 80a9 	beq.w	8009c30 <_vfiprintf_r+0x1f0>
 8009ade:	9a09      	ldr	r2, [sp, #36]	; 0x24
 8009ae0:	445a      	add	r2, fp
 8009ae2:	9209      	str	r2, [sp, #36]	; 0x24
 8009ae4:	f89a 3000 	ldrb.w	r3, [sl]
 8009ae8:	2b00      	cmp	r3, #0
 8009aea:	f000 80a1 	beq.w	8009c30 <_vfiprintf_r+0x1f0>
 8009aee:	2300      	movs	r3, #0
 8009af0:	f04f 32ff 	mov.w	r2, #4294967295
 8009af4:	e9cd 2305 	strd	r2, r3, [sp, #20]
 8009af8:	f10a 0a01 	add.w	sl, sl, #1
 8009afc:	9304      	str	r3, [sp, #16]
 8009afe:	9307      	str	r3, [sp, #28]
 8009b00:	f88d 3053 	strb.w	r3, [sp, #83]	; 0x53
 8009b04:	931a      	str	r3, [sp, #104]	; 0x68
 8009b06:	4654      	mov	r4, sl
 8009b08:	2205      	movs	r2, #5
 8009b0a:	f814 1b01 	ldrb.w	r1, [r4], #1
 8009b0e:	4854      	ldr	r0, [pc, #336]	; (8009c60 <_vfiprintf_r+0x220>)
 8009b10:	f7f6 fb7e 	bl	8000210 <memchr>
 8009b14:	9a04      	ldr	r2, [sp, #16]
 8009b16:	b9d8      	cbnz	r0, 8009b50 <_vfiprintf_r+0x110>
 8009b18:	06d1      	lsls	r1, r2, #27
 8009b1a:	bf44      	itt	mi
 8009b1c:	2320      	movmi	r3, #32
 8009b1e:	f88d 3053 	strbmi.w	r3, [sp, #83]	; 0x53
 8009b22:	0713      	lsls	r3, r2, #28
 8009b24:	bf44      	itt	mi
 8009b26:	232b      	movmi	r3, #43	; 0x2b
 8009b28:	f88d 3053 	strbmi.w	r3, [sp, #83]	; 0x53
 8009b2c:	f89a 3000 	ldrb.w	r3, [sl]
 8009b30:	2b2a      	cmp	r3, #42	; 0x2a
 8009b32:	d015      	beq.n	8009b60 <_vfiprintf_r+0x120>
 8009b34:	9a07      	ldr	r2, [sp, #28]
 8009b36:	4654      	mov	r4, sl
 8009b38:	2000      	movs	r0, #0
 8009b3a:	f04f 0c0a 	mov.w	ip, #10
 8009b3e:	4621      	mov	r1, r4
 8009b40:	f811 3b01 	ldrb.w	r3, [r1], #1
 8009b44:	3b30      	subs	r3, #48	; 0x30
 8009b46:	2b09      	cmp	r3, #9
 8009b48:	d94d      	bls.n	8009be6 <_vfiprintf_r+0x1a6>
 8009b4a:	b1b0      	cbz	r0, 8009b7a <_vfiprintf_r+0x13a>
 8009b4c:	9207      	str	r2, [sp, #28]
 8009b4e:	e014      	b.n	8009b7a <_vfiprintf_r+0x13a>
 8009b50:	eba0 0308 	sub.w	r3, r0, r8
 8009b54:	fa09 f303 	lsl.w	r3, r9, r3
 8009b58:	4313      	orrs	r3, r2
 8009b5a:	9304      	str	r3, [sp, #16]
 8009b5c:	46a2      	mov	sl, r4
 8009b5e:	e7d2      	b.n	8009b06 <_vfiprintf_r+0xc6>
 8009b60:	9b03      	ldr	r3, [sp, #12]
 8009b62:	1d19      	adds	r1, r3, #4
 8009b64:	681b      	ldr	r3, [r3, #0]
 8009b66:	9103      	str	r1, [sp, #12]
 8009b68:	2b00      	cmp	r3, #0
 8009b6a:	bfbb      	ittet	lt
 8009b6c:	425b      	neglt	r3, r3
 8009b6e:	f042 0202 	orrlt.w	r2, r2, #2
 8009b72:	9307      	strge	r3, [sp, #28]
 8009b74:	9307      	strlt	r3, [sp, #28]
 8009b76:	bfb8      	it	lt
 8009b78:	9204      	strlt	r2, [sp, #16]
 8009b7a:	7823      	ldrb	r3, [r4, #0]
 8009b7c:	2b2e      	cmp	r3, #46	; 0x2e
 8009b7e:	d10c      	bne.n	8009b9a <_vfiprintf_r+0x15a>
 8009b80:	7863      	ldrb	r3, [r4, #1]
 8009b82:	2b2a      	cmp	r3, #42	; 0x2a
 8009b84:	d134      	bne.n	8009bf0 <_vfiprintf_r+0x1b0>
 8009b86:	9b03      	ldr	r3, [sp, #12]
 8009b88:	1d1a      	adds	r2, r3, #4
 8009b8a:	681b      	ldr	r3, [r3, #0]
 8009b8c:	9203      	str	r2, [sp, #12]
 8009b8e:	2b00      	cmp	r3, #0
 8009b90:	bfb8      	it	lt
 8009b92:	f04f 33ff 	movlt.w	r3, #4294967295
 8009b96:	3402      	adds	r4, #2
 8009b98:	9305      	str	r3, [sp, #20]
 8009b9a:	f8df a0d4 	ldr.w	sl, [pc, #212]	; 8009c70 <_vfiprintf_r+0x230>
 8009b9e:	7821      	ldrb	r1, [r4, #0]
 8009ba0:	2203      	movs	r2, #3
 8009ba2:	4650      	mov	r0, sl
 8009ba4:	f7f6 fb34 	bl	8000210 <memchr>
 8009ba8:	b138      	cbz	r0, 8009bba <_vfiprintf_r+0x17a>
 8009baa:	9b04      	ldr	r3, [sp, #16]
 8009bac:	eba0 000a 	sub.w	r0, r0, sl
 8009bb0:	2240      	movs	r2, #64	; 0x40
 8009bb2:	4082      	lsls	r2, r0
 8009bb4:	4313      	orrs	r3, r2
 8009bb6:	3401      	adds	r4, #1
 8009bb8:	9304      	str	r3, [sp, #16]
 8009bba:	f814 1b01 	ldrb.w	r1, [r4], #1
 8009bbe:	4829      	ldr	r0, [pc, #164]	; (8009c64 <_vfiprintf_r+0x224>)
 8009bc0:	f88d 1028 	strb.w	r1, [sp, #40]	; 0x28
 8009bc4:	2206      	movs	r2, #6
 8009bc6:	f7f6 fb23 	bl	8000210 <memchr>
 8009bca:	2800      	cmp	r0, #0
 8009bcc:	d03f      	beq.n	8009c4e <_vfiprintf_r+0x20e>
 8009bce:	4b26      	ldr	r3, [pc, #152]	; (8009c68 <_vfiprintf_r+0x228>)
 8009bd0:	bb1b      	cbnz	r3, 8009c1a <_vfiprintf_r+0x1da>
 8009bd2:	9b03      	ldr	r3, [sp, #12]
 8009bd4:	3307      	adds	r3, #7
 8009bd6:	f023 0307 	bic.w	r3, r3, #7
 8009bda:	3308      	adds	r3, #8
 8009bdc:	9303      	str	r3, [sp, #12]
 8009bde:	9b09      	ldr	r3, [sp, #36]	; 0x24
 8009be0:	443b      	add	r3, r7
 8009be2:	9309      	str	r3, [sp, #36]	; 0x24
 8009be4:	e768      	b.n	8009ab8 <_vfiprintf_r+0x78>
 8009be6:	fb0c 3202 	mla	r2, ip, r2, r3
 8009bea:	460c      	mov	r4, r1
 8009bec:	2001      	movs	r0, #1
 8009bee:	e7a6      	b.n	8009b3e <_vfiprintf_r+0xfe>
 8009bf0:	2300      	movs	r3, #0
 8009bf2:	3401      	adds	r4, #1
 8009bf4:	9305      	str	r3, [sp, #20]
 8009bf6:	4619      	mov	r1, r3
 8009bf8:	f04f 0c0a 	mov.w	ip, #10
 8009bfc:	4620      	mov	r0, r4
 8009bfe:	f810 2b01 	ldrb.w	r2, [r0], #1
 8009c02:	3a30      	subs	r2, #48	; 0x30
 8009c04:	2a09      	cmp	r2, #9
 8009c06:	d903      	bls.n	8009c10 <_vfiprintf_r+0x1d0>
 8009c08:	2b00      	cmp	r3, #0
 8009c0a:	d0c6      	beq.n	8009b9a <_vfiprintf_r+0x15a>
 8009c0c:	9105      	str	r1, [sp, #20]
 8009c0e:	e7c4      	b.n	8009b9a <_vfiprintf_r+0x15a>
 8009c10:	fb0c 2101 	mla	r1, ip, r1, r2
 8009c14:	4604      	mov	r4, r0
 8009c16:	2301      	movs	r3, #1
 8009c18:	e7f0      	b.n	8009bfc <_vfiprintf_r+0x1bc>
 8009c1a:	ab03      	add	r3, sp, #12
 8009c1c:	9300      	str	r3, [sp, #0]
 8009c1e:	462a      	mov	r2, r5
 8009c20:	4b12      	ldr	r3, [pc, #72]	; (8009c6c <_vfiprintf_r+0x22c>)
 8009c22:	a904      	add	r1, sp, #16
 8009c24:	4630      	mov	r0, r6
 8009c26:	f7fd fc81 	bl	800752c <_printf_float>
 8009c2a:	4607      	mov	r7, r0
 8009c2c:	1c78      	adds	r0, r7, #1
 8009c2e:	d1d6      	bne.n	8009bde <_vfiprintf_r+0x19e>
 8009c30:	6e6b      	ldr	r3, [r5, #100]	; 0x64
 8009c32:	07d9      	lsls	r1, r3, #31
 8009c34:	d405      	bmi.n	8009c42 <_vfiprintf_r+0x202>
 8009c36:	89ab      	ldrh	r3, [r5, #12]
 8009c38:	059a      	lsls	r2, r3, #22
 8009c3a:	d402      	bmi.n	8009c42 <_vfiprintf_r+0x202>
 8009c3c:	6da8      	ldr	r0, [r5, #88]	; 0x58
 8009c3e:	f7fe f9ef 	bl	8008020 <__retarget_lock_release_recursive>
 8009c42:	89ab      	ldrh	r3, [r5, #12]
 8009c44:	065b      	lsls	r3, r3, #25
 8009c46:	f53f af1d 	bmi.w	8009a84 <_vfiprintf_r+0x44>
 8009c4a:	9809      	ldr	r0, [sp, #36]	; 0x24
 8009c4c:	e71c      	b.n	8009a88 <_vfiprintf_r+0x48>
 8009c4e:	ab03      	add	r3, sp, #12
 8009c50:	9300      	str	r3, [sp, #0]
 8009c52:	462a      	mov	r2, r5
 8009c54:	4b05      	ldr	r3, [pc, #20]	; (8009c6c <_vfiprintf_r+0x22c>)
 8009c56:	a904      	add	r1, sp, #16
 8009c58:	4630      	mov	r0, r6
 8009c5a:	f7fd ff0b 	bl	8007a74 <_printf_i>
 8009c5e:	e7e4      	b.n	8009c2a <_vfiprintf_r+0x1ea>
 8009c60:	0803d454 	.word	0x0803d454
 8009c64:	0803d45e 	.word	0x0803d45e
 8009c68:	0800752d 	.word	0x0800752d
 8009c6c:	08009a1d 	.word	0x08009a1d
 8009c70:	0803d45a 	.word	0x0803d45a

08009c74 <__swbuf_r>:
 8009c74:	b5f8      	push	{r3, r4, r5, r6, r7, lr}
 8009c76:	460e      	mov	r6, r1
 8009c78:	4614      	mov	r4, r2
 8009c7a:	4605      	mov	r5, r0
 8009c7c:	b118      	cbz	r0, 8009c86 <__swbuf_r+0x12>
 8009c7e:	6a03      	ldr	r3, [r0, #32]
 8009c80:	b90b      	cbnz	r3, 8009c86 <__swbuf_r+0x12>
 8009c82:	f7fe f8a5 	bl	8007dd0 <__sinit>
 8009c86:	69a3      	ldr	r3, [r4, #24]
 8009c88:	60a3      	str	r3, [r4, #8]
 8009c8a:	89a3      	ldrh	r3, [r4, #12]
 8009c8c:	071a      	lsls	r2, r3, #28
 8009c8e:	d525      	bpl.n	8009cdc <__swbuf_r+0x68>
 8009c90:	6923      	ldr	r3, [r4, #16]
 8009c92:	b31b      	cbz	r3, 8009cdc <__swbuf_r+0x68>
 8009c94:	6823      	ldr	r3, [r4, #0]
 8009c96:	6922      	ldr	r2, [r4, #16]
 8009c98:	1a98      	subs	r0, r3, r2
 8009c9a:	6963      	ldr	r3, [r4, #20]
 8009c9c:	b2f6      	uxtb	r6, r6
 8009c9e:	4283      	cmp	r3, r0
 8009ca0:	4637      	mov	r7, r6
 8009ca2:	dc04      	bgt.n	8009cae <__swbuf_r+0x3a>
 8009ca4:	4621      	mov	r1, r4
 8009ca6:	4628      	mov	r0, r5
 8009ca8:	f7ff fdf2 	bl	8009890 <_fflush_r>
 8009cac:	b9e0      	cbnz	r0, 8009ce8 <__swbuf_r+0x74>
 8009cae:	68a3      	ldr	r3, [r4, #8]
 8009cb0:	3b01      	subs	r3, #1
 8009cb2:	60a3      	str	r3, [r4, #8]
 8009cb4:	6823      	ldr	r3, [r4, #0]
 8009cb6:	1c5a      	adds	r2, r3, #1
 8009cb8:	6022      	str	r2, [r4, #0]
 8009cba:	701e      	strb	r6, [r3, #0]
 8009cbc:	6962      	ldr	r2, [r4, #20]
 8009cbe:	1c43      	adds	r3, r0, #1
 8009cc0:	429a      	cmp	r2, r3
 8009cc2:	d004      	beq.n	8009cce <__swbuf_r+0x5a>
 8009cc4:	89a3      	ldrh	r3, [r4, #12]
 8009cc6:	07db      	lsls	r3, r3, #31
 8009cc8:	d506      	bpl.n	8009cd8 <__swbuf_r+0x64>
 8009cca:	2e0a      	cmp	r6, #10
 8009ccc:	d104      	bne.n	8009cd8 <__swbuf_r+0x64>
 8009cce:	4621      	mov	r1, r4
 8009cd0:	4628      	mov	r0, r5
 8009cd2:	f7ff fddd 	bl	8009890 <_fflush_r>
 8009cd6:	b938      	cbnz	r0, 8009ce8 <__swbuf_r+0x74>
 8009cd8:	4638      	mov	r0, r7
 8009cda:	bdf8      	pop	{r3, r4, r5, r6, r7, pc}
 8009cdc:	4621      	mov	r1, r4
 8009cde:	4628      	mov	r0, r5
 8009ce0:	f000 f806 	bl	8009cf0 <__swsetup_r>
 8009ce4:	2800      	cmp	r0, #0
 8009ce6:	d0d5      	beq.n	8009c94 <__swbuf_r+0x20>
 8009ce8:	f04f 37ff 	mov.w	r7, #4294967295
 8009cec:	e7f4      	b.n	8009cd8 <__swbuf_r+0x64>
	...

08009cf0 <__swsetup_r>:
 8009cf0:	b538      	push	{r3, r4, r5, lr}
 8009cf2:	4b2a      	ldr	r3, [pc, #168]	; (8009d9c <__swsetup_r+0xac>)
 8009cf4:	4605      	mov	r5, r0
 8009cf6:	6818      	ldr	r0, [r3, #0]
 8009cf8:	460c      	mov	r4, r1
 8009cfa:	b118      	cbz	r0, 8009d04 <__swsetup_r+0x14>
 8009cfc:	6a03      	ldr	r3, [r0, #32]
 8009cfe:	b90b      	cbnz	r3, 8009d04 <__swsetup_r+0x14>
 8009d00:	f7fe f866 	bl	8007dd0 <__sinit>
 8009d04:	89a3      	ldrh	r3, [r4, #12]
 8009d06:	f9b4 200c 	ldrsh.w	r2, [r4, #12]
 8009d0a:	0718      	lsls	r0, r3, #28
 8009d0c:	d422      	bmi.n	8009d54 <__swsetup_r+0x64>
 8009d0e:	06d9      	lsls	r1, r3, #27
 8009d10:	d407      	bmi.n	8009d22 <__swsetup_r+0x32>
 8009d12:	2309      	movs	r3, #9
 8009d14:	602b      	str	r3, [r5, #0]
 8009d16:	f042 0340 	orr.w	r3, r2, #64	; 0x40
 8009d1a:	81a3      	strh	r3, [r4, #12]
 8009d1c:	f04f 30ff 	mov.w	r0, #4294967295
 8009d20:	e034      	b.n	8009d8c <__swsetup_r+0x9c>
 8009d22:	0758      	lsls	r0, r3, #29
 8009d24:	d512      	bpl.n	8009d4c <__swsetup_r+0x5c>
 8009d26:	6b61      	ldr	r1, [r4, #52]	; 0x34
 8009d28:	b141      	cbz	r1, 8009d3c <__swsetup_r+0x4c>
 8009d2a:	f104 0344 	add.w	r3, r4, #68	; 0x44
 8009d2e:	4299      	cmp	r1, r3
 8009d30:	d002      	beq.n	8009d38 <__swsetup_r+0x48>
 8009d32:	4628      	mov	r0, r5
 8009d34:	f7fe fffe 	bl	8008d34 <_free_r>
 8009d38:	2300      	movs	r3, #0
 8009d3a:	6363      	str	r3, [r4, #52]	; 0x34
 8009d3c:	89a3      	ldrh	r3, [r4, #12]
 8009d3e:	f023 0324 	bic.w	r3, r3, #36	; 0x24
 8009d42:	81a3      	strh	r3, [r4, #12]
 8009d44:	2300      	movs	r3, #0
 8009d46:	6063      	str	r3, [r4, #4]
 8009d48:	6923      	ldr	r3, [r4, #16]
 8009d4a:	6023      	str	r3, [r4, #0]
 8009d4c:	89a3      	ldrh	r3, [r4, #12]
 8009d4e:	f043 0308 	orr.w	r3, r3, #8
 8009d52:	81a3      	strh	r3, [r4, #12]
 8009d54:	6923      	ldr	r3, [r4, #16]
 8009d56:	b94b      	cbnz	r3, 8009d6c <__swsetup_r+0x7c>
 8009d58:	89a3      	ldrh	r3, [r4, #12]
 8009d5a:	f403 7320 	and.w	r3, r3, #640	; 0x280
 8009d5e:	f5b3 7f00 	cmp.w	r3, #512	; 0x200
 8009d62:	d003      	beq.n	8009d6c <__swsetup_r+0x7c>
 8009d64:	4621      	mov	r1, r4
 8009d66:	4628      	mov	r0, r5
 8009d68:	f000 f884 	bl	8009e74 <__smakebuf_r>
 8009d6c:	89a0      	ldrh	r0, [r4, #12]
 8009d6e:	f9b4 200c 	ldrsh.w	r2, [r4, #12]
 8009d72:	f010 0301 	ands.w	r3, r0, #1
 8009d76:	d00a      	beq.n	8009d8e <__swsetup_r+0x9e>
 8009d78:	2300      	movs	r3, #0
 8009d7a:	60a3      	str	r3, [r4, #8]
 8009d7c:	6963      	ldr	r3, [r4, #20]
 8009d7e:	425b      	negs	r3, r3
 8009d80:	61a3      	str	r3, [r4, #24]
 8009d82:	6923      	ldr	r3, [r4, #16]
 8009d84:	b943      	cbnz	r3, 8009d98 <__swsetup_r+0xa8>
 8009d86:	f010 0080 	ands.w	r0, r0, #128	; 0x80
 8009d8a:	d1c4      	bne.n	8009d16 <__swsetup_r+0x26>
 8009d8c:	bd38      	pop	{r3, r4, r5, pc}
 8009d8e:	0781      	lsls	r1, r0, #30
 8009d90:	bf58      	it	pl
 8009d92:	6963      	ldrpl	r3, [r4, #20]
 8009d94:	60a3      	str	r3, [r4, #8]
 8009d96:	e7f4      	b.n	8009d82 <__swsetup_r+0x92>
 8009d98:	2000      	movs	r0, #0
 8009d9a:	e7f7      	b.n	8009d8c <__swsetup_r+0x9c>
 8009d9c:	20000c5c 	.word	0x20000c5c

08009da0 <_raise_r>:
 8009da0:	291f      	cmp	r1, #31
 8009da2:	b538      	push	{r3, r4, r5, lr}
 8009da4:	4604      	mov	r4, r0
 8009da6:	460d      	mov	r5, r1
 8009da8:	d904      	bls.n	8009db4 <_raise_r+0x14>
 8009daa:	2316      	movs	r3, #22
 8009dac:	6003      	str	r3, [r0, #0]
 8009dae:	f04f 30ff 	mov.w	r0, #4294967295
 8009db2:	bd38      	pop	{r3, r4, r5, pc}
 8009db4:	6bc2      	ldr	r2, [r0, #60]	; 0x3c
 8009db6:	b112      	cbz	r2, 8009dbe <_raise_r+0x1e>
 8009db8:	f852 3021 	ldr.w	r3, [r2, r1, lsl #2]
 8009dbc:	b94b      	cbnz	r3, 8009dd2 <_raise_r+0x32>
 8009dbe:	4620      	mov	r0, r4
 8009dc0:	f000 f830 	bl	8009e24 <_getpid_r>
 8009dc4:	462a      	mov	r2, r5
 8009dc6:	4601      	mov	r1, r0
 8009dc8:	4620      	mov	r0, r4
 8009dca:	e8bd 4038 	ldmia.w	sp!, {r3, r4, r5, lr}
 8009dce:	f000 b817 	b.w	8009e00 <_kill_r>
 8009dd2:	2b01      	cmp	r3, #1
 8009dd4:	d00a      	beq.n	8009dec <_raise_r+0x4c>
 8009dd6:	1c59      	adds	r1, r3, #1
 8009dd8:	d103      	bne.n	8009de2 <_raise_r+0x42>
 8009dda:	2316      	movs	r3, #22
 8009ddc:	6003      	str	r3, [r0, #0]
 8009dde:	2001      	movs	r0, #1
 8009de0:	e7e7      	b.n	8009db2 <_raise_r+0x12>
 8009de2:	2400      	movs	r4, #0
 8009de4:	f842 4025 	str.w	r4, [r2, r5, lsl #2]
 8009de8:	4628      	mov	r0, r5
 8009dea:	4798      	blx	r3
 8009dec:	2000      	movs	r0, #0
 8009dee:	e7e0      	b.n	8009db2 <_raise_r+0x12>

08009df0 <raise>:
 8009df0:	4b02      	ldr	r3, [pc, #8]	; (8009dfc <raise+0xc>)
 8009df2:	4601      	mov	r1, r0
 8009df4:	6818      	ldr	r0, [r3, #0]
 8009df6:	f7ff bfd3 	b.w	8009da0 <_raise_r>
 8009dfa:	bf00      	nop
 8009dfc:	20000c5c 	.word	0x20000c5c

08009e00 <_kill_r>:
 8009e00:	b538      	push	{r3, r4, r5, lr}
 8009e02:	4d07      	ldr	r5, [pc, #28]	; (8009e20 <_kill_r+0x20>)
 8009e04:	2300      	movs	r3, #0
 8009e06:	4604      	mov	r4, r0
 8009e08:	4608      	mov	r0, r1
 8009e0a:	4611      	mov	r1, r2
 8009e0c:	602b      	str	r3, [r5, #0]
 8009e0e:	f000 fb71 	bl	800a4f4 <_kill>
 8009e12:	1c43      	adds	r3, r0, #1
 8009e14:	d102      	bne.n	8009e1c <_kill_r+0x1c>
 8009e16:	682b      	ldr	r3, [r5, #0]
 8009e18:	b103      	cbz	r3, 8009e1c <_kill_r+0x1c>
 8009e1a:	6023      	str	r3, [r4, #0]
 8009e1c:	bd38      	pop	{r3, r4, r5, pc}
 8009e1e:	bf00      	nop
 8009e20:	20001890 	.word	0x20001890

08009e24 <_getpid_r>:
 8009e24:	f000 bb56 	b.w	800a4d4 <_getpid>

08009e28 <__swhatbuf_r>:
 8009e28:	b570      	push	{r4, r5, r6, lr}
 8009e2a:	460c      	mov	r4, r1
 8009e2c:	f9b1 100e 	ldrsh.w	r1, [r1, #14]
 8009e30:	2900      	cmp	r1, #0
 8009e32:	b096      	sub	sp, #88	; 0x58
 8009e34:	4615      	mov	r5, r2
 8009e36:	461e      	mov	r6, r3
 8009e38:	da0d      	bge.n	8009e56 <__swhatbuf_r+0x2e>
 8009e3a:	89a3      	ldrh	r3, [r4, #12]
 8009e3c:	f013 0f80 	tst.w	r3, #128	; 0x80
 8009e40:	f04f 0100 	mov.w	r1, #0
 8009e44:	bf0c      	ite	eq
 8009e46:	f44f 6380 	moveq.w	r3, #1024	; 0x400
 8009e4a:	2340      	movne	r3, #64	; 0x40
 8009e4c:	2000      	movs	r0, #0
 8009e4e:	6031      	str	r1, [r6, #0]
 8009e50:	602b      	str	r3, [r5, #0]
 8009e52:	b016      	add	sp, #88	; 0x58
 8009e54:	bd70      	pop	{r4, r5, r6, pc}
 8009e56:	466a      	mov	r2, sp
 8009e58:	f000 f848 	bl	8009eec <_fstat_r>
 8009e5c:	2800      	cmp	r0, #0
 8009e5e:	dbec      	blt.n	8009e3a <__swhatbuf_r+0x12>
 8009e60:	9901      	ldr	r1, [sp, #4]
 8009e62:	f401 4170 	and.w	r1, r1, #61440	; 0xf000
 8009e66:	f5a1 5300 	sub.w	r3, r1, #8192	; 0x2000
 8009e6a:	4259      	negs	r1, r3
 8009e6c:	4159      	adcs	r1, r3
 8009e6e:	f44f 6380 	mov.w	r3, #1024	; 0x400
 8009e72:	e7eb      	b.n	8009e4c <__swhatbuf_r+0x24>

08009e74 <__smakebuf_r>:
 8009e74:	898b      	ldrh	r3, [r1, #12]
 8009e76:	b573      	push	{r0, r1, r4, r5, r6, lr}
 8009e78:	079d      	lsls	r5, r3, #30
 8009e7a:	4606      	mov	r6, r0
 8009e7c:	460c      	mov	r4, r1
 8009e7e:	d507      	bpl.n	8009e90 <__smakebuf_r+0x1c>
 8009e80:	f104 0347 	add.w	r3, r4, #71	; 0x47
 8009e84:	6023      	str	r3, [r4, #0]
 8009e86:	6123      	str	r3, [r4, #16]
 8009e88:	2301      	movs	r3, #1
 8009e8a:	6163      	str	r3, [r4, #20]
 8009e8c:	b002      	add	sp, #8
 8009e8e:	bd70      	pop	{r4, r5, r6, pc}
 8009e90:	ab01      	add	r3, sp, #4
 8009e92:	466a      	mov	r2, sp
 8009e94:	f7ff ffc8 	bl	8009e28 <__swhatbuf_r>
 8009e98:	9900      	ldr	r1, [sp, #0]
 8009e9a:	4605      	mov	r5, r0
 8009e9c:	4630      	mov	r0, r6
 8009e9e:	f7fd f9e9 	bl	8007274 <_malloc_r>
 8009ea2:	b948      	cbnz	r0, 8009eb8 <__smakebuf_r+0x44>
 8009ea4:	f9b4 300c 	ldrsh.w	r3, [r4, #12]
 8009ea8:	059a      	lsls	r2, r3, #22
 8009eaa:	d4ef      	bmi.n	8009e8c <__smakebuf_r+0x18>
 8009eac:	f023 0303 	bic.w	r3, r3, #3
 8009eb0:	f043 0302 	orr.w	r3, r3, #2
 8009eb4:	81a3      	strh	r3, [r4, #12]
 8009eb6:	e7e3      	b.n	8009e80 <__smakebuf_r+0xc>
 8009eb8:	89a3      	ldrh	r3, [r4, #12]
 8009eba:	6020      	str	r0, [r4, #0]
 8009ebc:	f043 0380 	orr.w	r3, r3, #128	; 0x80
 8009ec0:	81a3      	strh	r3, [r4, #12]
 8009ec2:	9b00      	ldr	r3, [sp, #0]
 8009ec4:	6163      	str	r3, [r4, #20]
 8009ec6:	9b01      	ldr	r3, [sp, #4]
 8009ec8:	6120      	str	r0, [r4, #16]
 8009eca:	b15b      	cbz	r3, 8009ee4 <__smakebuf_r+0x70>
 8009ecc:	f9b4 100e 	ldrsh.w	r1, [r4, #14]
 8009ed0:	4630      	mov	r0, r6
 8009ed2:	f000 f81d 	bl	8009f10 <_isatty_r>
 8009ed6:	b128      	cbz	r0, 8009ee4 <__smakebuf_r+0x70>
 8009ed8:	89a3      	ldrh	r3, [r4, #12]
 8009eda:	f023 0303 	bic.w	r3, r3, #3
 8009ede:	f043 0301 	orr.w	r3, r3, #1
 8009ee2:	81a3      	strh	r3, [r4, #12]
 8009ee4:	89a3      	ldrh	r3, [r4, #12]
 8009ee6:	431d      	orrs	r5, r3
 8009ee8:	81a5      	strh	r5, [r4, #12]
 8009eea:	e7cf      	b.n	8009e8c <__smakebuf_r+0x18>

08009eec <_fstat_r>:
 8009eec:	b538      	push	{r3, r4, r5, lr}
 8009eee:	4d07      	ldr	r5, [pc, #28]	; (8009f0c <_fstat_r+0x20>)
 8009ef0:	2300      	movs	r3, #0
 8009ef2:	4604      	mov	r4, r0
 8009ef4:	4608      	mov	r0, r1
 8009ef6:	4611      	mov	r1, r2
 8009ef8:	602b      	str	r3, [r5, #0]
 8009efa:	f000 fae3 	bl	800a4c4 <_fstat>
 8009efe:	1c43      	adds	r3, r0, #1
 8009f00:	d102      	bne.n	8009f08 <_fstat_r+0x1c>
 8009f02:	682b      	ldr	r3, [r5, #0]
 8009f04:	b103      	cbz	r3, 8009f08 <_fstat_r+0x1c>
 8009f06:	6023      	str	r3, [r4, #0]
 8009f08:	bd38      	pop	{r3, r4, r5, pc}
 8009f0a:	bf00      	nop
 8009f0c:	20001890 	.word	0x20001890

08009f10 <_isatty_r>:
 8009f10:	b538      	push	{r3, r4, r5, lr}
 8009f12:	4d06      	ldr	r5, [pc, #24]	; (8009f2c <_isatty_r+0x1c>)
 8009f14:	2300      	movs	r3, #0
 8009f16:	4604      	mov	r4, r0
 8009f18:	4608      	mov	r0, r1
 8009f1a:	602b      	str	r3, [r5, #0]
 8009f1c:	f000 fae2 	bl	800a4e4 <_isatty>
 8009f20:	1c43      	adds	r3, r0, #1
 8009f22:	d102      	bne.n	8009f2a <_isatty_r+0x1a>
 8009f24:	682b      	ldr	r3, [r5, #0]
 8009f26:	b103      	cbz	r3, 8009f2a <_isatty_r+0x1a>
 8009f28:	6023      	str	r3, [r4, #0]
 8009f2a:	bd38      	pop	{r3, r4, r5, pc}
 8009f2c:	20001890 	.word	0x20001890

08009f30 <expf>:
 8009f30:	b508      	push	{r3, lr}
 8009f32:	ed2d 8b02 	vpush	{d8}
 8009f36:	eef0 8a40 	vmov.f32	s17, s0
 8009f3a:	f000 f9ed 	bl	800a318 <__ieee754_expf>
 8009f3e:	eeb0 8a40 	vmov.f32	s16, s0
 8009f42:	eeb0 0a68 	vmov.f32	s0, s17
 8009f46:	f000 f899 	bl	800a07c <finitef>
 8009f4a:	b160      	cbz	r0, 8009f66 <expf+0x36>
 8009f4c:	eddf 7a0f 	vldr	s15, [pc, #60]	; 8009f8c <expf+0x5c>
 8009f50:	eef4 8ae7 	vcmpe.f32	s17, s15
 8009f54:	eef1 fa10 	vmrs	APSR_nzcv, fpscr
 8009f58:	dd0a      	ble.n	8009f70 <expf+0x40>
 8009f5a:	f7fe f835 	bl	8007fc8 <__errno>
 8009f5e:	ed9f 8a0c 	vldr	s16, [pc, #48]	; 8009f90 <expf+0x60>
 8009f62:	2322      	movs	r3, #34	; 0x22
 8009f64:	6003      	str	r3, [r0, #0]
 8009f66:	eeb0 0a48 	vmov.f32	s0, s16
 8009f6a:	ecbd 8b02 	vpop	{d8}
 8009f6e:	bd08      	pop	{r3, pc}
 8009f70:	eddf 7a08 	vldr	s15, [pc, #32]	; 8009f94 <expf+0x64>
 8009f74:	eef4 8ae7 	vcmpe.f32	s17, s15
 8009f78:	eef1 fa10 	vmrs	APSR_nzcv, fpscr
 8009f7c:	d5f3      	bpl.n	8009f66 <expf+0x36>
 8009f7e:	f7fe f823 	bl	8007fc8 <__errno>
 8009f82:	2322      	movs	r3, #34	; 0x22
 8009f84:	ed9f 8a04 	vldr	s16, [pc, #16]	; 8009f98 <expf+0x68>
 8009f88:	6003      	str	r3, [r0, #0]
 8009f8a:	e7ec      	b.n	8009f66 <expf+0x36>
 8009f8c:	42b17217 	.word	0x42b17217
 8009f90:	7f800000 	.word	0x7f800000
 8009f94:	c2cff1b5 	.word	0xc2cff1b5
 8009f98:	00000000 	.word	0x00000000

08009f9c <fabsf>:
 8009f9c:	ee10 3a10 	vmov	r3, s0
 8009fa0:	f023 4300 	bic.w	r3, r3, #2147483648	; 0x80000000
 8009fa4:	ee00 3a10 	vmov	s0, r3
 8009fa8:	4770      	bx	lr
	...

08009fac <tanhf>:
 8009fac:	b538      	push	{r3, r4, r5, lr}
 8009fae:	ee10 5a10 	vmov	r5, s0
 8009fb2:	f025 4300 	bic.w	r3, r5, #2147483648	; 0x80000000
 8009fb6:	f1b3 4fff 	cmp.w	r3, #2139095040	; 0x7f800000
 8009fba:	ed2d 8b02 	vpush	{d8}
 8009fbe:	db0f      	blt.n	8009fe0 <tanhf+0x34>
 8009fc0:	4b2a      	ldr	r3, [pc, #168]	; (800a06c <tanhf+0xc0>)
 8009fc2:	ed93 6a00 	vldr	s12, [r3]
 8009fc6:	edd3 6a00 	vldr	s13, [r3]
 8009fca:	eec6 7a00 	vdiv.f32	s15, s12, s0
 8009fce:	2d00      	cmp	r5, #0
 8009fd0:	bfac      	ite	ge
 8009fd2:	ee37 0aa6 	vaddge.f32	s0, s15, s13
 8009fd6:	ee37 0ae6 	vsublt.f32	s0, s15, s13
 8009fda:	ecbd 8b02 	vpop	{d8}
 8009fde:	bd38      	pop	{r3, r4, r5, pc}
 8009fe0:	4a23      	ldr	r2, [pc, #140]	; (800a070 <tanhf+0xc4>)
 8009fe2:	4293      	cmp	r3, r2
 8009fe4:	dc39      	bgt.n	800a05a <tanhf+0xae>
 8009fe6:	f1b3 5f10 	cmp.w	r3, #603979776	; 0x24000000
 8009fea:	da07      	bge.n	8009ffc <tanhf+0x50>
 8009fec:	4b1f      	ldr	r3, [pc, #124]	; (800a06c <tanhf+0xc0>)
 8009fee:	edd3 7a00 	vldr	s15, [r3]
 8009ff2:	ee77 7a80 	vadd.f32	s15, s15, s0
 8009ff6:	ee27 0a80 	vmul.f32	s0, s15, s0
 8009ffa:	e7ee      	b.n	8009fda <tanhf+0x2e>
 8009ffc:	f1b3 5f7e 	cmp.w	r3, #1065353216	; 0x3f800000
 800a000:	4c1c      	ldr	r4, [pc, #112]	; (800a074 <tanhf+0xc8>)
 800a002:	db19      	blt.n	800a038 <tanhf+0x8c>
 800a004:	f7ff ffca 	bl	8009f9c <fabsf>
 800a008:	edd4 7a00 	vldr	s15, [r4]
 800a00c:	ee20 0a27 	vmul.f32	s0, s0, s15
 800a010:	f000 f842 	bl	800a098 <expm1f>
 800a014:	4b15      	ldr	r3, [pc, #84]	; (800a06c <tanhf+0xc0>)
 800a016:	edd3 7a00 	vldr	s15, [r3]
 800a01a:	edd4 6a00 	vldr	s13, [r4]
 800a01e:	ed94 7a00 	vldr	s14, [r4]
 800a022:	ee37 0a00 	vadd.f32	s0, s14, s0
 800a026:	ee86 7a80 	vdiv.f32	s14, s13, s0
 800a02a:	ee37 0ac7 	vsub.f32	s0, s15, s14
 800a02e:	2d00      	cmp	r5, #0
 800a030:	bfb8      	it	lt
 800a032:	eeb1 0a40 	vneglt.f32	s0, s0
 800a036:	e7d0      	b.n	8009fda <tanhf+0x2e>
 800a038:	ed94 8a00 	vldr	s16, [r4]
 800a03c:	f7ff ffae 	bl	8009f9c <fabsf>
 800a040:	ee28 0a40 	vnmul.f32	s0, s16, s0
 800a044:	f000 f828 	bl	800a098 <expm1f>
 800a048:	edd4 7a00 	vldr	s15, [r4]
 800a04c:	ee77 7a80 	vadd.f32	s15, s15, s0
 800a050:	eeb1 7a40 	vneg.f32	s14, s0
 800a054:	ee87 0a27 	vdiv.f32	s0, s14, s15
 800a058:	e7e9      	b.n	800a02e <tanhf+0x82>
 800a05a:	4b04      	ldr	r3, [pc, #16]	; (800a06c <tanhf+0xc0>)
 800a05c:	ed93 0a00 	vldr	s0, [r3]
 800a060:	4b05      	ldr	r3, [pc, #20]	; (800a078 <tanhf+0xcc>)
 800a062:	edd3 7a00 	vldr	s15, [r3]
 800a066:	ee30 0a67 	vsub.f32	s0, s0, s15
 800a06a:	e7e0      	b.n	800a02e <tanhf+0x82>
 800a06c:	20000dcc 	.word	0x20000dcc
 800a070:	41afffff 	.word	0x41afffff
 800a074:	20000dd4 	.word	0x20000dd4
 800a078:	20000dd0 	.word	0x20000dd0

0800a07c <finitef>:
 800a07c:	b082      	sub	sp, #8
 800a07e:	ed8d 0a01 	vstr	s0, [sp, #4]
 800a082:	9801      	ldr	r0, [sp, #4]
 800a084:	f020 4000 	bic.w	r0, r0, #2147483648	; 0x80000000
 800a088:	f1b0 4fff 	cmp.w	r0, #2139095040	; 0x7f800000
 800a08c:	bfac      	ite	ge
 800a08e:	2000      	movge	r0, #0
 800a090:	2001      	movlt	r0, #1
 800a092:	b002      	add	sp, #8
 800a094:	4770      	bx	lr
	...

0800a098 <expm1f>:
 800a098:	ee10 2a10 	vmov	r2, s0
 800a09c:	497e      	ldr	r1, [pc, #504]	; (800a298 <expm1f+0x200>)
 800a09e:	f022 4300 	bic.w	r3, r2, #2147483648	; 0x80000000
 800a0a2:	428b      	cmp	r3, r1
 800a0a4:	d921      	bls.n	800a0ea <expm1f+0x52>
 800a0a6:	f1b3 4fff 	cmp.w	r3, #2139095040	; 0x7f800000
 800a0aa:	d902      	bls.n	800a0b2 <expm1f+0x1a>
 800a0ac:	ee30 0a00 	vadd.f32	s0, s0, s0
 800a0b0:	4770      	bx	lr
 800a0b2:	d106      	bne.n	800a0c2 <expm1f+0x2a>
 800a0b4:	2a00      	cmp	r2, #0
 800a0b6:	eeff 7a00 	vmov.f32	s15, #240	; 0xbf800000 -1.0
 800a0ba:	bfb8      	it	lt
 800a0bc:	eeb0 0a67 	vmovlt.f32	s0, s15
 800a0c0:	4770      	bx	lr
 800a0c2:	2a00      	cmp	r2, #0
 800a0c4:	db05      	blt.n	800a0d2 <expm1f+0x3a>
 800a0c6:	4975      	ldr	r1, [pc, #468]	; (800a29c <expm1f+0x204>)
 800a0c8:	428b      	cmp	r3, r1
 800a0ca:	d95c      	bls.n	800a186 <expm1f+0xee>
 800a0cc:	2000      	movs	r0, #0
 800a0ce:	f000 b91d 	b.w	800a30c <__math_oflowf>
 800a0d2:	eddf 7a73 	vldr	s15, [pc, #460]	; 800a2a0 <expm1f+0x208>
 800a0d6:	ee70 7a27 	vadd.f32	s15, s0, s15
 800a0da:	eef5 7ac0 	vcmpe.f32	s15, #0.0
 800a0de:	eef1 fa10 	vmrs	APSR_nzcv, fpscr
 800a0e2:	d550      	bpl.n	800a186 <expm1f+0xee>
 800a0e4:	eebf 0a00 	vmov.f32	s0, #240	; 0xbf800000 -1.0
 800a0e8:	4770      	bx	lr
 800a0ea:	496e      	ldr	r1, [pc, #440]	; (800a2a4 <expm1f+0x20c>)
 800a0ec:	428b      	cmp	r3, r1
 800a0ee:	d967      	bls.n	800a1c0 <expm1f+0x128>
 800a0f0:	496d      	ldr	r1, [pc, #436]	; (800a2a8 <expm1f+0x210>)
 800a0f2:	428b      	cmp	r3, r1
 800a0f4:	d847      	bhi.n	800a186 <expm1f+0xee>
 800a0f6:	ed9f 7a6d 	vldr	s14, [pc, #436]	; 800a2ac <expm1f+0x214>
 800a0fa:	2a00      	cmp	r2, #0
 800a0fc:	bfa7      	ittee	ge
 800a0fe:	ee30 7a47 	vsubge.f32	s14, s0, s14
 800a102:	eddf 6a6b 	vldrge	s13, [pc, #428]	; 800a2b0 <expm1f+0x218>
 800a106:	eddf 6a6b 	vldrlt	s13, [pc, #428]	; 800a2b4 <expm1f+0x21c>
 800a10a:	ee30 7a07 	vaddlt.f32	s14, s0, s14
 800a10e:	bfac      	ite	ge
 800a110:	2301      	movge	r3, #1
 800a112:	f04f 33ff 	movlt.w	r3, #4294967295
 800a116:	ee37 0a66 	vsub.f32	s0, s14, s13
 800a11a:	ee77 7a40 	vsub.f32	s15, s14, s0
 800a11e:	ee77 7ae6 	vsub.f32	s15, s15, s13
 800a122:	eef6 5a00 	vmov.f32	s11, #96	; 0x3f000000  0.5
 800a126:	ee20 4a25 	vmul.f32	s8, s0, s11
 800a12a:	ed9f 6a63 	vldr	s12, [pc, #396]	; 800a2b8 <expm1f+0x220>
 800a12e:	eddf 6a63 	vldr	s13, [pc, #396]	; 800a2bc <expm1f+0x224>
 800a132:	ed9f 5a63 	vldr	s10, [pc, #396]	; 800a2c0 <expm1f+0x228>
 800a136:	ee20 7a04 	vmul.f32	s14, s0, s8
 800a13a:	eef0 4a08 	vmov.f32	s9, #8	; 0x40400000  3.0
 800a13e:	eee7 6a06 	vfma.f32	s13, s14, s12
 800a142:	ed9f 6a60 	vldr	s12, [pc, #384]	; 800a2c4 <expm1f+0x22c>
 800a146:	eea6 6a87 	vfma.f32	s12, s13, s14
 800a14a:	eddf 6a5f 	vldr	s13, [pc, #380]	; 800a2c8 <expm1f+0x230>
 800a14e:	eee6 6a07 	vfma.f32	s13, s12, s14
 800a152:	eeb7 6a00 	vmov.f32	s12, #112	; 0x3f800000  1.0
 800a156:	eea6 5a87 	vfma.f32	s10, s13, s14
 800a15a:	eef0 6a46 	vmov.f32	s13, s12
 800a15e:	eee5 6a07 	vfma.f32	s13, s10, s14
 800a162:	eee4 4a66 	vfms.f32	s9, s8, s13
 800a166:	eeb1 4a08 	vmov.f32	s8, #24	; 0x40c00000  6.0
 800a16a:	eea0 4a64 	vfms.f32	s8, s0, s9
 800a16e:	ee36 5ae4 	vsub.f32	s10, s13, s9
 800a172:	eec5 6a04 	vdiv.f32	s13, s10, s8
 800a176:	ee66 6a87 	vmul.f32	s13, s13, s14
 800a17a:	bb7b      	cbnz	r3, 800a1dc <expm1f+0x144>
 800a17c:	ee90 7a26 	vfnms.f32	s14, s0, s13
 800a180:	ee30 0a47 	vsub.f32	s0, s0, s14
 800a184:	4770      	bx	lr
 800a186:	eebe 7a00 	vmov.f32	s14, #224	; 0xbf000000 -0.5
 800a18a:	2a00      	cmp	r2, #0
 800a18c:	eef6 7a00 	vmov.f32	s15, #96	; 0x3f000000  0.5
 800a190:	bfb8      	it	lt
 800a192:	eef0 7a47 	vmovlt.f32	s15, s14
 800a196:	ed9f 7a4d 	vldr	s14, [pc, #308]	; 800a2cc <expm1f+0x234>
 800a19a:	ee40 7a07 	vmla.f32	s15, s0, s14
 800a19e:	eeb0 7a40 	vmov.f32	s14, s0
 800a1a2:	eefd 7ae7 	vcvt.s32.f32	s15, s15
 800a1a6:	eef8 6ae7 	vcvt.f32.s32	s13, s15
 800a1aa:	ee17 3a90 	vmov	r3, s15
 800a1ae:	eddf 7a3f 	vldr	s15, [pc, #252]	; 800a2ac <expm1f+0x214>
 800a1b2:	eea6 7ae7 	vfms.f32	s14, s13, s15
 800a1b6:	eddf 7a3e 	vldr	s15, [pc, #248]	; 800a2b0 <expm1f+0x218>
 800a1ba:	ee66 6aa7 	vmul.f32	s13, s13, s15
 800a1be:	e7aa      	b.n	800a116 <expm1f+0x7e>
 800a1c0:	f1b3 5f4c 	cmp.w	r3, #855638016	; 0x33000000
 800a1c4:	d208      	bcs.n	800a1d8 <expm1f+0x140>
 800a1c6:	eddf 7a42 	vldr	s15, [pc, #264]	; 800a2d0 <expm1f+0x238>
 800a1ca:	ee70 7a27 	vadd.f32	s15, s0, s15
 800a1ce:	ee77 7ae7 	vsub.f32	s15, s15, s15
 800a1d2:	ee30 0a67 	vsub.f32	s0, s0, s15
 800a1d6:	4770      	bx	lr
 800a1d8:	2300      	movs	r3, #0
 800a1da:	e7a2      	b.n	800a122 <expm1f+0x8a>
 800a1dc:	ee76 6ae7 	vsub.f32	s13, s13, s15
 800a1e0:	1c5a      	adds	r2, r3, #1
 800a1e2:	eed6 7a80 	vfnms.f32	s15, s13, s0
 800a1e6:	ee77 7ac7 	vsub.f32	s15, s15, s14
 800a1ea:	d106      	bne.n	800a1fa <expm1f+0x162>
 800a1ec:	ee70 7a67 	vsub.f32	s15, s0, s15
 800a1f0:	eebe 0a00 	vmov.f32	s0, #224	; 0xbf000000 -0.5
 800a1f4:	eea7 0aa5 	vfma.f32	s0, s15, s11
 800a1f8:	4770      	bx	lr
 800a1fa:	2b01      	cmp	r3, #1
 800a1fc:	d118      	bne.n	800a230 <expm1f+0x198>
 800a1fe:	eebd 7a00 	vmov.f32	s14, #208	; 0xbe800000 -0.250
 800a202:	eeb4 0ac7 	vcmpe.f32	s0, s14
 800a206:	eef1 fa10 	vmrs	APSR_nzcv, fpscr
 800a20a:	bf5b      	ittet	pl
 800a20c:	ee70 7a67 	vsubpl.f32	s15, s0, s15
 800a210:	eeb0 7a00 	vmovpl.f32	s14, #0	; 0x40000000  2.0
 800a214:	ee70 5a25 	vaddmi.f32	s11, s0, s11
 800a218:	eea7 6a87 	vfmapl.f32	s12, s15, s14
 800a21c:	bf43      	ittte	mi
 800a21e:	ee77 7ae5 	vsubmi.f32	s15, s15, s11
 800a222:	eeb8 0a00 	vmovmi.f32	s0, #128	; 0xc0000000 -2.0
 800a226:	ee27 0a80 	vmulmi.f32	s0, s15, s0
 800a22a:	eeb0 0a46 	vmovpl.f32	s0, s12
 800a22e:	4770      	bx	lr
 800a230:	1c5a      	adds	r2, r3, #1
 800a232:	2a39      	cmp	r2, #57	; 0x39
 800a234:	ea4f 51c3 	mov.w	r1, r3, lsl #23
 800a238:	d90b      	bls.n	800a252 <expm1f+0x1ba>
 800a23a:	ee77 7ac0 	vsub.f32	s15, s15, s0
 800a23e:	ee76 7a67 	vsub.f32	s15, s12, s15
 800a242:	ee17 3a90 	vmov	r3, s15
 800a246:	4419      	add	r1, r3
 800a248:	ee07 1a90 	vmov	s15, r1
 800a24c:	ee37 0ac6 	vsub.f32	s0, s15, s12
 800a250:	4770      	bx	lr
 800a252:	2b16      	cmp	r3, #22
 800a254:	dc11      	bgt.n	800a27a <expm1f+0x1e2>
 800a256:	f04f 7280 	mov.w	r2, #16777216	; 0x1000000
 800a25a:	fa42 f303 	asr.w	r3, r2, r3
 800a25e:	f1c3 537e 	rsb	r3, r3, #1065353216	; 0x3f800000
 800a262:	ee07 3a10 	vmov	s14, r3
 800a266:	ee77 7ac0 	vsub.f32	s15, s15, s0
 800a26a:	ee77 7a67 	vsub.f32	s15, s14, s15
 800a26e:	ee17 3a90 	vmov	r3, s15
 800a272:	440b      	add	r3, r1
 800a274:	ee00 3a10 	vmov	s0, r3
 800a278:	4770      	bx	lr
 800a27a:	f1c3 037f 	rsb	r3, r3, #127	; 0x7f
 800a27e:	05db      	lsls	r3, r3, #23
 800a280:	ee07 3a10 	vmov	s14, r3
 800a284:	ee77 7a87 	vadd.f32	s15, s15, s14
 800a288:	ee70 7a67 	vsub.f32	s15, s0, s15
 800a28c:	ee77 7a86 	vadd.f32	s15, s15, s12
 800a290:	ee17 3a90 	vmov	r3, s15
 800a294:	e7ed      	b.n	800a272 <expm1f+0x1da>
 800a296:	bf00      	nop
 800a298:	4195b843 	.word	0x4195b843
 800a29c:	42b17217 	.word	0x42b17217
 800a2a0:	0da24260 	.word	0x0da24260
 800a2a4:	3eb17218 	.word	0x3eb17218
 800a2a8:	3f851591 	.word	0x3f851591
 800a2ac:	3f317180 	.word	0x3f317180
 800a2b0:	3717f7d1 	.word	0x3717f7d1
 800a2b4:	b717f7d1 	.word	0xb717f7d1
 800a2b8:	b457edbb 	.word	0xb457edbb
 800a2bc:	36867e54 	.word	0x36867e54
 800a2c0:	bd088889 	.word	0xbd088889
 800a2c4:	b8a670cd 	.word	0xb8a670cd
 800a2c8:	3ad00d01 	.word	0x3ad00d01
 800a2cc:	3fb8aa3b 	.word	0x3fb8aa3b
 800a2d0:	7149f2ca 	.word	0x7149f2ca

0800a2d4 <with_errnof>:
 800a2d4:	b513      	push	{r0, r1, r4, lr}
 800a2d6:	4604      	mov	r4, r0
 800a2d8:	ed8d 0a01 	vstr	s0, [sp, #4]
 800a2dc:	f7fd fe74 	bl	8007fc8 <__errno>
 800a2e0:	ed9d 0a01 	vldr	s0, [sp, #4]
 800a2e4:	6004      	str	r4, [r0, #0]
 800a2e6:	b002      	add	sp, #8
 800a2e8:	bd10      	pop	{r4, pc}

0800a2ea <xflowf>:
 800a2ea:	b130      	cbz	r0, 800a2fa <xflowf+0x10>
 800a2ec:	eef1 7a40 	vneg.f32	s15, s0
 800a2f0:	ee27 0a80 	vmul.f32	s0, s15, s0
 800a2f4:	2022      	movs	r0, #34	; 0x22
 800a2f6:	f7ff bfed 	b.w	800a2d4 <with_errnof>
 800a2fa:	eef0 7a40 	vmov.f32	s15, s0
 800a2fe:	e7f7      	b.n	800a2f0 <xflowf+0x6>

0800a300 <__math_uflowf>:
 800a300:	ed9f 0a01 	vldr	s0, [pc, #4]	; 800a308 <__math_uflowf+0x8>
 800a304:	f7ff bff1 	b.w	800a2ea <xflowf>
 800a308:	10000000 	.word	0x10000000

0800a30c <__math_oflowf>:
 800a30c:	ed9f 0a01 	vldr	s0, [pc, #4]	; 800a314 <__math_oflowf+0x8>
 800a310:	f7ff bfeb 	b.w	800a2ea <xflowf>
 800a314:	70000000 	.word	0x70000000

0800a318 <__ieee754_expf>:
 800a318:	ee10 2a10 	vmov	r2, s0
 800a31c:	f022 4300 	bic.w	r3, r2, #2147483648	; 0x80000000
 800a320:	f1b3 4fff 	cmp.w	r3, #2139095040	; 0x7f800000
 800a324:	d902      	bls.n	800a32c <__ieee754_expf+0x14>
 800a326:	ee30 0a00 	vadd.f32	s0, s0, s0
 800a32a:	4770      	bx	lr
 800a32c:	ea4f 71d2 	mov.w	r1, r2, lsr #31
 800a330:	d106      	bne.n	800a340 <__ieee754_expf+0x28>
 800a332:	eddf 7a4e 	vldr	s15, [pc, #312]	; 800a46c <__ieee754_expf+0x154>
 800a336:	2900      	cmp	r1, #0
 800a338:	bf18      	it	ne
 800a33a:	eeb0 0a67 	vmovne.f32	s0, s15
 800a33e:	4770      	bx	lr
 800a340:	484b      	ldr	r0, [pc, #300]	; (800a470 <__ieee754_expf+0x158>)
 800a342:	4282      	cmp	r2, r0
 800a344:	dd02      	ble.n	800a34c <__ieee754_expf+0x34>
 800a346:	2000      	movs	r0, #0
 800a348:	f7ff bfe0 	b.w	800a30c <__math_oflowf>
 800a34c:	2a00      	cmp	r2, #0
 800a34e:	da05      	bge.n	800a35c <__ieee754_expf+0x44>
 800a350:	4a48      	ldr	r2, [pc, #288]	; (800a474 <__ieee754_expf+0x15c>)
 800a352:	4293      	cmp	r3, r2
 800a354:	d902      	bls.n	800a35c <__ieee754_expf+0x44>
 800a356:	2000      	movs	r0, #0
 800a358:	f7ff bfd2 	b.w	800a300 <__math_uflowf>
 800a35c:	4a46      	ldr	r2, [pc, #280]	; (800a478 <__ieee754_expf+0x160>)
 800a35e:	4293      	cmp	r3, r2
 800a360:	eef7 5a00 	vmov.f32	s11, #112	; 0x3f800000  1.0
 800a364:	d952      	bls.n	800a40c <__ieee754_expf+0xf4>
 800a366:	4a45      	ldr	r2, [pc, #276]	; (800a47c <__ieee754_expf+0x164>)
 800a368:	4293      	cmp	r3, r2
 800a36a:	ea4f 0281 	mov.w	r2, r1, lsl #2
 800a36e:	d834      	bhi.n	800a3da <__ieee754_expf+0xc2>
 800a370:	4b43      	ldr	r3, [pc, #268]	; (800a480 <__ieee754_expf+0x168>)
 800a372:	4413      	add	r3, r2
 800a374:	ed93 7a00 	vldr	s14, [r3]
 800a378:	4b42      	ldr	r3, [pc, #264]	; (800a484 <__ieee754_expf+0x16c>)
 800a37a:	4413      	add	r3, r2
 800a37c:	ee30 7a47 	vsub.f32	s14, s0, s14
 800a380:	f1c1 0201 	rsb	r2, r1, #1
 800a384:	edd3 7a00 	vldr	s15, [r3]
 800a388:	1a52      	subs	r2, r2, r1
 800a38a:	ee37 0a67 	vsub.f32	s0, s14, s15
 800a38e:	ee20 6a00 	vmul.f32	s12, s0, s0
 800a392:	ed9f 5a3d 	vldr	s10, [pc, #244]	; 800a488 <__ieee754_expf+0x170>
 800a396:	eddf 6a3d 	vldr	s13, [pc, #244]	; 800a48c <__ieee754_expf+0x174>
 800a39a:	eee6 6a05 	vfma.f32	s13, s12, s10
 800a39e:	ed9f 5a3c 	vldr	s10, [pc, #240]	; 800a490 <__ieee754_expf+0x178>
 800a3a2:	eea6 5a86 	vfma.f32	s10, s13, s12
 800a3a6:	eddf 6a3b 	vldr	s13, [pc, #236]	; 800a494 <__ieee754_expf+0x17c>
 800a3aa:	eee5 6a06 	vfma.f32	s13, s10, s12
 800a3ae:	ed9f 5a3a 	vldr	s10, [pc, #232]	; 800a498 <__ieee754_expf+0x180>
 800a3b2:	eea6 5a86 	vfma.f32	s10, s13, s12
 800a3b6:	eef0 6a40 	vmov.f32	s13, s0
 800a3ba:	eee5 6a46 	vfms.f32	s13, s10, s12
 800a3be:	eeb0 6a00 	vmov.f32	s12, #0	; 0x40000000  2.0
 800a3c2:	ee20 5a26 	vmul.f32	s10, s0, s13
 800a3c6:	bb92      	cbnz	r2, 800a42e <__ieee754_expf+0x116>
 800a3c8:	ee76 6ac6 	vsub.f32	s13, s13, s12
 800a3cc:	eec5 7a26 	vdiv.f32	s15, s10, s13
 800a3d0:	ee37 0ac0 	vsub.f32	s0, s15, s0
 800a3d4:	ee35 0ac0 	vsub.f32	s0, s11, s0
 800a3d8:	4770      	bx	lr
 800a3da:	4b30      	ldr	r3, [pc, #192]	; (800a49c <__ieee754_expf+0x184>)
 800a3dc:	ed9f 7a30 	vldr	s14, [pc, #192]	; 800a4a0 <__ieee754_expf+0x188>
 800a3e0:	eddf 6a30 	vldr	s13, [pc, #192]	; 800a4a4 <__ieee754_expf+0x18c>
 800a3e4:	4413      	add	r3, r2
 800a3e6:	edd3 7a00 	vldr	s15, [r3]
 800a3ea:	eee0 7a07 	vfma.f32	s15, s0, s14
 800a3ee:	eeb0 7a40 	vmov.f32	s14, s0
 800a3f2:	eefd 7ae7 	vcvt.s32.f32	s15, s15
 800a3f6:	ee17 2a90 	vmov	r2, s15
 800a3fa:	eef8 7ae7 	vcvt.f32.s32	s15, s15
 800a3fe:	eea7 7ae6 	vfms.f32	s14, s15, s13
 800a402:	eddf 6a29 	vldr	s13, [pc, #164]	; 800a4a8 <__ieee754_expf+0x190>
 800a406:	ee67 7aa6 	vmul.f32	s15, s15, s13
 800a40a:	e7be      	b.n	800a38a <__ieee754_expf+0x72>
 800a40c:	f1b3 5f50 	cmp.w	r3, #872415232	; 0x34000000
 800a410:	d20b      	bcs.n	800a42a <__ieee754_expf+0x112>
 800a412:	eddf 6a26 	vldr	s13, [pc, #152]	; 800a4ac <__ieee754_expf+0x194>
 800a416:	ee70 6a26 	vadd.f32	s13, s0, s13
 800a41a:	eef4 6ae5 	vcmpe.f32	s13, s11
 800a41e:	eef1 fa10 	vmrs	APSR_nzcv, fpscr
 800a422:	dd02      	ble.n	800a42a <__ieee754_expf+0x112>
 800a424:	ee30 0a25 	vadd.f32	s0, s0, s11
 800a428:	4770      	bx	lr
 800a42a:	2200      	movs	r2, #0
 800a42c:	e7af      	b.n	800a38e <__ieee754_expf+0x76>
 800a42e:	ee36 6a66 	vsub.f32	s12, s12, s13
 800a432:	f112 0f7d 	cmn.w	r2, #125	; 0x7d
 800a436:	eec5 6a06 	vdiv.f32	s13, s10, s12
 800a43a:	bfb8      	it	lt
 800a43c:	3264      	addlt	r2, #100	; 0x64
 800a43e:	ee77 7ae6 	vsub.f32	s15, s15, s13
 800a442:	ee77 7ac7 	vsub.f32	s15, s15, s14
 800a446:	ee75 7ae7 	vsub.f32	s15, s11, s15
 800a44a:	ee17 3a90 	vmov	r3, s15
 800a44e:	bfab      	itete	ge
 800a450:	eb03 53c2 	addge.w	r3, r3, r2, lsl #23
 800a454:	eb03 53c2 	addlt.w	r3, r3, r2, lsl #23
 800a458:	ee00 3a10 	vmovge	s0, r3
 800a45c:	eddf 7a14 	vldrlt	s15, [pc, #80]	; 800a4b0 <__ieee754_expf+0x198>
 800a460:	bfbc      	itt	lt
 800a462:	ee00 3a10 	vmovlt	s0, r3
 800a466:	ee20 0a27 	vmullt.f32	s0, s0, s15
 800a46a:	4770      	bx	lr
 800a46c:	00000000 	.word	0x00000000
 800a470:	42b17217 	.word	0x42b17217
 800a474:	42cff1b5 	.word	0x42cff1b5
 800a478:	3eb17218 	.word	0x3eb17218
 800a47c:	3f851591 	.word	0x3f851591
 800a480:	0803d5b4 	.word	0x0803d5b4
 800a484:	0803d5bc 	.word	0x0803d5bc
 800a488:	3331bb4c 	.word	0x3331bb4c
 800a48c:	b5ddea0e 	.word	0xb5ddea0e
 800a490:	388ab355 	.word	0x388ab355
 800a494:	bb360b61 	.word	0xbb360b61
 800a498:	3e2aaaab 	.word	0x3e2aaaab
 800a49c:	0803d5ac 	.word	0x0803d5ac
 800a4a0:	3fb8aa3b 	.word	0x3fb8aa3b
 800a4a4:	3f317180 	.word	0x3f317180
 800a4a8:	3717f7d1 	.word	0x3717f7d1
 800a4ac:	7149f2ca 	.word	0x7149f2ca
 800a4b0:	0d800000 	.word	0x0d800000

0800a4b4 <_close>:
 800a4b4:	4b02      	ldr	r3, [pc, #8]	; (800a4c0 <_close+0xc>)
 800a4b6:	2258      	movs	r2, #88	; 0x58
 800a4b8:	601a      	str	r2, [r3, #0]
 800a4ba:	f04f 30ff 	mov.w	r0, #4294967295
 800a4be:	4770      	bx	lr
 800a4c0:	20001890 	.word	0x20001890

0800a4c4 <_fstat>:
 800a4c4:	4b02      	ldr	r3, [pc, #8]	; (800a4d0 <_fstat+0xc>)
 800a4c6:	2258      	movs	r2, #88	; 0x58
 800a4c8:	601a      	str	r2, [r3, #0]
 800a4ca:	f04f 30ff 	mov.w	r0, #4294967295
 800a4ce:	4770      	bx	lr
 800a4d0:	20001890 	.word	0x20001890

0800a4d4 <_getpid>:
 800a4d4:	4b02      	ldr	r3, [pc, #8]	; (800a4e0 <_getpid+0xc>)
 800a4d6:	2258      	movs	r2, #88	; 0x58
 800a4d8:	601a      	str	r2, [r3, #0]
 800a4da:	f04f 30ff 	mov.w	r0, #4294967295
 800a4de:	4770      	bx	lr
 800a4e0:	20001890 	.word	0x20001890

0800a4e4 <_isatty>:
 800a4e4:	4b02      	ldr	r3, [pc, #8]	; (800a4f0 <_isatty+0xc>)
 800a4e6:	2258      	movs	r2, #88	; 0x58
 800a4e8:	601a      	str	r2, [r3, #0]
 800a4ea:	2000      	movs	r0, #0
 800a4ec:	4770      	bx	lr
 800a4ee:	bf00      	nop
 800a4f0:	20001890 	.word	0x20001890

0800a4f4 <_kill>:
 800a4f4:	4b02      	ldr	r3, [pc, #8]	; (800a500 <_kill+0xc>)
 800a4f6:	2258      	movs	r2, #88	; 0x58
 800a4f8:	601a      	str	r2, [r3, #0]
 800a4fa:	f04f 30ff 	mov.w	r0, #4294967295
 800a4fe:	4770      	bx	lr
 800a500:	20001890 	.word	0x20001890

0800a504 <_lseek>:
 800a504:	4b02      	ldr	r3, [pc, #8]	; (800a510 <_lseek+0xc>)
 800a506:	2258      	movs	r2, #88	; 0x58
 800a508:	601a      	str	r2, [r3, #0]
 800a50a:	f04f 30ff 	mov.w	r0, #4294967295
 800a50e:	4770      	bx	lr
 800a510:	20001890 	.word	0x20001890

0800a514 <_read>:
 800a514:	4b02      	ldr	r3, [pc, #8]	; (800a520 <_read+0xc>)
 800a516:	2258      	movs	r2, #88	; 0x58
 800a518:	601a      	str	r2, [r3, #0]
 800a51a:	f04f 30ff 	mov.w	r0, #4294967295
 800a51e:	4770      	bx	lr
 800a520:	20001890 	.word	0x20001890

0800a524 <_exit>:
 800a524:	e7fe      	b.n	800a524 <_exit>
	...

0800a528 <_init>:
 800a528:	b5f8      	push	{r3, r4, r5, r6, r7, lr}
 800a52a:	bf00      	nop
 800a52c:	bcf8      	pop	{r3, r4, r5, r6, r7}
 800a52e:	bc08      	pop	{r3}
 800a530:	469e      	mov	lr, r3
 800a532:	4770      	bx	lr

0800a534 <_fini>:
 800a534:	b5f8      	push	{r3, r4, r5, r6, r7, lr}
 800a536:	bf00      	nop
 800a538:	bcf8      	pop	{r3, r4, r5, r6, r7}
 800a53a:	bc08      	pop	{r3}
 800a53c:	469e      	mov	lr, r3
 800a53e:	4770      	bx	lr
